TN:
SF:/Library/Developer/CommandLineTools/SDKs/MacOSX.sdk/usr/include/_ctype.h
FNL:0,169,175
FNA:0,0,_Z9__isctypeim
FNL:1,242,244
FNA:1,0,_Z7isdigiti
FNF:2
FNH:0
DA:169,0
DA:174,0
DA:175,0
DA:242,0
DA:244,0
LF:5
LH:0
end_of_record
TN:
SF:/Library/Developer/CommandLineTools/SDKs/MacOSX.sdk/usr/include/c++/v1/__algorithm/comp.h
FNL:0,40,41
FNA:0,3028,_ZNKSt3__16__lessIvvEclB8ne200100ImmEEbRKT_RKT0_
FNF:1
FNH:1
DA:40,3028
DA:41,3028
LF:2
LH:2
end_of_record
TN:
SF:/Library/Developer/CommandLineTools/SDKs/MacOSX.sdk/usr/include/c++/v1/__algorithm/copy.h
FNL:0,101,102
FNA:0,0,_ZNKSt3__111__copy_implclB8ne200100IKchLi0EEENS_4pairIPT_PT0_EES5_S5_S7_
FNA:0,0,_ZNKSt3__111__copy_implclB8ne200100IKhhLi0EEENS_4pairIPT_PT0_EES5_S5_S7_
FNA:0,61,_ZNKSt3__111__copy_implclB8ne200100IhhLi0EEENS_4pairIPT_PT0_EES4_S4_S6_
FNL:1,108,109
FNA:1,0,_ZNSt3__16__copyB8ne200100INS_11__wrap_iterIPKcEES4_PhEENS_4pairIT_T1_EES7_T0_S8_
FNA:1,0,_ZNSt3__16__copyB8ne200100INS_11__wrap_iterIPKhEES4_PhEENS_4pairIT_T1_EES7_T0_S8_
FNA:1,0,_ZNSt3__16__copyB8ne200100INS_11__wrap_iterIPhEES3_S2_EENS_4pairIT_T1_EES5_T0_S6_
FNA:1,17,_ZNSt3__16__copyB8ne200100INS_14__bit_iteratorINS_6vectorIbNS_9allocatorIbEEEELb0ELm0EEES6_S6_EENS_4pairIT_T1_EES8_T0_S9_
FNA:1,0,_ZNSt3__16__copyB8ne200100IPKhS2_PhEENS_4pairIT_T1_EES5_T0_S6_
FNA:1,61,_ZNSt3__16__copyB8ne200100IPhS1_S1_EENS_4pairIT_T1_EES3_T0_S4_
FNL:2,114,115
FNA:2,0,_ZNSt3__14copyB8ne200100INS_11__wrap_iterIPKcEEPhEET0_T_S7_S6_
FNA:2,0,_ZNSt3__14copyB8ne200100INS_11__wrap_iterIPKhEEPhEET0_T_S7_S6_
FNA:2,0,_ZNSt3__14copyB8ne200100INS_11__wrap_iterIPhEES2_EET0_T_S5_S4_
FNA:2,0,_ZNSt3__14copyB8ne200100IPKhPhEET0_T_S5_S4_
FNA:2,60,_ZNSt3__14copyB8ne200100IPhS1_EET0_T_S3_S2_
FNL:3,38,45
FNA:3,17,_ZNKSt3__111__copy_implclB8ne200100INS_14__bit_iteratorINS_6vectorIbNS_9allocatorIbEEEELb0ELm0EEES7_S7_EENS_4pairIT_T1_EES9_T0_SA_
FNF:4
FNH:4
DA:38,17
DA:39,17
DA:40,0
DA:41,0
DA:42,0
DA:45,17
DA:101,61
DA:102,61
DA:108,78
DA:109,78
DA:114,60
DA:115,60
LF:12
LH:9
end_of_record
TN:
SF:/Library/Developer/CommandLineTools/SDKs/MacOSX.sdk/usr/include/c++/v1/__algorithm/copy_move_common.h
FNL:0,61,66
FNA:0,0,_ZNSt3__119__copy_trivial_implB8ne200100IKchEENS_4pairIPT_PT0_EES4_S4_S6_
FNA:0,0,_ZNSt3__119__copy_trivial_implB8ne200100IKhhEENS_4pairIPT_PT0_EES4_S4_S6_
FNA:0,0,_ZNSt3__119__copy_trivial_implB8ne200100IPNS_4pairINS_6chrono10time_pointINS2_12steady_clockENS2_8durationIxNS_5ratioILl1ELl1000000000EEEEEEEmEESB_EENS1_IPT_PT0_EESD_SD_SF_
FNA:0,61,_ZNSt3__119__copy_trivial_implB8ne200100IhhEENS_4pairIPT_PT0_EES3_S3_S5_
FNL:1,71,77
FNA:1,0,_ZNSt3__128__copy_backward_trivial_implB8ne200100IPNS_4pairINS_6chrono10time_pointINS2_12steady_clockENS2_8durationIxNS_5ratioILl1ELl1000000000EEEEEEEmEESB_EENS1_IPT_PT0_EESD_SD_SF_
FNA:1,0,_ZNSt3__128__copy_backward_trivial_implB8ne200100IhhEENS_4pairIPT_PT0_EES3_S3_S5_
FNL:2,92,96
FNA:2,0,_ZNSt3__124__copy_move_unwrap_itersB8ne200100INS_11__copy_implENS_11__wrap_iterIPKcEES5_PhLi0EEENS_4pairIT0_T2_EES8_T1_S9_
FNA:2,0,_ZNSt3__124__copy_move_unwrap_itersB8ne200100INS_11__copy_implENS_11__wrap_iterIPKhEES5_PhLi0EEENS_4pairIT0_T2_EES8_T1_S9_
FNA:2,0,_ZNSt3__124__copy_move_unwrap_itersB8ne200100INS_11__copy_implENS_11__wrap_iterIPhEES4_S3_Li0EEENS_4pairIT0_T2_EES6_T1_S7_
FNA:2,17,_ZNSt3__124__copy_move_unwrap_itersB8ne200100INS_11__copy_implENS_14__bit_iteratorINS_6vectorIbNS_9allocatorIbEEEELb0ELm0EEES7_S7_Li0EEENS_4pairIT0_T2_EES9_T1_SA_
FNA:2,0,_ZNSt3__124__copy_move_unwrap_itersB8ne200100INS_11__copy_implEPKhS3_PhLi0EEENS_4pairIT0_T2_EES6_T1_S7_
FNA:2,61,_ZNSt3__124__copy_move_unwrap_itersB8ne200100INS_11__copy_implEPhS2_S2_Li0EEENS_4pairIT0_T2_EES4_T1_S5_
FNA:2,0,_ZNSt3__124__copy_move_unwrap_itersB8ne200100INS_11__move_implINS_17_ClassicAlgPolicyEEENS_11__wrap_iterIPN8nlohmann16json_abi_v3_12_010basic_jsonINS_3mapENS_6vectorENS_12basic_stringIcNS_11char_traitsIcEENS_9allocatorIcEEEEbxydSD_NS6_14adl_serializerENS9_IhNSD_IhEEEEvEEEESL_NS_20back_insert_iteratorINS9_ISJ_NSD_ISJ_EEEEEELi0EEENS_4pairIT0_T2_EESR_T1_SS_
FNA:2,0,_ZNSt3__124__copy_move_unwrap_itersB8ne200100INS_11__move_implINS_17_ClassicAlgPolicyEEEPN8nlohmann16json_abi_v3_12_010basic_jsonINS_3mapENS_6vectorENS_12basic_stringIcNS_11char_traitsIcEENS_9allocatorIcEEEEbxydSC_NS5_14adl_serializerENS8_IhNSC_IhEEEEvEESJ_SJ_Li0EEENS_4pairIT0_T2_EESL_T1_SM_
FNA:2,0,_ZNSt3__124__copy_move_unwrap_itersB8ne200100INS_11__move_implINS_17_ClassicAlgPolicyEEEPPNS_4pairINS_6chrono10time_pointINS5_12steady_clockENS5_8durationIxNS_5ratioILl1ELl1000000000EEEEEEEmEESF_SF_Li0EEENS4_IT0_T2_EESG_T1_SH_
FNA:2,0,_ZNSt3__124__copy_move_unwrap_itersB8ne200100INS_20__move_backward_implINS_17_ClassicAlgPolicyEEEPPNS_4pairINS_6chrono10time_pointINS5_12steady_clockENS5_8durationIxNS_5ratioILl1ELl1000000000EEEEEEEmEESF_SF_Li0EEENS4_IT0_T2_EESG_T1_SH_
FNA:2,0,_ZNSt3__124__copy_move_unwrap_itersB8ne200100INS_20__move_backward_implINS_17_ClassicAlgPolicyEEEPhS4_S4_Li0EEENS_4pairIT0_T2_EES6_T1_S7_
FNF:3
FNH:2
DA:61,61
DA:62,61
DA:64,61
DA:66,61
DA:71,0
DA:72,0
DA:73,0
DA:75,0
DA:77,0
DA:92,78
DA:93,78
DA:94,78
DA:95,156
DA:96,78
LF:14
LH:9
end_of_record
TN:
SF:/Library/Developer/CommandLineTools/SDKs/MacOSX.sdk/usr/include/c++/v1/__algorithm/copy_n.h
FNL:0,51,55
FNA:0,0,_ZNSt3__16copy_nB8ne200100INS_11__wrap_iterIPKcEElPhLi0EEET1_T_T0_S6_
FNA:0,0,_ZNSt3__16copy_nB8ne200100INS_11__wrap_iterIPKhEElPhLi0EEET1_T_T0_S6_
FNA:0,0,_ZNSt3__16copy_nB8ne200100INS_11__wrap_iterIPhEElS2_Li0EEET1_T_T0_S4_
FNA:0,0,_ZNSt3__16copy_nB8ne200100IPKhlPhLi0EEET1_T_T0_S4_
FNA:0,0,_ZNSt3__16copy_nB8ne200100IPhlS1_Li0EEET1_T_T0_S2_
FNF:1
FNH:0
DA:51,0
DA:54,0
DA:55,0
LF:3
LH:0
end_of_record
TN:
SF:/Library/Developer/CommandLineTools/SDKs/MacOSX.sdk/usr/include/c++/v1/__algorithm/count.h
FNL:0,47,71
FNA:0,0,_ZNSt3__112__count_boolB8ne200100ILb0ENS_8__bitsetILm256ELm16384EEELb1EEENS_14__bit_iteratorIT0_XT1_EXLi0EEE15difference_typeES5_NS_29__size_difference_type_traitsIS4_vE9size_typeE
FNA:0,50,_ZNSt3__112__count_boolB8ne200100ILb1ENS_8__bitsetILm256ELm16384EEELb1EEENS_14__bit_iteratorIT0_XT1_EXLi0EEE15difference_typeES5_NS_29__size_difference_type_traitsIS4_vE9size_typeE
FNL:1,76,82
FNA:1,50,_ZNSt3__17__countB8ne200100INS_17_ClassicAlgPolicyENS_8__bitsetILm256ELm16384EEELb1EbNS_10__identityELi0EEENS_15iterator_traitsINS_14__bit_iteratorIT0_XT1_EXLi0EEEEE15difference_typeES8_S8_RKT2_RT3_
FNL:2,86,88
FNA:2,50,_ZNSt3__15countB8ne200100INS_14__bit_iteratorINS_8__bitsetILm256ELm16384EEELb1ELm0EEEbEENS_15iterator_traitsIT_E15difference_typeES6_S6_RKT0_
FNF:3
FNH:3
DA:47,50
DA:52,50
DA:53,50
DA:55,50
DA:56,0
DA:57,0
DA:58,0
DA:59,0
DA:60,0
DA:61,0
DA:62,0
DA:64,12850
DA:65,12800
DA:67,50
DA:68,0
DA:69,0
DA:70,0
DA:71,50
DA:76,50
DA:77,50
DA:78,50
DA:79,50
DA:80,0
DA:81,0
DA:82,50
DA:86,50
DA:88,50
LF:27
LH:15
end_of_record
TN:
SF:/Library/Developer/CommandLineTools/SDKs/MacOSX.sdk/usr/include/c++/v1/__algorithm/equal.h
FNL:0,52,53
FNA:0,16,_ZNSt3__117__equal_iter_implB8ne200100IKhS1_NS_10__equal_toELi0EEEbPT_S4_PT0_RT1_
FNL:1,58,60
FNA:1,9,_ZNSt3__15equalB8ne200100INS_11__wrap_iterIPKhEES4_NS_10__equal_toEEEbT_S6_T0_T1_
FNA:1,7,_ZNSt3__15equalB8ne200100IPKhS2_NS_10__equal_toEEEbT_S4_T0_T1_
FNL:2,65,66
FNA:2,9,_ZNSt3__15equalB8ne200100INS_11__wrap_iterIPKhEES4_EEbT_S5_T0_
FNA:2,7,_ZNSt3__15equalB8ne200100IPKhS2_EEbT_S3_T0_
FNF:3
FNH:3
DA:52,16
DA:53,16
DA:58,16
DA:59,16
DA:60,16
DA:65,16
DA:66,16
LF:7
LH:7
end_of_record
TN:
SF:/Library/Developer/CommandLineTools/SDKs/MacOSX.sdk/usr/include/c++/v1/__algorithm/fill_n.h
FNL:0,81,84
FNA:0,116,_ZNSt3__18__fill_nB8ne200100IPcmcEET_S2_T0_RKT1_
FNA:0,13,_ZNSt3__18__fill_nB8ne200100IPhmhEET_S2_T0_RKT1_
FNL:1,89,90
FNA:1,116,_ZNSt3__16fill_nB8ne200100IPcmcEET_S2_T0_RKT1_
FNA:1,13,_ZNSt3__16fill_nB8ne200100IPhmhEET_S2_T0_RKT1_
FNF:2
FNH:2
DA:81,129
DA:82,401
DA:83,272
DA:84,129
DA:89,129
DA:90,129
LF:6
LH:6
end_of_record
TN:
SF:/Library/Developer/CommandLineTools/SDKs/MacOSX.sdk/usr/include/c++/v1/__algorithm/iter_swap.h
FNL:0,23,27
FNA:0,0,_ZNSt3__19iter_swapB8ne200100IPNS_4pairIN3p2p9detection12DeviceVendorEdEES6_EEvT_T0_
FNF:1
FNH:0
DA:23,0
DA:26,0
DA:27,0
LF:3
LH:0
end_of_record
TN:
SF:/Library/Developer/CommandLineTools/SDKs/MacOSX.sdk/usr/include/c++/v1/__algorithm/iterator_operations.h
FNL:0,103,109
FNA:0,0,_ZNSt3__18_IterOpsINS_17_ClassicAlgPolicyEE25__validate_iter_referenceB8ne200100IRPN8nlohmann16json_abi_v3_12_010basic_jsonINS_3mapENS_6vectorENS_12basic_stringIcNS_11char_traitsIcEENS_9allocatorIcEEEEbxydSC_NS5_14adl_serializerENS8_IhNSC_IhEEEEvEEEEvv
FNA:0,263,_ZNSt3__18_IterOpsINS_17_ClassicAlgPolicyEE25__validate_iter_referenceB8ne200100IRPNS_4pairIN3p2p9detection12DeviceVendorEdEEEEvv
FNL:1,117,120
FNA:1,0,_ZNSt3__18_IterOpsINS_17_ClassicAlgPolicyEE11__iter_moveB8ne200100IRPN8nlohmann16json_abi_v3_12_010basic_jsonINS_3mapENS_6vectorENS_12basic_stringIcNS_11char_traitsIcEENS_9allocatorIcEEEEbxydSC_NS5_14adl_serializerENS8_IhNSC_IhEEEEvEELi0EEEDTclsr3stdE4movedeclsr3stdE7declvalIRT_EEEEOSL_
FNA:1,263,_ZNSt3__18_IterOpsINS_17_ClassicAlgPolicyEE11__iter_moveB8ne200100IRPNS_4pairIN3p2p9detection12DeviceVendorEdEELi0EEEDTclsr3stdE4movedeclsr3stdE7declvalIRT_EEEEOSB_
FNL:2,137,139
FNA:2,0,_ZNSt3__18_IterOpsINS_17_ClassicAlgPolicyEE9iter_swapB8ne200100IPNS_4pairIN3p2p9detection12DeviceVendorEdEES9_EEvOT_OT0_
FNA:2,0,_ZNSt3__18_IterOpsINS_17_ClassicAlgPolicyEE9iter_swapB8ne200100IRPNS_4pairIN3p2p9detection12DeviceVendorEdEES9_EEvOT_OT0_
FNA:2,0,_ZNSt3__18_IterOpsINS_17_ClassicAlgPolicyEE9iter_swapB8ne200100IRPNS_4pairIN3p2p9detection12DeviceVendorEdEESA_EEvOT_OT0_
FNL:3,143,144
FNA:3,0,_ZNSt3__18_IterOpsINS_17_ClassicAlgPolicyEE4nextB8ne200100IPNS_4pairIN3p2p9detection12DeviceVendorEdEEEET_SA_SA_
FNF:4
FNH:2
DA:103,263
DA:109,263
DA:117,263
DA:118,263
DA:120,263
DA:137,0
DA:138,0
DA:139,0
DA:143,0
DA:144,0
LF:10
LH:5
end_of_record
TN:
SF:/Library/Developer/CommandLineTools/SDKs/MacOSX.sdk/usr/include/c++/v1/__algorithm/make_heap.h
FNL:0,31,42
FNA:0,0,_ZNSt3__111__make_heapB8ne200100INS_17_ClassicAlgPolicyERZNK3p2p9detection14DeviceDetector6detectENS3_7NATTypeENS3_12PortStrategyEibbE3$_0PNS_4pairINS3_12DeviceVendorEdEEEEvT1_SD_OT0_
FNF:1
FNH:0
DA:31,0
DA:32,0
DA:35,0
DA:36,0
DA:38,0
DA:39,0
DA:40,0
DA:41,0
DA:42,0
LF:9
LH:0
end_of_record
TN:
SF:/Library/Developer/CommandLineTools/SDKs/MacOSX.sdk/usr/include/c++/v1/__algorithm/max.h
FNL:0,29,30
FNA:0,719,_ZNSt3__13maxB8ne200100ImNS_6__lessIvvEEEERKT_S5_S5_T0_
FNL:1,35,36
FNA:1,719,_ZNSt3__13maxB8ne200100ImEERKT_S3_S3_
FNF:2
FNH:2
DA:29,719
DA:30,719
DA:35,719
DA:36,719
LF:4
LH:4
end_of_record
TN:
SF:/Library/Developer/CommandLineTools/SDKs/MacOSX.sdk/usr/include/c++/v1/__algorithm/min.h
FNL:0,29,30
FNA:0,2309,_ZNSt3__13minB8ne200100ImNS_6__lessIvvEEEERKT_S5_S5_T0_
FNL:1,35,36
FNA:1,2309,_ZNSt3__13minB8ne200100ImEERKT_S3_S3_
FNF:2
FNH:2
DA:29,2309
DA:30,2309
DA:35,2309
DA:36,2309
LF:4
LH:4
end_of_record
TN:
SF:/Library/Developer/CommandLineTools/SDKs/MacOSX.sdk/usr/include/c++/v1/__algorithm/move.h
FNL:0,104,105
FNA:0,0,_ZNKSt3__111__move_implINS_17_ClassicAlgPolicyEEclB8ne200100IPNS_4pairINS_6chrono10time_pointINS5_12steady_clockENS5_8durationIxNS_5ratioILl1ELl1000000000EEEEEEEmEESE_Li0EEENS4_IPT_PT0_EESG_SG_SI_
FNL:1,111,113
FNA:1,0,_ZNSt3__16__moveB8ne200100INS_17_ClassicAlgPolicyENS_11__wrap_iterIPN8nlohmann16json_abi_v3_12_010basic_jsonINS_3mapENS_6vectorENS_12basic_stringIcNS_11char_traitsIcEENS_9allocatorIcEEEEbxydSB_NS4_14adl_serializerENS7_IhNSB_IhEEEEvEEEESJ_NS_20back_insert_iteratorINS7_ISH_NSB_ISH_EEEEEEEENS_4pairIT0_T2_EESP_T1_SQ_
FNA:1,0,_ZNSt3__16__moveB8ne200100INS_17_ClassicAlgPolicyEPN8nlohmann16json_abi_v3_12_010basic_jsonINS_3mapENS_6vectorENS_12basic_stringIcNS_11char_traitsIcEENS_9allocatorIcEEEEbxydSA_NS3_14adl_serializerENS6_IhNSA_IhEEEEvEESH_SH_EENS_4pairIT0_T2_EESJ_T1_SK_
FNA:1,0,_ZNSt3__16__moveB8ne200100INS_17_ClassicAlgPolicyEPPNS_4pairINS_6chrono10time_pointINS3_12steady_clockENS3_8durationIxNS_5ratioILl1ELl1000000000EEEEEEEmEESD_SD_EENS2_IT0_T2_EESE_T1_SF_
FNL:2,118,122
FNA:2,0,_ZNSt3__14moveB8ne200100INS_11__wrap_iterIPN8nlohmann16json_abi_v3_12_010basic_jsonINS_3mapENS_6vectorENS_12basic_stringIcNS_11char_traitsIcEENS_9allocatorIcEEEEbxydSA_NS3_14adl_serializerENS6_IhNSA_IhEEEEvEEEENS_20back_insert_iteratorINS6_ISG_NSA_ISG_EEEEEEEET0_T_SO_SN_
FNA:2,0,_ZNSt3__14moveB8ne200100IPN8nlohmann16json_abi_v3_12_010basic_jsonINS_3mapENS_6vectorENS_12basic_stringIcNS_11char_traitsIcEENS_9allocatorIcEEEEbxydS9_NS2_14adl_serializerENS5_IhNS9_IhEEEEvEESG_EET0_T_SI_SH_
FNA:2,0,_ZNSt3__14moveB8ne200100IPPNS_4pairINS_6chrono10time_pointINS2_12steady_clockENS2_8durationIxNS_5ratioILl1ELl1000000000EEEEEEEmEESC_EET0_T_SE_SD_
FNL:3,42,48
FNA:3,0,_ZNKSt3__111__move_implINS_17_ClassicAlgPolicyEEclB8ne200100IPN8nlohmann16json_abi_v3_12_010basic_jsonINS_3mapENS_6vectorENS_12basic_stringIcNS_11char_traitsIcEENS_9allocatorIcEEEEbxydSC_NS5_14adl_serializerENS8_IhNSC_IhEEEEvEESJ_NS_20back_insert_iteratorINS8_ISI_NSC_ISI_EEEEEEEENS_4pairIT_T1_EESP_T0_SQ_
FNA:3,0,_ZNKSt3__111__move_implINS_17_ClassicAlgPolicyEEclB8ne200100IPN8nlohmann16json_abi_v3_12_010basic_jsonINS_3mapENS_6vectorENS_12basic_stringIcNS_11char_traitsIcEENS_9allocatorIcEEEEbxydSC_NS5_14adl_serializerENS8_IhNSC_IhEEEEvEESJ_SJ_EENS_4pairIT_T1_EESL_T0_SM_
FNF:4
FNH:0
DA:42,0
DA:43,0
DA:44,0
DA:45,0
DA:46,0
DA:48,0
DA:104,0
DA:105,0
DA:111,0
DA:112,0
DA:113,0
DA:118,0
DA:122,0
LF:13
LH:0
end_of_record
TN:
SF:/Library/Developer/CommandLineTools/SDKs/MacOSX.sdk/usr/include/c++/v1/__algorithm/move_backward.h
FNL:0,113,114
FNA:0,0,_ZNKSt3__120__move_backward_implINS_17_ClassicAlgPolicyEEclB8ne200100IPNS_4pairINS_6chrono10time_pointINS5_12steady_clockENS5_8durationIxNS_5ratioILl1ELl1000000000EEEEEEEmEESE_Li0EEENS4_IPT_PT0_EESG_SG_SI_
FNA:0,0,_ZNKSt3__120__move_backward_implINS_17_ClassicAlgPolicyEEclB8ne200100IhhLi0EEENS_4pairIPT_PT0_EES6_S6_S8_
FNL:1,120,126
FNA:1,0,_ZNSt3__115__move_backwardB8ne200100INS_17_ClassicAlgPolicyEPPNS_4pairINS_6chrono10time_pointINS3_12steady_clockENS3_8durationIxNS_5ratioILl1ELl1000000000EEEEEEEmEESD_SD_EENS2_IT0_T2_EESE_T1_SF_
FNA:1,0,_ZNSt3__115__move_backwardB8ne200100INS_17_ClassicAlgPolicyEPhS2_S2_EENS_4pairIT0_T2_EES4_T1_S5_
FNL:2,131,132
FNA:2,0,_ZNSt3__113move_backwardB8ne200100IPPNS_4pairINS_6chrono10time_pointINS2_12steady_clockENS2_8durationIxNS_5ratioILl1ELl1000000000EEEEEEEmEESC_EET0_T_SE_SD_
FNA:2,0,_ZNSt3__113move_backwardB8ne200100IPhS1_EET0_T_S3_S2_
FNF:3
FNH:0
DA:113,0
DA:114,0
DA:120,0
DA:125,0
DA:126,0
DA:131,0
DA:132,0
LF:7
LH:0
end_of_record
TN:
SF:/Library/Developer/CommandLineTools/SDKs/MacOSX.sdk/usr/include/c++/v1/__algorithm/partial_sort.h
FNL:0,35,54
FNA:0,0,_ZNSt3__119__partial_sort_implB8ne200100INS_17_ClassicAlgPolicyERZNK3p2p9detection14DeviceDetector6detectENS3_7NATTypeENS3_12PortStrategyEibbE3$_0PNS_4pairINS3_12DeviceVendorEdEESC_EET1_SD_SD_T2_OT0_
FNL:1,58,70
FNA:1,0,_ZNSt3__114__partial_sortB8ne200100INS_17_ClassicAlgPolicyERZNK3p2p9detection14DeviceDetector6detectENS3_7NATTypeENS3_12PortStrategyEibbE3$_0PNS_4pairINS3_12DeviceVendorEdEESC_EET1_SD_SD_T2_RT0_
FNF:2
FNH:0
DA:35,0
DA:37,0
DA:38,0
DA:41,0
DA:43,0
DA:44,0
DA:45,0
DA:46,0
DA:47,0
DA:48,0
DA:49,0
DA:50,0
DA:51,0
DA:53,0
DA:54,0
DA:58,0
DA:59,0
DA:60,0
DA:62,0
DA:64,0
DA:65,0
DA:67,0
DA:69,0
DA:70,0
LF:24
LH:0
end_of_record
TN:
SF:/Library/Developer/CommandLineTools/SDKs/MacOSX.sdk/usr/include/c++/v1/__algorithm/pop_heap.h
FNL:0,35,59
FNA:0,0,_ZNSt3__110__pop_heapB8ne200100INS_17_ClassicAlgPolicyEZNK3p2p9detection14DeviceDetector6detectENS3_7NATTypeENS3_12PortStrategyEibbE3$_0PNS_4pairINS3_12DeviceVendorEdEEEEvT1_SC_RT0_NS_15iterator_traitsISC_E15difference_typeE
FNF:1
FNH:0
DA:35,0
DA:42,0
DA:45,0
DA:46,0
DA:47,0
DA:48,0
DA:50,0
DA:51,0
DA:52,0
DA:53,0
DA:54,0
DA:55,0
DA:56,0
DA:58,0
DA:59,0
LF:15
LH:0
end_of_record
TN:
SF:/Library/Developer/CommandLineTools/SDKs/MacOSX.sdk/usr/include/c++/v1/__algorithm/push_heap.h
FNL:0,32,56
FNA:0,0,_ZNSt3__19__sift_upB8ne200100INS_17_ClassicAlgPolicyERZNK3p2p9detection14DeviceDetector6detectENS3_7NATTypeENS3_12PortStrategyEibbE3$_0PNS_4pairINS3_12DeviceVendorEdEEEEvT1_SD_OT0_NS_15iterator_traitsISD_E15difference_typeE
FNF:1
FNH:0
DA:32,0
DA:38,0
DA:39,0
DA:40,0
DA:42,0
DA:43,0
DA:44,0
DA:45,0
DA:46,0
DA:47,0
DA:48,0
DA:49,0
DA:50,0
DA:51,0
DA:53,0
DA:54,0
DA:55,0
DA:56,0
LF:18
LH:0
end_of_record
TN:
SF:/Library/Developer/CommandLineTools/SDKs/MacOSX.sdk/usr/include/c++/v1/__algorithm/sift_down.h
FNL:0,29,80
FNA:0,0,_ZNSt3__111__sift_downB8ne200100INS_17_ClassicAlgPolicyERZNK3p2p9detection14DeviceDetector6detectENS3_7NATTypeENS3_12PortStrategyEibbE3$_0PNS_4pairINS3_12DeviceVendorEdEEEEvT1_OT0_NS_15iterator_traitsISD_E15difference_typeESD_
FNL:1,83,110
FNA:1,0,_ZNSt3__117__floyd_sift_downB8ne200100INS_17_ClassicAlgPolicyERZNK3p2p9detection14DeviceDetector6detectENS3_7NATTypeENS3_12PortStrategyEibbE3$_0PNS_4pairINS3_12DeviceVendorEdEEEET1_SD_OT0_NS_15iterator_traitsISD_E15difference_typeE
FNF:2
FNH:0
DA:29,0
DA:39,0
DA:41,0
DA:42,0
DA:44,0
DA:45,0
DA:47,0
DA:49,0
DA:50,0
DA:51,0
DA:54,0
DA:56,0
DA:58,0
DA:59,0
DA:61,0
DA:62,0
DA:64,0
DA:65,0
DA:68,0
DA:69,0
DA:71,0
DA:73,0
DA:74,0
DA:75,0
DA:78,0
DA:79,0
DA:80,0
DA:83,0
DA:90,0
DA:91,0
DA:92,0
DA:94,0
DA:95,0
DA:96,0
DA:98,0
DA:100,0
DA:101,0
DA:102,0
DA:105,0
DA:106,0
DA:109,0
DA:110,0
LF:42
LH:0
end_of_record
TN:
SF:/Library/Developer/CommandLineTools/SDKs/MacOSX.sdk/usr/include/c++/v1/__algorithm/sort.h
FNL:0,112,135
FNA:0,0,_ZNSt3__17__sort3B8ne200100INS_17_ClassicAlgPolicyERZNK3p2p9detection14DeviceDetector6detectENS3_7NATTypeENS3_12PortStrategyEibbE3$_0PNS_4pairINS3_12DeviceVendorEdEELi0EEEbT1_SD_SD_T0_
FNL:1,161,177
FNA:1,0,_ZNSt3__17__sort4B8ne200100INS_17_ClassicAlgPolicyERZNK3p2p9detection14DeviceDetector6detectENS3_7NATTypeENS3_12PortStrategyEibbE3$_0PNS_4pairINS3_12DeviceVendorEdEELi0EEEvT1_SD_SD_SD_T0_
FNL:2,205,226
FNA:2,0,_ZNSt3__17__sort5B8ne200100INS_17_ClassicAlgPolicyERZNK3p2p9detection14DeviceDetector6detectENS3_7NATTypeENS3_12PortStrategyEibbE3$_0PNS_4pairINS3_12DeviceVendorEdEELi0EEEvT1_SD_SD_SD_SD_T0_
FNL:3,244,265
FNA:3,5,_ZNSt3__116__insertion_sortB8ne200100INS_17_ClassicAlgPolicyERZNK3p2p9detection14DeviceDetector6detectENS3_7NATTypeENS3_12PortStrategyEibbE3$_0PNS_4pairINS3_12DeviceVendorEdEEEEvT1_SD_T0_
FNL:4,274,298
FNA:4,0,_ZNSt3__126__insertion_sort_unguardedB8ne200100INS_17_ClassicAlgPolicyERZNK3p2p9detection14DeviceDetector6detectENS3_7NATTypeENS3_12PortStrategyEibbE3$_0PNS_4pairINS3_12DeviceVendorEdEEEEvT1_SD_T0_
FNL:5,302,352
FNA:5,0,_ZNSt3__127__insertion_sort_incompleteB8ne200100INS_17_ClassicAlgPolicyERZNK3p2p9detection14DeviceDetector6detectENS3_7NATTypeENS3_12PortStrategyEibbE3$_0PNS_4pairINS3_12DeviceVendorEdEEEEbT1_SD_T0_
FNL:6,355,368
FNA:6,0,_ZNSt3__117__swap_bitmap_posB8ne200100INS_17_ClassicAlgPolicyEPNS_4pairIN3p2p9detection12DeviceVendorEdEEEEvT0_S8_RyS9_
FNL:7,374,384
FNA:7,0,_ZNSt3__122__populate_left_bitsetB8ne200100IRZNK3p2p9detection14DeviceDetector6detectENS2_7NATTypeENS2_12PortStrategyEibbE3$_0PNS_4pairINS2_12DeviceVendorEdEESA_EEvT0_T_RT1_Ry
FNL:8,390,400
FNA:8,0,_ZNSt3__123__populate_right_bitsetB8ne200100IRZNK3p2p9detection14DeviceDetector6detectENS2_7NATTypeENS2_12PortStrategyEibbE3$_0PNS_4pairINS2_12DeviceVendorEdEESA_EEvT0_T_RT1_Ry
FNL:9,406,450
FNA:9,0,_ZNSt3__133__bitset_partition_partial_blocksB8ne200100INS_17_ClassicAlgPolicyERZNK3p2p9detection14DeviceDetector6detectENS3_7NATTypeENS3_12PortStrategyEibbE3$_0PNS_4pairINS3_12DeviceVendorEdEESB_EEvRT1_SE_T0_RT2_RySI_
FNL:10,453,483
FNA:10,0,_ZNSt3__124__swap_bitmap_pos_withinB8ne200100INS_17_ClassicAlgPolicyEPNS_4pairIN3p2p9detection12DeviceVendorEdEEEEvRT0_S9_RySA_
FNL:11,495,577
FNA:11,0,_ZNSt3__118__bitset_partitionB8ne200100INS_17_ClassicAlgPolicyEPNS_4pairIN3p2p9detection12DeviceVendorEdEERZNKS4_14DeviceDetector6detectENS4_7NATTypeENS4_12PortStrategyEibbE3$_0EENS2_IT0_bEESD_SD_T1_
FNL:12,587,648
FNA:12,0,_ZNSt3__132__partition_with_equals_on_rightB8ne200100INS_17_ClassicAlgPolicyEPNS_4pairIN3p2p9detection12DeviceVendorEdEERZNKS4_14DeviceDetector6detectENS4_7NATTypeENS4_12PortStrategyEibbE3$_0EENS2_IT0_bEESD_SD_T1_
FNL:13,655,706
FNA:13,0,_ZNSt3__131__partition_with_equals_on_leftB8ne200100INS_17_ClassicAlgPolicyEPNS_4pairIN3p2p9detection12DeviceVendorEdEERZNKS4_14DeviceDetector6detectENS4_7NATTypeENS4_12PortStrategyEibbE3$_0EET0_SD_SD_T1_
FNL:14,717,829
FNA:14,5,_ZNSt3__111__introsortINS_17_ClassicAlgPolicyERZNK3p2p9detection14DeviceDetector6detectENS3_7NATTypeENS3_12PortStrategyEibbE3$_0PNS_4pairINS3_12DeviceVendorEdEELb0EEEvT1_SD_T0_NS_15iterator_traitsISD_E15difference_typeEb
FNL:15,832,848
FNA:15,5,_ZNSt3__17__log2iB8ne200100IlEET_S1_
FNL:16,881,890
FNA:16,5,_ZNSt3__115__sort_dispatchB8ne200100INS_17_ClassicAlgPolicyEPNS_4pairIN3p2p9detection12DeviceVendorEdEEZNKS4_14DeviceDetector6detectENS4_7NATTypeENS4_12PortStrategyEibbE3$_0EEvT0_SC_RT1_
FNL:17,946,956
FNA:17,5,_ZNSt3__111__sort_implB8ne200100INS_17_ClassicAlgPolicyENS_11__wrap_iterIPNS_4pairIN3p2p9detection12DeviceVendorEdEEEEZNKS5_14DeviceDetector6detectENS5_7NATTypeENS5_12PortStrategyEibbE3$_0EEvT0_SE_RT1_
FNL:18,960,962
FNA:18,5,_ZNSt3__14sortB8ne200100INS_11__wrap_iterIPNS_4pairIN3p2p9detection12DeviceVendorEdEEEEZNKS4_14DeviceDetector6detectENS4_7NATTypeENS4_12PortStrategyEibbE3$_0EEvT_SD_T0_
FNF:19
FNH:6
DA:112,0
DA:115,0
DA:117,0
DA:118,0
DA:120,0
DA:121,0
DA:122,0
DA:123,0
DA:125,0
DA:127,0
DA:128,0
DA:130,0
DA:132,0
DA:133,0
DA:134,0
DA:135,0
DA:161,0
DA:167,0
DA:168,0
DA:169,0
DA:170,0
DA:171,0
DA:172,0
DA:173,0
DA:174,0
DA:175,0
DA:176,0
DA:177,0
DA:205,0
DA:213,0
DA:214,0
DA:215,0
DA:216,0
DA:217,0
DA:218,0
DA:219,0
DA:220,0
DA:221,0
DA:222,0
DA:223,0
DA:224,0
DA:225,0
DA:226,0
DA:244,5
DA:248,5
DA:249,0
DA:250,5
DA:251,69
DA:252,64
DA:253,64
DA:254,64
DA:255,40
DA:256,40
DA:257,40
DA:258,40
DA:259,223
DA:260,223
DA:261,223
DA:262,40
DA:263,40
DA:264,64
DA:265,5
DA:274,0
DA:278,0
DA:279,0
DA:280,0
DA:282,0
DA:283,0
DA:284,0
DA:285,0
DA:286,0
DA:287,0
DA:288,0
DA:289,0
DA:290,0
DA:294,0
DA:295,0
DA:296,0
DA:297,0
DA:298,0
DA:302,0
DA:306,0
DA:309,0
DA:311,0
DA:312,0
DA:313,0
DA:315,0
DA:316,0
DA:318,0
DA:319,0
DA:320,0
DA:322,0
DA:323,0
DA:324,0
DA:325,0
DA:326,0
DA:327,0
DA:328,0
DA:329,0
DA:332,0
DA:333,0
DA:334,0
DA:335,0
DA:336,0
DA:337,0
DA:338,0
DA:339,0
DA:340,0
DA:341,0
DA:342,0
DA:343,0
DA:344,0
DA:345,0
DA:346,0
DA:347,0
DA:348,0
DA:349,0
DA:350,0
DA:351,0
DA:352,0
DA:355,0
DA:361,0
DA:362,0
DA:363,0
DA:364,0
DA:365,0
DA:366,0
DA:368,0
DA:374,0
DA:377,0
DA:378,0
DA:379,0
DA:380,0
DA:381,0
DA:382,0
DA:384,0
DA:390,0
DA:393,0
DA:394,0
DA:395,0
DA:396,0
DA:397,0
DA:398,0
DA:400,0
DA:406,0
DA:414,0
DA:417,0
DA:418,0
DA:419,0
DA:420,0
DA:422,0
DA:423,0
DA:424,0
DA:425,0
DA:426,0
DA:429,0
DA:430,0
DA:431,0
DA:432,0
DA:433,0
DA:434,0
DA:435,0
DA:436,0
DA:439,0
DA:440,0
DA:441,0
DA:442,0
DA:443,0
DA:444,0
DA:445,0
DA:446,0
DA:447,0
DA:448,0
DA:449,0
DA:450,0
DA:453,0
DA:457,0
DA:460,0
DA:461,0
DA:462,0
DA:463,0
DA:464,0
DA:465,0
DA:466,0
DA:467,0
DA:469,0
DA:470,0
DA:473,0
DA:474,0
DA:475,0
DA:476,0
DA:477,0
DA:478,0
DA:479,0
DA:480,0
DA:482,0
DA:483,0
DA:495,0
DA:500,0
DA:501,0
DA:504,0
DA:506,0
DA:508,0
DA:509,0
DA:513,0
DA:514,0
DA:515,0
DA:519,0
DA:522,0
DA:526,0
DA:527,0
DA:528,0
DA:533,0
DA:534,0
DA:535,0
DA:536,0
DA:537,0
DA:541,0
DA:542,0
DA:543,0
DA:546,0
DA:549,0
DA:550,0
DA:553,0
DA:554,0
DA:557,0
DA:560,0
DA:561,0
DA:565,0
DA:566,0
DA:569,0
DA:572,0
DA:573,0
DA:574,0
DA:575,0
DA:576,0
DA:577,0
DA:587,0
DA:592,0
DA:593,0
DA:595,0
DA:599,0
DA:600,0
DA:604,0
DA:607,0
DA:608,0
DA:610,0
DA:612,0
DA:616,0
DA:617,0
DA:623,0
DA:627,0
DA:628,0
DA:629,0
DA:630,0
DA:634,0
DA:635,0
DA:639,0
DA:640,0
DA:643,0
DA:644,0
DA:645,0
DA:646,0
DA:647,0
DA:648,0
DA:655,0
DA:659,0
DA:660,0
DA:662,0
DA:663,0
DA:665,0
DA:666,0
DA:670,0
DA:671,0
DA:672,0
DA:676,0
DA:679,0
DA:683,0
DA:684,0
DA:685,0
DA:686,0
DA:687,0
DA:688,0
DA:689,0
DA:693,0
DA:694,0
DA:698,0
DA:699,0
DA:701,0
DA:702,0
DA:703,0
DA:704,0
DA:705,0
DA:706,0
DA:717,5
DA:726,5
DA:728,5
DA:729,5
DA:730,5
DA:731,5
DA:734,0
DA:736,0
DA:737,0
DA:738,0
DA:740,0
DA:741,0
DA:743,0
DA:744,0
DA:745,0
DA:747,0
DA:748,0
DA:749,0
DA:750,0
DA:751,0
DA:752,0
DA:753,0
DA:754,0
DA:757,5
DA:758,5
DA:759,5
DA:760,5
DA:761,0
DA:763,5
DA:765,0
DA:767,0
DA:768,0
DA:770,0
DA:772,0
DA:775,0
DA:776,0
DA:777,0
DA:778,0
DA:779,0
DA:780,0
DA:781,0
DA:782,0
DA:783,0
DA:784,0
DA:785,0
DA:796,0
DA:797,0
DA:798,0
DA:799,0
DA:802,0
DA:803,0
DA:804,0
DA:805,0
DA:806,0
DA:809,0
DA:810,0
DA:811,0
DA:812,0
DA:813,0
DA:814,0
DA:815,0
DA:817,0
DA:818,0
DA:819,0
DA:822,0
DA:824,0
DA:825,0
DA:826,0
DA:827,0
DA:829,5
DA:832,5
DA:833,5
DA:834,0
DA:838,5
DA:848,5
DA:881,5
DA:883,5
DA:888,5
DA:889,5
DA:890,5
DA:946,5
DA:947,5
DA:953,5
DA:955,5
DA:956,5
DA:960,5
DA:961,5
DA:962,5
LF:382
LH:47
end_of_record
TN:
SF:/Library/Developer/CommandLineTools/SDKs/MacOSX.sdk/usr/include/c++/v1/__algorithm/sort_heap.h
FNL:0,34,42
FNA:0,0,_ZNSt3__111__sort_heapB8ne200100INS_17_ClassicAlgPolicyERZNK3p2p9detection14DeviceDetector6detectENS3_7NATTypeENS3_12PortStrategyEibbE3$_0PNS_4pairINS3_12DeviceVendorEdEEEEvT1_SD_OT0_
FNF:1
FNH:0
DA:34,0
DA:35,0
DA:36,0
DA:39,0
DA:40,0
DA:41,0
DA:42,0
LF:7
LH:0
end_of_record
TN:
SF:/Library/Developer/CommandLineTools/SDKs/MacOSX.sdk/usr/include/c++/v1/__algorithm/transform.h
FNL:0,22,26
FNA:0,7,_ZNSt3__19transformB8ne200100INS_20__map_const_iteratorINS_21__tree_const_iteratorINS_12__value_typeINS_12basic_stringIcNS_11char_traitsIcEENS_9allocatorIcEEEEN8nlohmann16json_abi_v3_12_010basic_jsonINS_3mapENS_6vectorES9_bxydS7_NSB_14adl_serializerENSE_IhNS7_IhEEEEvEEEEPNS_11__tree_nodeISJ_PvEElEEEENS_15insert_iteratorINSD_IS9_S9_NS_4lessIS9_EENS7_INS_4pairIKS9_S9_EEEEEEEEZNSB_6detail9from_jsonISI_SX_Li0EEEvRKT_RT0_EUlRKNST_ISU_SI_EEE_EES14_S11_S11_S14_T1_
FNF:1
FNH:1
DA:22,7
DA:23,25
DA:24,18
DA:25,7
DA:26,0
LF:5
LH:4
end_of_record
TN:
SF:/Library/Developer/CommandLineTools/SDKs/MacOSX.sdk/usr/include/c++/v1/__algorithm/unwrap_iter.h
FNL:0,39,39
FNA:0,34,_ZNSt3__118__unwrap_iter_implINS_14__bit_iteratorINS_6vectorIbNS_9allocatorIbEEEELb0ELm0EEELb0EE8__rewrapB8ne200100ES6_S6_
FNA:0,0,_ZNSt3__118__unwrap_iter_implINS_20back_insert_iteratorINS_6vectorIN8nlohmann16json_abi_v3_12_010basic_jsonINS_3mapES2_NS_12basic_stringIcNS_11char_traitsIcEENS_9allocatorIcEEEEbxydSA_NS4_14adl_serializerENS2_IhNSA_IhEEEEvEENSA_ISG_EEEEEELb0EE8__rewrapB8ne200100ESJ_SJ_
FNL:1,40,40
FNA:1,51,_ZNSt3__118__unwrap_iter_implINS_14__bit_iteratorINS_6vectorIbNS_9allocatorIbEEEELb0ELm0EEELb0EE8__unwrapB8ne200100ES6_
FNA:1,0,_ZNSt3__118__unwrap_iter_implINS_20back_insert_iteratorINS_6vectorIN8nlohmann16json_abi_v3_12_010basic_jsonINS_3mapES2_NS_12basic_stringIcNS_11char_traitsIcEENS_9allocatorIcEEEEbxydSA_NS4_14adl_serializerENS2_IhNSA_IhEEEEvEENSA_ISG_EEEEEELb0EE8__unwrapB8ne200100ESJ_
FNL:2,51,52
FNA:2,0,_ZNSt3__118__unwrap_iter_implINS_11__wrap_iterIPKcEELb1EE8__rewrapB8ne200100ES4_S3_
FNA:2,0,_ZNSt3__118__unwrap_iter_implINS_11__wrap_iterIPKhEELb1EE8__rewrapB8ne200100ES4_S3_
FNA:2,0,_ZNSt3__118__unwrap_iter_implINS_11__wrap_iterIPN8nlohmann16json_abi_v3_12_010basic_jsonINS_3mapENS_6vectorENS_12basic_stringIcNS_11char_traitsIcEENS_9allocatorIcEEEEbxydSA_NS3_14adl_serializerENS6_IhNSA_IhEEEEvEEEELb1EE8__rewrapB8ne200100ESI_SH_
FNA:2,0,_ZNSt3__118__unwrap_iter_implINS_11__wrap_iterIPhEELb1EE8__rewrapB8ne200100ES3_S2_
FNA:2,0,_ZNSt3__118__unwrap_iter_implIPKhLb1EE8__rewrapB8ne200100ES2_S2_
FNA:2,1,_ZNSt3__118__unwrap_iter_implIPN3p2p5relay7AddressELb1EE8__rewrapB8ne200100ES4_S4_
FNA:2,0,_ZNSt3__118__unwrap_iter_implIPN8nlohmann16json_abi_v3_12_010basic_jsonINS_3mapENS_6vectorENS_12basic_stringIcNS_11char_traitsIcEENS_9allocatorIcEEEEbxydS9_NS2_14adl_serializerENS5_IhNS9_IhEEEEvEELb1EE8__rewrapB8ne200100ESG_SG_
FNA:2,0,_ZNSt3__118__unwrap_iter_implIPPNS_4pairINS_6chrono10time_pointINS2_12steady_clockENS2_8durationIxNS_5ratioILl1ELl1000000000EEEEEEEmEELb1EE8__rewrapB8ne200100ESC_SC_
FNA:2,262,_ZNSt3__118__unwrap_iter_implIPhLb1EE8__rewrapB8ne200100ES1_S1_
FNL:3,55,56
FNA:3,0,_ZNSt3__118__unwrap_iter_implINS_11__wrap_iterIPKcEELb1EE8__unwrapB8ne200100ES4_
FNA:3,45,_ZNSt3__118__unwrap_iter_implINS_11__wrap_iterIPKhEELb1EE8__unwrapB8ne200100ES4_
FNA:3,0,_ZNSt3__118__unwrap_iter_implINS_11__wrap_iterIPN8nlohmann16json_abi_v3_12_010basic_jsonINS_3mapENS_6vectorENS_12basic_stringIcNS_11char_traitsIcEENS_9allocatorIcEEEEbxydSA_NS3_14adl_serializerENS6_IhNSA_IhEEEEvEEEELb1EE8__unwrapB8ne200100ESI_
FNA:3,20,_ZNSt3__118__unwrap_iter_implINS_11__wrap_iterIPNS_4pairIN3p2p9detection12DeviceVendorEdEEEELb1EE8__unwrapB8ne200100ES8_
FNA:3,38,_ZNSt3__118__unwrap_iter_implINS_11__wrap_iterIPcEELb1EE8__unwrapB8ne200100ES3_
FNA:3,70,_ZNSt3__118__unwrap_iter_implINS_11__wrap_iterIPhEELb1EE8__unwrapB8ne200100ES3_
FNA:3,2,_ZNSt3__118__unwrap_iter_implIPKN3p2p5relay7AddressELb1EE8__unwrapB8ne200100ES5_
FNA:3,125,_ZNSt3__118__unwrap_iter_implIPKhLb1EE8__unwrapB8ne200100ES2_
FNA:3,1,_ZNSt3__118__unwrap_iter_implIPN3p2p5relay7AddressELb1EE8__unwrapB8ne200100ES4_
FNA:3,0,_ZNSt3__118__unwrap_iter_implIPN8nlohmann16json_abi_v3_12_010basic_jsonINS_3mapENS_6vectorENS_12basic_stringIcNS_11char_traitsIcEENS_9allocatorIcEEEEbxydS9_NS2_14adl_serializerENS5_IhNS9_IhEEEEvEELb1EE8__unwrapB8ne200100ESG_
FNA:3,0,_ZNSt3__118__unwrap_iter_implIPPNS_4pairINS_6chrono10time_pointINS2_12steady_clockENS2_8durationIxNS_5ratioILl1ELl1000000000EEEEEEEmEELb1EE8__unwrapB8ne200100ESC_
FNA:3,373,_ZNSt3__118__unwrap_iter_implIPhLb1EE8__unwrapB8ne200100ES1_
FNL:4,64,65
FNA:4,0,_ZNSt3__113__unwrap_iterB8ne200100INS_11__wrap_iterIPKcEENS_18__unwrap_iter_implIS4_Lb1EEELi0EEEDTclsrT0_8__unwrapclsr3stdE7declvalIT_EEEES8_
FNA:4,45,_ZNSt3__113__unwrap_iterB8ne200100INS_11__wrap_iterIPKhEENS_18__unwrap_iter_implIS4_Lb1EEELi0EEEDTclsrT0_8__unwrapclsr3stdE7declvalIT_EEEES8_
FNA:4,0,_ZNSt3__113__unwrap_iterB8ne200100INS_11__wrap_iterIPN8nlohmann16json_abi_v3_12_010basic_jsonINS_3mapENS_6vectorENS_12basic_stringIcNS_11char_traitsIcEENS_9allocatorIcEEEEbxydSA_NS3_14adl_serializerENS6_IhNSA_IhEEEEvEEEENS_18__unwrap_iter_implISI_Lb1EEELi0EEEDTclsrT0_8__unwrapclsr3stdE7declvalIT_EEEESM_
FNA:4,20,_ZNSt3__113__unwrap_iterB8ne200100INS_11__wrap_iterIPNS_4pairIN3p2p9detection12DeviceVendorEdEEEENS_18__unwrap_iter_implIS8_Lb1EEELi0EEEDTclsrT0_8__unwrapclsr3stdE7declvalIT_EEEESC_
FNA:4,38,_ZNSt3__113__unwrap_iterB8ne200100INS_11__wrap_iterIPcEENS_18__unwrap_iter_implIS3_Lb1EEELi0EEEDTclsrT0_8__unwrapclsr3stdE7declvalIT_EEEES7_
FNA:4,70,_ZNSt3__113__unwrap_iterB8ne200100INS_11__wrap_iterIPhEENS_18__unwrap_iter_implIS3_Lb1EEELi0EEEDTclsrT0_8__unwrapclsr3stdE7declvalIT_EEEES7_
FNA:4,51,_ZNSt3__113__unwrap_iterB8ne200100INS_14__bit_iteratorINS_6vectorIbNS_9allocatorIbEEEELb0ELm0EEENS_18__unwrap_iter_implIS6_Lb0EEELi0EEEDTclsrT0_8__unwrapclsr3stdE7declvalIT_EEEESA_
FNA:4,0,_ZNSt3__113__unwrap_iterB8ne200100INS_20back_insert_iteratorINS_6vectorIN8nlohmann16json_abi_v3_12_010basic_jsonINS_3mapES2_NS_12basic_stringIcNS_11char_traitsIcEENS_9allocatorIcEEEEbxydSA_NS4_14adl_serializerENS2_IhNSA_IhEEEEvEENSA_ISG_EEEEEENS_18__unwrap_iter_implISJ_Lb0EEELi0EEEDTclsrT0_8__unwrapclsr3stdE7declvalIT_EEEESN_
FNA:4,2,_ZNSt3__113__unwrap_iterB8ne200100IPKN3p2p5relay7AddressENS_18__unwrap_iter_implIS5_Lb1EEELi0EEEDTclsrT0_8__unwrapclsr3stdE7declvalIT_EEEES9_
FNA:4,125,_ZNSt3__113__unwrap_iterB8ne200100IPKhNS_18__unwrap_iter_implIS2_Lb1EEELi0EEEDTclsrT0_8__unwrapclsr3stdE7declvalIT_EEEES6_
FNA:4,1,_ZNSt3__113__unwrap_iterB8ne200100IPN3p2p5relay7AddressENS_18__unwrap_iter_implIS4_Lb1EEELi0EEEDTclsrT0_8__unwrapclsr3stdE7declvalIT_EEEES8_
FNA:4,0,_ZNSt3__113__unwrap_iterB8ne200100IPN8nlohmann16json_abi_v3_12_010basic_jsonINS_3mapENS_6vectorENS_12basic_stringIcNS_11char_traitsIcEENS_9allocatorIcEEEEbxydS9_NS2_14adl_serializerENS5_IhNS9_IhEEEEvEENS_18__unwrap_iter_implISG_Lb1EEELi0EEEDTclsrT0_8__unwrapclsr3stdE7declvalIT_EEEESK_
FNA:4,0,_ZNSt3__113__unwrap_iterB8ne200100IPPNS_4pairINS_6chrono10time_pointINS2_12steady_clockENS2_8durationIxNS_5ratioILl1ELl1000000000EEEEEEEmEENS_18__unwrap_iter_implISC_Lb1EEELi0EEEDTclsrT0_8__unwrapclsr3stdE7declvalIT_EEEESG_
FNA:4,373,_ZNSt3__113__unwrap_iterB8ne200100IPhNS_18__unwrap_iter_implIS1_Lb1EEELi0EEEDTclsrT0_8__unwrapclsr3stdE7declvalIT_EEEES5_
FNL:5,77,78
FNA:5,0,_ZNSt3__113__rewrap_iterB8ne200100INS_11__wrap_iterIPKcEES3_NS_18__unwrap_iter_implIS4_Lb1EEEEET_S7_T0_
FNA:5,0,_ZNSt3__113__rewrap_iterB8ne200100INS_11__wrap_iterIPKhEES3_NS_18__unwrap_iter_implIS4_Lb1EEEEET_S7_T0_
FNA:5,0,_ZNSt3__113__rewrap_iterB8ne200100INS_11__wrap_iterIPN8nlohmann16json_abi_v3_12_010basic_jsonINS_3mapENS_6vectorENS_12basic_stringIcNS_11char_traitsIcEENS_9allocatorIcEEEEbxydSA_NS3_14adl_serializerENS6_IhNSA_IhEEEEvEEEESH_NS_18__unwrap_iter_implISI_Lb1EEEEET_SL_T0_
FNA:5,0,_ZNSt3__113__rewrap_iterB8ne200100INS_11__wrap_iterIPhEES2_NS_18__unwrap_iter_implIS3_Lb1EEEEET_S6_T0_
FNA:5,34,_ZNSt3__113__rewrap_iterB8ne200100INS_14__bit_iteratorINS_6vectorIbNS_9allocatorIbEEEELb0ELm0EEES6_NS_18__unwrap_iter_implIS6_Lb0EEEEET_S9_T0_
FNA:5,0,_ZNSt3__113__rewrap_iterB8ne200100INS_20back_insert_iteratorINS_6vectorIN8nlohmann16json_abi_v3_12_010basic_jsonINS_3mapES2_NS_12basic_stringIcNS_11char_traitsIcEENS_9allocatorIcEEEEbxydSA_NS4_14adl_serializerENS2_IhNSA_IhEEEEvEENSA_ISG_EEEEEESJ_NS_18__unwrap_iter_implISJ_Lb0EEEEET_SM_T0_
FNA:5,0,_ZNSt3__113__rewrap_iterB8ne200100IPKhS2_NS_18__unwrap_iter_implIS2_Lb1EEEEET_S5_T0_
FNA:5,1,_ZNSt3__113__rewrap_iterB8ne200100IPN3p2p5relay7AddressES4_NS_18__unwrap_iter_implIS4_Lb1EEEEET_S7_T0_
FNA:5,0,_ZNSt3__113__rewrap_iterB8ne200100IPN8nlohmann16json_abi_v3_12_010basic_jsonINS_3mapENS_6vectorENS_12basic_stringIcNS_11char_traitsIcEENS_9allocatorIcEEEEbxydS9_NS2_14adl_serializerENS5_IhNS9_IhEEEEvEESG_NS_18__unwrap_iter_implISG_Lb1EEEEET_SJ_T0_
FNA:5,0,_ZNSt3__113__rewrap_iterB8ne200100IPPNS_4pairINS_6chrono10time_pointINS2_12steady_clockENS2_8durationIxNS_5ratioILl1ELl1000000000EEEEEEEmEESC_NS_18__unwrap_iter_implISC_Lb1EEEEET_SF_T0_
FNA:5,262,_ZNSt3__113__rewrap_iterB8ne200100IPhS1_NS_18__unwrap_iter_implIS1_Lb1EEEEET_S4_T0_
FNF:6
FNH:6
DA:39,34
DA:40,51
DA:51,263
DA:52,263
DA:55,674
DA:56,674
DA:64,725
DA:65,725
DA:77,297
DA:78,297
LF:10
LH:10
end_of_record
TN:
SF:/Library/Developer/CommandLineTools/SDKs/MacOSX.sdk/usr/include/c++/v1/__algorithm/unwrap_range.h
FNL:0,64,65
FNA:0,0,_ZNSt3__119__unwrap_range_implINS_11__wrap_iterIPKcEES4_E8__unwrapB8ne200100ES4_S4_
FNA:0,9,_ZNSt3__119__unwrap_range_implINS_11__wrap_iterIPKhEES4_E8__unwrapB8ne200100ES4_S4_
FNA:0,0,_ZNSt3__119__unwrap_range_implINS_11__wrap_iterIPN8nlohmann16json_abi_v3_12_010basic_jsonINS_3mapENS_6vectorENS_12basic_stringIcNS_11char_traitsIcEENS_9allocatorIcEEEEbxydSA_NS3_14adl_serializerENS6_IhNSA_IhEEEEvEEEESI_E8__unwrapB8ne200100ESI_SI_
FNA:0,19,_ZNSt3__119__unwrap_range_implINS_11__wrap_iterIPcEES3_E8__unwrapB8ne200100ES3_S3_
FNA:0,35,_ZNSt3__119__unwrap_range_implINS_11__wrap_iterIPhEES3_E8__unwrapB8ne200100ES3_S3_
FNA:0,17,_ZNSt3__119__unwrap_range_implINS_14__bit_iteratorINS_6vectorIbNS_9allocatorIbEEEELb0ELm0EEES6_E8__unwrapB8ne200100ES6_S6_
FNA:0,1,_ZNSt3__119__unwrap_range_implIPKN3p2p5relay7AddressES5_E8__unwrapB8ne200100ES5_S5_
FNA:0,52,_ZNSt3__119__unwrap_range_implIPKhS2_E8__unwrapB8ne200100ES2_S2_
FNA:0,0,_ZNSt3__119__unwrap_range_implIPN8nlohmann16json_abi_v3_12_010basic_jsonINS_3mapENS_6vectorENS_12basic_stringIcNS_11char_traitsIcEENS_9allocatorIcEEEEbxydS9_NS2_14adl_serializerENS5_IhNS9_IhEEEEvEESG_E8__unwrapB8ne200100ESG_SG_
FNA:0,0,_ZNSt3__119__unwrap_range_implIPPNS_4pairINS_6chrono10time_pointINS2_12steady_clockENS2_8durationIxNS_5ratioILl1ELl1000000000EEEEEEEmEESC_E8__unwrapB8ne200100ESC_SC_
FNA:0,86,_ZNSt3__119__unwrap_range_implIPhS1_E8__unwrapB8ne200100ES1_S1_
FNL:1,69,70
FNA:1,0,_ZNSt3__119__unwrap_range_implINS_11__wrap_iterIPKcEES4_E8__rewrapB8ne200100ES4_S3_
FNA:1,0,_ZNSt3__119__unwrap_range_implINS_11__wrap_iterIPKhEES4_E8__rewrapB8ne200100ES4_S3_
FNA:1,0,_ZNSt3__119__unwrap_range_implINS_11__wrap_iterIPN8nlohmann16json_abi_v3_12_010basic_jsonINS_3mapENS_6vectorENS_12basic_stringIcNS_11char_traitsIcEENS_9allocatorIcEEEEbxydSA_NS3_14adl_serializerENS6_IhNSA_IhEEEEvEEEESI_E8__rewrapB8ne200100ESI_SH_
FNA:1,0,_ZNSt3__119__unwrap_range_implINS_11__wrap_iterIPhEES3_E8__rewrapB8ne200100ES3_S2_
FNA:1,17,_ZNSt3__119__unwrap_range_implINS_14__bit_iteratorINS_6vectorIbNS_9allocatorIbEEEELb0ELm0EEES6_E8__rewrapB8ne200100ES6_S6_
FNA:1,0,_ZNSt3__119__unwrap_range_implIPKhS2_E8__rewrapB8ne200100ES2_S2_
FNA:1,0,_ZNSt3__119__unwrap_range_implIPN8nlohmann16json_abi_v3_12_010basic_jsonINS_3mapENS_6vectorENS_12basic_stringIcNS_11char_traitsIcEENS_9allocatorIcEEEEbxydS9_NS2_14adl_serializerENS5_IhNS9_IhEEEEvEESG_E8__rewrapB8ne200100ESG_SG_
FNA:1,0,_ZNSt3__119__unwrap_range_implIPPNS_4pairINS_6chrono10time_pointINS2_12steady_clockENS2_8durationIxNS_5ratioILl1ELl1000000000EEEEEEEmEESC_E8__rewrapB8ne200100ESC_SC_
FNA:1,61,_ZNSt3__119__unwrap_range_implIPhS1_E8__rewrapB8ne200100ES1_S1_
FNL:2,75,76
FNA:2,0,_ZNSt3__114__unwrap_rangeB8ne200100INS_11__wrap_iterIPKcEES4_EEDaT_T0_
FNA:2,9,_ZNSt3__114__unwrap_rangeB8ne200100INS_11__wrap_iterIPKhEES4_EEDaT_T0_
FNA:2,0,_ZNSt3__114__unwrap_rangeB8ne200100INS_11__wrap_iterIPN8nlohmann16json_abi_v3_12_010basic_jsonINS_3mapENS_6vectorENS_12basic_stringIcNS_11char_traitsIcEENS_9allocatorIcEEEEbxydSA_NS3_14adl_serializerENS6_IhNSA_IhEEEEvEEEESI_EEDaT_T0_
FNA:2,19,_ZNSt3__114__unwrap_rangeB8ne200100INS_11__wrap_iterIPcEES3_EEDaT_T0_
FNA:2,35,_ZNSt3__114__unwrap_rangeB8ne200100INS_11__wrap_iterIPhEES3_EEDaT_T0_
FNA:2,17,_ZNSt3__114__unwrap_rangeB8ne200100INS_14__bit_iteratorINS_6vectorIbNS_9allocatorIbEEEELb0ELm0EEES6_EEDaT_T0_
FNA:2,1,_ZNSt3__114__unwrap_rangeB8ne200100IPKN3p2p5relay7AddressES5_EEDaT_T0_
FNA:2,52,_ZNSt3__114__unwrap_rangeB8ne200100IPKhS2_EEDaT_T0_
FNA:2,0,_ZNSt3__114__unwrap_rangeB8ne200100IPN8nlohmann16json_abi_v3_12_010basic_jsonINS_3mapENS_6vectorENS_12basic_stringIcNS_11char_traitsIcEENS_9allocatorIcEEEEbxydS9_NS2_14adl_serializerENS5_IhNS9_IhEEEEvEESG_EEDaT_T0_
FNA:2,0,_ZNSt3__114__unwrap_rangeB8ne200100IPPNS_4pairINS_6chrono10time_pointINS2_12steady_clockENS2_8durationIxNS_5ratioILl1ELl1000000000EEEEEEEmEESC_EEDaT_T0_
FNA:2,86,_ZNSt3__114__unwrap_rangeB8ne200100IPhS1_EEDaT_T0_
FNL:3,80,81
FNA:3,0,_ZNSt3__114__rewrap_rangeB8ne200100INS_11__wrap_iterIPKcEES4_S3_EET0_S5_T1_
FNA:3,0,_ZNSt3__114__rewrap_rangeB8ne200100INS_11__wrap_iterIPKhEES4_S3_EET0_S5_T1_
FNA:3,0,_ZNSt3__114__rewrap_rangeB8ne200100INS_11__wrap_iterIPN8nlohmann16json_abi_v3_12_010basic_jsonINS_3mapENS_6vectorENS_12basic_stringIcNS_11char_traitsIcEENS_9allocatorIcEEEEbxydSA_NS3_14adl_serializerENS6_IhNSA_IhEEEEvEEEESI_SH_EET0_SJ_T1_
FNA:3,0,_ZNSt3__114__rewrap_rangeB8ne200100INS_11__wrap_iterIPhEES3_S2_EET0_S4_T1_
FNA:3,17,_ZNSt3__114__rewrap_rangeB8ne200100INS_14__bit_iteratorINS_6vectorIbNS_9allocatorIbEEEELb0ELm0EEES6_S6_EET0_S7_T1_
FNA:3,0,_ZNSt3__114__rewrap_rangeB8ne200100IPKhS2_S2_EET0_S3_T1_
FNA:3,0,_ZNSt3__114__rewrap_rangeB8ne200100IPN8nlohmann16json_abi_v3_12_010basic_jsonINS_3mapENS_6vectorENS_12basic_stringIcNS_11char_traitsIcEENS_9allocatorIcEEEEbxydS9_NS2_14adl_serializerENS5_IhNS9_IhEEEEvEESG_SG_EET0_SH_T1_
FNA:3,0,_ZNSt3__114__rewrap_rangeB8ne200100IPPNS_4pairINS_6chrono10time_pointINS2_12steady_clockENS2_8durationIxNS_5ratioILl1ELl1000000000EEEEEEEmEESC_SC_EET0_SD_T1_
FNA:3,61,_ZNSt3__114__rewrap_rangeB8ne200100IPhS1_S1_EET0_S2_T1_
FNF:4
FNH:4
DA:64,219
DA:65,219
DA:69,78
DA:70,78
DA:75,219
DA:76,219
DA:80,78
DA:81,78
LF:8
LH:8
end_of_record
TN:
SF:/Library/Developer/CommandLineTools/SDKs/MacOSX.sdk/usr/include/c++/v1/__atomic/atomic.h
FNL:0,132,132
FNA:0,21,_ZNSt3__113__atomic_baseIlLb0EEC2B8ne200100Ev
FNL:1,137,137
FNA:1,6,_ZNSt3__113__atomic_baseIiLb0EEC2B8ne200100Ei
FNA:1,31,_ZNSt3__113__atomic_baseIlLb0EEC2B8ne200100El
FNL:2,148,148
FNA:2,21,_ZNSt3__113__atomic_baseIlLb1EEC2B8ne200100Ev
FNL:3,150,150
FNA:3,6,_ZNSt3__113__atomic_baseIiLb1EEC2B8ne200100Ei
FNA:3,31,_ZNSt3__113__atomic_baseIlLb1EEC2B8ne200100El
FNL:4,155,156
FNA:4,195,_ZNSt3__113__atomic_baseIiLb1EE9fetch_addB8ne200100EiNS_12memory_orderE
FNA:4,108,_ZNSt3__113__atomic_baseIlLb1EE9fetch_addB8ne200100ElNS_12memory_orderE
FNL:5,161,162
FNA:5,69,_ZNSt3__113__atomic_baseIlLb1EE9fetch_subB8ne200100ElNS_12memory_orderE
FNL:6,184,184
FNA:6,195,_ZNSt3__113__atomic_baseIiLb1EEppB8ne200100Ei
FNL:7,188,188
FNA:7,76,_ZNSt3__113__atomic_baseIlLb1EEppB8ne200100Ev
FNL:8,190,190
FNA:8,69,_ZNSt3__113__atomic_baseIlLb1EEmmB8ne200100Ev
FNL:9,192,192
FNA:9,0,_ZNSt3__113__atomic_baseIlLb1EEpLB8ne200100El
FNL:10,236,236
FNA:10,21,_ZNSt3__16atomicIlEC1B8ne200100Ev
FNA:10,21,_ZNSt3__16atomicIlEC2B8ne200100Ev
FNL:11,241,241
FNA:11,6,_ZNSt3__16atomicIiEC1B8ne200100Ei
FNA:11,6,_ZNSt3__16atomicIiEC2B8ne200100Ei
FNA:11,31,_ZNSt3__16atomicIlEC1B8ne200100El
FNA:11,31,_ZNSt3__16atomicIlEC2B8ne200100El
FNL:12,65,67
FNA:12,6,_ZNKSt3__113__atomic_baseIiLb0EE4loadB8ne200100ENS_12memory_orderE
FNA:12,48,_ZNKSt3__113__atomic_baseIlLb0EE4loadB8ne200100ENS_12memory_orderE
FNL:13,70,70
FNA:13,11,_ZNKSt3__113__atomic_baseIlLb0EEcvlB8ne200100Ev
FNF:14
FNH:13
DA:65,54
DA:67,54
DA:70,11
DA:132,21
DA:137,37
DA:148,21
DA:150,37
DA:155,303
DA:156,303
DA:161,69
DA:162,69
DA:184,195
DA:188,76
DA:190,69
DA:192,0
DA:236,42
DA:241,74
LF:17
LH:16
end_of_record
TN:
SF:/Library/Developer/CommandLineTools/SDKs/MacOSX.sdk/usr/include/c++/v1/__atomic/fence.h
FNL:0,22,22
FNA:0,69,_ZNSt3__119atomic_thread_fenceB8ne200100ENS_12memory_orderE
FNF:1
FNH:1
DA:22,69
LF:1
LH:1
end_of_record
TN:
SF:/Library/Developer/CommandLineTools/SDKs/MacOSX.sdk/usr/include/c++/v1/__atomic/support.h
FNL:0,119,119
FNA:0,6,_ZNSt3__117__cxx_atomic_implIiNS_22__cxx_atomic_base_implIiEEEC1B8ne200100Ei
FNA:0,6,_ZNSt3__117__cxx_atomic_implIiNS_22__cxx_atomic_base_implIiEEEC2B8ne200100Ei
FNA:0,52,_ZNSt3__117__cxx_atomic_implIlNS_22__cxx_atomic_base_implIlEEEC1B8ne200100El
FNA:0,52,_ZNSt3__117__cxx_atomic_implIlNS_22__cxx_atomic_base_implIlEEEC2B8ne200100El
FNF:1
FNH:1
DA:119,116
LF:1
LH:1
end_of_record
TN:
SF:/Library/Developer/CommandLineTools/SDKs/MacOSX.sdk/usr/include/c++/v1/__atomic/support/c11.h
FNL:0,180,182
FNA:0,195,_ZNSt3__122__cxx_atomic_fetch_addB8ne200100IiEET_PNS_22__cxx_atomic_base_implIS1_EES1_NS_12memory_orderE
FNA:0,108,_ZNSt3__122__cxx_atomic_fetch_addB8ne200100IlEET_PNS_22__cxx_atomic_base_implIS1_EES1_NS_12memory_orderE
FNL:1,206,208
FNA:1,69,_ZNSt3__122__cxx_atomic_fetch_subB8ne200100IlEET_PNS_22__cxx_atomic_base_implIS1_EES1_NS_12memory_orderE
FNL:2,37,37
FNA:2,6,_ZNSt3__122__cxx_atomic_base_implIiEC2Ei
FNA:2,52,_ZNSt3__122__cxx_atomic_base_implIlEC2El
FNL:3,43,45
FNA:3,69,_ZNSt3__125__cxx_atomic_thread_fenceB8ne200100ENS_12memory_orderE
FNL:4,79,82
FNA:4,6,_ZNSt3__117__cxx_atomic_loadB8ne200100IiEET_PKNS_22__cxx_atomic_base_implIS1_EENS_12memory_orderE
FNA:4,48,_ZNSt3__117__cxx_atomic_loadB8ne200100IlEET_PKNS_22__cxx_atomic_base_implIS1_EENS_12memory_orderE
FNF:5
FNH:5
DA:37,58
DA:43,69
DA:44,69
DA:45,69
DA:79,54
DA:81,54
DA:82,54
DA:180,303
DA:181,303
DA:182,303
DA:206,69
DA:207,69
DA:208,69
LF:13
LH:13
end_of_record
TN:
SF:/Library/Developer/CommandLineTools/SDKs/MacOSX.sdk/usr/include/c++/v1/__bit/blsr.h
FNL:0,28,29
FNA:0,0,_ZNSt3__113__libcpp_blsrB8ne200100Ey
FNF:1
FNH:0
DA:28,0
DA:29,0
LF:2
LH:0
end_of_record
TN:
SF:/Library/Developer/CommandLineTools/SDKs/MacOSX.sdk/usr/include/c++/v1/__bit/countl.h
FNL:0,34,35
FNA:0,5,_ZNSt3__112__libcpp_clzB8ne200100Em
FNL:1,38,39
FNA:1,0,_ZNSt3__112__libcpp_clzB8ne200100Ey
FNL:2,63,66
FNA:2,1284,_ZNSt3__113__countl_zeroB8ne200100IjEEiT_
FNA:2,41,_ZNSt3__113__countl_zeroB8ne200100ImEEiT_
FNA:2,0,_ZNSt3__113__countl_zeroB8ne200100IyEEiT_
FNF:3
FNH:2
DA:34,5
DA:35,5
DA:38,0
DA:39,0
DA:63,1325
DA:66,1325
LF:6
LH:4
end_of_record
TN:
SF:/Library/Developer/CommandLineTools/SDKs/MacOSX.sdk/usr/include/c++/v1/__bit/countr.h
FNL:0,37,38
FNA:0,0,_ZNSt3__112__libcpp_ctzB8ne200100Ey
FNF:1
FNH:0
DA:37,0
DA:38,0
LF:2
LH:0
end_of_record
TN:
SF:/Library/Developer/CommandLineTools/SDKs/MacOSX.sdk/usr/include/c++/v1/__bit/invert_if.h
FNL:0,22,25
FNA:0,12800,_ZNSt3__111__invert_ifB8ne200100ILb0EmEET0_S1_
FNA:0,0,_ZNSt3__111__invert_ifB8ne200100ILb1EmEET0_S1_
FNF:1
FNH:1
DA:22,12800
DA:24,0
DA:25,12800
LF:3
LH:2
end_of_record
TN:
SF:/Library/Developer/CommandLineTools/SDKs/MacOSX.sdk/usr/include/c++/v1/__bit/popcount.h
FNL:0,33,34
FNA:0,12800,_ZNSt3__117__libcpp_popcountB8ne200100Em
FNF:1
FNH:1
DA:33,12800
DA:34,12800
LF:2
LH:2
end_of_record
TN:
SF:/Library/Developer/CommandLineTools/SDKs/MacOSX.sdk/usr/include/c++/v1/__bit_reference
FNL:0,101
FNA:0,0,_ZNSt3__115__bit_referenceINS_6vectorIbNS_9allocatorIbEEEELb1EEaSB8ne200100ERKS5_
FNL:1,112
FNA:1,151,_ZNSt3__115__bit_referenceINS_6vectorIbNS_9allocatorIbEEEELb1EEC1B8ne200100EPmm
FNA:1,151,_ZNSt3__115__bit_referenceINS_6vectorIbNS_9allocatorIbEEEELb1EEC2B8ne200100EPmm
FNA:1,1541,_ZNSt3__115__bit_referenceINS_8__bitsetILm256ELm16384EEELb1EEC1B8ne200100EPmm
FNA:1,1541,_ZNSt3__115__bit_referenceINS_8__bitsetILm256ELm16384EEELb1EEC2B8ne200100EPmm
FNL:2,76
FNA:2,127,_ZNKSt3__115__bit_referenceINS_6vectorIbNS_9allocatorIbEEEELb1EEcvbB8ne200100Ev
FNA:2,630,_ZNKSt3__115__bit_referenceINS_8__bitsetILm256ELm16384EEELb1EEcvbB8ne200100Ev
FNL:3,83
FNA:3,24,_ZNSt3__115__bit_referenceINS_6vectorIbNS_9allocatorIbEEEELb1EEaSB8ne200100Eb
FNA:3,911,_ZNSt3__115__bit_referenceINS_8__bitsetILm256ELm16384EEELb1EEaSB8ne200100Eb
FNL:4,830
FNA:4,680,_ZNSt3__114__bit_iteratorINS_6vectorIbNS_9allocatorIbEEEELb0ELm0EEC1B8ne200100ERKS5_
FNA:4,680,_ZNSt3__114__bit_iteratorINS_6vectorIbNS_9allocatorIbEEEELb0ELm0EEC2B8ne200100ERKS5_
FNL:5,846
FNA:5,0,_ZNKSt3__114__bit_iteratorINS_6vectorIbNS_9allocatorIbEEEELb0ELm0EEdeB8ne200100Ev
FNL:6,851
FNA:6,0,_ZNSt3__114__bit_iteratorINS_6vectorIbNS_9allocatorIbEEEELb0ELm0EEppB8ne200100Ev
FNL:7,916
FNA:7,50,_ZNSt3__1miB8ne200100ERKNS_14__bit_iteratorINS_8__bitsetILm256ELm16384EEELb1ELm0EEES5_
FNL:8,925
FNA:8,17,_ZNSt3__1eqB8ne200100ERKNS_14__bit_iteratorINS_6vectorIbNS_9allocatorIbEEEELb0ELm0EEES7_
FNL:9,969
FNA:9,51,_ZNSt3__114__bit_iteratorINS_6vectorIbNS_9allocatorIbEEEELb0ELm0EEC1B8ne200100EPmj
FNA:9,51,_ZNSt3__114__bit_iteratorINS_6vectorIbNS_9allocatorIbEEEELb0ELm0EEC2B8ne200100EPmj
FNA:9,100,_ZNSt3__114__bit_iteratorINS_8__bitsetILm256ELm16384EEELb1ELm0EEC1B8ne200100EPKmj
FNA:9,100,_ZNSt3__114__bit_iteratorINS_8__bitsetILm256ELm16384EEELb1ELm0EEC2B8ne200100EPKmj
FNF:10
FNH:7
DA:76,757
DA:77,757
DA:83,935
DA:84,935
DA:85,867
DA:87,68
DA:88,935
DA:101,0
DA:102,0
DA:112,3384
DA:113,1692
DA:114,3384
DA:830,1360
DA:831,680
DA:832,1360
DA:846,0
DA:847,0
DA:848,0
DA:851,0
DA:852,0
DA:853,0
DA:855,0
DA:856,0
DA:858,0
DA:916,50
DA:917,50
DA:925,17
DA:926,17
DA:969,302
DA:970,151
DA:971,302
LF:31
LH:20
end_of_record
TN:
SF:/Library/Developer/CommandLineTools/SDKs/MacOSX.sdk/usr/include/c++/v1/__chrono/duration.h
FNL:0,105,106
FNA:0,109,_ZNSt3__16chrono13duration_castB8ne200100INS0_8durationIdNS_5ratioILl1ELl1EEEEExNS3_ILl1ELl1000000000EEELi0EEET_RKNS2_IT0_T1_EE
FNA:0,69,_ZNSt3__16chrono13duration_castB8ne200100INS0_8durationIeNS_5ratioILl1ELl1000EEEEEeNS3_ILl1ELl1EEELi0EEET_RKNS2_IT0_T1_EE
FNA:0,69,_ZNSt3__16chrono13duration_castB8ne200100INS0_8durationIeNS_5ratioILl1ELl1000EEEEExS4_Li0EEET_RKNS2_IT0_T1_EE
FNA:0,10,_ZNSt3__16chrono13duration_castB8ne200100INS0_8durationIeNS_5ratioILl1ELl1EEEEExS4_Li0EEET_RKNS2_IT0_T1_EE
FNA:0,138,_ZNSt3__16chrono13duration_castB8ne200100INS0_8durationIxNS_5ratioILl1ELl1000000000EEEEExNS3_ILl1ELl1000EEELi0EEET_RKNS2_IT0_T1_EE
FNA:0,36,_ZNSt3__16chrono13duration_castB8ne200100INS0_8durationIxNS_5ratioILl1ELl1000000000EEEEExNS3_ILl1ELl1EEELi0EEET_RKNS2_IT0_T1_EE
FNA:0,40,_ZNSt3__16chrono13duration_castB8ne200100INS0_8durationIxNS_5ratioILl1ELl1000EEEEExNS3_ILl1ELl1000000EEELi0EEET_RKNS2_IT0_T1_EE
FNA:0,10,_ZNSt3__16chrono13duration_castB8ne200100INS0_8durationIxNS_5ratioILl1ELl1EEEEExNS3_ILl1ELl1000000000EEELi0EEET_RKNS2_IT0_T1_EE
FNL:1,120,120
FNA:1,79,_ZNSt3__16chrono15duration_valuesIxE4zeroB8ne200100Ev
FNL:2,121,121
FNA:2,0,_ZNSt3__16chrono15duration_valuesIxE3maxB8ne200100Ev
FNL:3,209,209
FNA:3,109,_ZNSt3__16chrono8durationIdNS_5ratioILl1ELl1EEEEC1B8ne200100IdLi0EEERKT_
FNA:3,109,_ZNSt3__16chrono8durationIdNS_5ratioILl1ELl1EEEEC2B8ne200100IdLi0EEERKT_
FNA:3,138,_ZNSt3__16chrono8durationIeNS_5ratioILl1ELl1000EEEEC1B8ne200100IeLi0EEERKT_
FNA:3,138,_ZNSt3__16chrono8durationIeNS_5ratioILl1ELl1000EEEEC2B8ne200100IeLi0EEERKT_
FNA:3,10,_ZNSt3__16chrono8durationIeNS_5ratioILl1ELl1EEEEC1B8ne200100IeLi0EEERKT_
FNA:3,10,_ZNSt3__16chrono8durationIeNS_5ratioILl1ELl1EEEEC2B8ne200100IeLi0EEERKT_
FNA:3,309,_ZNSt3__16chrono8durationIxNS_5ratioILl1ELl1000000000EEEEC1B8ne200100IxLi0EEERKT_
FNA:3,309,_ZNSt3__16chrono8durationIxNS_5ratioILl1ELl1000000000EEEEC2B8ne200100IxLi0EEERKT_
FNA:3,69,_ZNSt3__16chrono8durationIxNS_5ratioILl1ELl1000EEEEC1B8ne200100IiLi0EEERKT_
FNA:3,109,_ZNSt3__16chrono8durationIxNS_5ratioILl1ELl1000EEEEC1B8ne200100IxLi0EEERKT_
FNA:3,69,_ZNSt3__16chrono8durationIxNS_5ratioILl1ELl1000EEEEC2B8ne200100IiLi0EEERKT_
FNA:3,109,_ZNSt3__16chrono8durationIxNS_5ratioILl1ELl1000EEEEC2B8ne200100IxLi0EEERKT_
FNA:3,18,_ZNSt3__16chrono8durationIxNS_5ratioILl1ELl1EEEEC1B8ne200100IiLi0EEERKT_
FNA:3,16,_ZNSt3__16chrono8durationIxNS_5ratioILl1ELl1EEEEC1B8ne200100IjLi0EEERKT_
FNA:3,560,_ZNSt3__16chrono8durationIxNS_5ratioILl1ELl1EEEEC1B8ne200100IxLi0EEERKT_
FNA:3,18,_ZNSt3__16chrono8durationIxNS_5ratioILl1ELl1EEEEC2B8ne200100IiLi0EEERKT_
FNA:3,16,_ZNSt3__16chrono8durationIxNS_5ratioILl1ELl1EEEEC2B8ne200100IjLi0EEERKT_
FNA:3,560,_ZNSt3__16chrono8durationIxNS_5ratioILl1ELl1EEEEC2B8ne200100IxLi0EEERKT_
FNL:4,218,219
FNA:4,109,_ZNSt3__16chrono8durationIdNS_5ratioILl1ELl1EEEEC1B8ne200100IxNS2_ILl1ELl1000000000EEELi0EEERKNS1_IT_T0_EE
FNA:4,109,_ZNSt3__16chrono8durationIdNS_5ratioILl1ELl1EEEEC2B8ne200100IxNS2_ILl1ELl1000000000EEELi0EEERKNS1_IT_T0_EE
FNA:4,69,_ZNSt3__16chrono8durationIeNS_5ratioILl1ELl1000EEEEC1B8ne200100IeNS2_ILl1ELl1EEELi0EEERKNS1_IT_T0_EE
FNA:4,69,_ZNSt3__16chrono8durationIeNS_5ratioILl1ELl1000EEEEC1B8ne200100IxS3_Li0EEERKNS1_IT_T0_EE
FNA:4,69,_ZNSt3__16chrono8durationIeNS_5ratioILl1ELl1000EEEEC2B8ne200100IeNS2_ILl1ELl1EEELi0EEERKNS1_IT_T0_EE
FNA:4,69,_ZNSt3__16chrono8durationIeNS_5ratioILl1ELl1000EEEEC2B8ne200100IxS3_Li0EEERKNS1_IT_T0_EE
FNA:4,10,_ZNSt3__16chrono8durationIeNS_5ratioILl1ELl1EEEEC1B8ne200100IxS3_Li0EEERKNS1_IT_T0_EE
FNA:4,10,_ZNSt3__16chrono8durationIeNS_5ratioILl1ELl1EEEEC2B8ne200100IxS3_Li0EEERKNS1_IT_T0_EE
FNA:4,69,_ZNSt3__16chrono8durationIxNS_5ratioILl1ELl1000000000EEEEC1B8ne200100IxNS2_ILl1ELl1000EEELi0EEERKNS1_IT_T0_EE
FNA:4,26,_ZNSt3__16chrono8durationIxNS_5ratioILl1ELl1000000000EEEEC1B8ne200100IxNS2_ILl1ELl1EEELi0EEERKNS1_IT_T0_EE
FNA:4,69,_ZNSt3__16chrono8durationIxNS_5ratioILl1ELl1000000000EEEEC2B8ne200100IxNS2_ILl1ELl1000EEELi0EEERKNS1_IT_T0_EE
FNA:4,26,_ZNSt3__16chrono8durationIxNS_5ratioILl1ELl1000000000EEEEC2B8ne200100IxNS2_ILl1ELl1EEELi0EEERKNS1_IT_T0_EE
FNL:5,223,223
FNA:5,218,_ZNKSt3__16chrono8durationIdNS_5ratioILl1ELl1EEEE5countB8ne200100Ev
FNA:5,276,_ZNKSt3__16chrono8durationIeNS_5ratioILl1ELl1000EEEE5countB8ne200100Ev
FNA:5,99,_ZNKSt3__16chrono8durationIeNS_5ratioILl1ELl1EEEE5countB8ne200100Ev
FNA:5,676,_ZNKSt3__16chrono8durationIxNS_5ratioILl1ELl1000000000EEEE5countB8ne200100Ev
FNA:5,40,_ZNKSt3__16chrono8durationIxNS_5ratioILl1ELl1000000EEEE5countB8ne200100Ev
FNA:5,385,_ZNKSt3__16chrono8durationIxNS_5ratioILl1ELl1000EEEE5countB8ne200100Ev
FNA:5,76,_ZNKSt3__16chrono8durationIxNS_5ratioILl1ELl1EEEE5countB8ne200100Ev
FNL:6,233,235
FNA:6,0,_ZNSt3__16chrono8durationIxNS_5ratioILl1ELl1000000000EEEEppB8ne200100Ev
FNL:7,272,273
FNA:7,69,_ZNSt3__16chrono8durationIxNS_5ratioILl1ELl1000EEEE4zeroB8ne200100Ev
FNA:7,10,_ZNSt3__16chrono8durationIxNS_5ratioILl1ELl1EEEE4zeroB8ne200100Ev
FNL:8,278,279
FNA:8,0,_ZNSt3__16chrono8durationIxNS_5ratioILl1ELl1000000000EEEE3maxB8ne200100Ev
FNL:9,382,384
FNA:9,69,_ZNSt3__16chronossB8ne200100IxNS_5ratioILl1ELl1000000000EEExNS2_ILl1ELl1000EEEEEDaRKNS0_8durationIT_T0_EERKNS6_IT1_T2_EE
FNA:9,10,_ZNSt3__16chronossB8ne200100IxNS_5ratioILl1ELl1000000000EEExNS2_ILl1ELl1EEEEEDaRKNS0_8durationIT_T0_EERKNS6_IT1_T2_EE
FNA:9,17,_ZNSt3__16chronossB8ne200100IxNS_5ratioILl1ELl1000000000EEExS3_EEDaRKNS0_8durationIT_T0_EERKNS5_IT1_T2_EE
FNA:9,69,_ZNSt3__16chronossB8ne200100IxNS_5ratioILl1ELl1000EEEeNS2_ILl1ELl1EEEEEDaRKNS0_8durationIT_T0_EERKNS6_IT1_T2_EE
FNA:9,69,_ZNSt3__16chronossB8ne200100IxNS_5ratioILl1ELl1000EEExS3_EEDaRKNS0_8durationIT_T0_EERKNS5_IT1_T2_EE
FNA:9,10,_ZNSt3__16chronossB8ne200100IxNS_5ratioILl1ELl1EEEeS3_EEDaRKNS0_8durationIT_T0_EERKNS5_IT1_T2_EE
FNA:9,10,_ZNSt3__16chronossB8ne200100IxNS_5ratioILl1ELl1EEExS3_EEDaRKNS0_8durationIT_T0_EERKNS5_IT1_T2_EE
FNL:10,404,406
FNA:10,16,_ZNSt3__16chronomiB8ne200100IxNS_5ratioILl1ELl1000000000EEExNS2_ILl1ELl1EEEEENS_11common_typeIJNS0_8durationIT_T0_EENS6_IT1_T2_EEEE4typeERKS9_RKSC_
FNA:10,119,_ZNSt3__16chronomiB8ne200100IxNS_5ratioILl1ELl1000000000EEExS3_EENS_11common_typeIJNS0_8durationIT_T0_EENS5_IT1_T2_EEEE4typeERKS8_RKSB_
FNL:11,500,501
FNA:11,540,_ZNSt3__18literals15chrono_literalsli1sB8ne200100Ey
FNL:12,72,73
FNA:12,69,_ZNKSt3__16chrono15__duration_castINS0_8durationIxNS_5ratioILl1ELl1000EEEEENS2_IeS4_EENS3_ILl1ELl1EEELb1ELb1EEclB8ne200100ERKS5_
FNA:12,10,_ZNKSt3__16chrono15__duration_castINS0_8durationIxNS_5ratioILl1ELl1EEEEENS2_IeS4_EES4_Lb1ELb1EEclB8ne200100ERKS5_
FNL:13,79,82
FNA:13,109,_ZNKSt3__16chrono15__duration_castINS0_8durationIxNS_5ratioILl1ELl1000000000EEEEENS2_IdNS3_ILl1ELl1EEEEES4_Lb1ELb0EEclB8ne200100ERKS5_
FNA:13,10,_ZNKSt3__16chrono15__duration_castINS0_8durationIxNS_5ratioILl1ELl1000000000EEEEENS2_IxNS3_ILl1ELl1EEEEES4_Lb1ELb0EEclB8ne200100ERKS5_
FNA:13,40,_ZNKSt3__16chrono15__duration_castINS0_8durationIxNS_5ratioILl1ELl1000000EEEEENS2_IxNS3_ILl1ELl1000EEEEES6_Lb1ELb0EEclB8ne200100ERKS5_
FNL:14,88,91
FNA:14,69,_ZNKSt3__16chrono15__duration_castINS0_8durationIeNS_5ratioILl1ELl1EEEEENS2_IeNS3_ILl1ELl1000EEEEENS3_ILl1000ELl1EEELb0ELb1EEclB8ne200100ERKS5_
FNA:14,138,_ZNKSt3__16chrono15__duration_castINS0_8durationIxNS_5ratioILl1ELl1000EEEEENS2_IxNS3_ILl1ELl1000000000EEEEENS3_ILl1000000ELl1EEELb0ELb1EEclB8ne200100ERKS5_
FNA:14,36,_ZNKSt3__16chrono15__duration_castINS0_8durationIxNS_5ratioILl1ELl1EEEEENS2_IxNS3_ILl1ELl1000000000EEEEENS3_ILl1000000000ELl1EEELb0ELb1EEclB8ne200100ERKS5_
FNF:15
FNH:12
DA:72,79
DA:73,79
DA:79,159
DA:81,159
DA:82,159
DA:88,243
DA:90,243
DA:91,243
DA:105,481
DA:106,481
DA:120,79
DA:121,0
DA:209,2676
DA:218,704
DA:219,704
DA:223,1770
DA:233,0
DA:234,0
DA:235,0
DA:272,79
DA:273,79
DA:278,0
DA:279,0
DA:382,254
DA:384,254
DA:404,135
DA:406,135
DA:500,540
DA:501,540
LF:29
LH:23
end_of_record
TN:
SF:/Library/Developer/CommandLineTools/SDKs/MacOSX.sdk/usr/include/c++/v1/__chrono/time_point.h
FNL:0,170,171
FNA:0,17,_ZNSt3__16chronossB8ne200100INS0_12steady_clockENS0_8durationIxNS_5ratioILl1ELl1000000000EEEEES6_EEDaRKNS0_10time_pointIT_T0_EERKNS8_IS9_T1_EE
FNL:1,200,202
FNA:1,16,_ZNSt3__16chronomiB8ne200100INS0_12steady_clockENS0_8durationIxNS_5ratioILl1ELl1000000000EEEEExNS4_ILl1ELl1EEEEENS0_10time_pointIT_NS_11common_typeIJT0_NS3_IT1_T2_EEEE4typeEEERKNS8_IS9_SB_EERKSE_
FNL:2,209,210
FNA:2,119,_ZNSt3__16chronomiB8ne200100INS0_12steady_clockENS0_8durationIxNS_5ratioILl1ELl1000000000EEEEES6_EENS_11common_typeIJT0_T1_EE4typeERKNS0_10time_pointIT_S8_EERKNSC_ISD_S9_EE
FNL:3,48,48
FNA:3,16,_ZNSt3__16chrono10time_pointINS0_12steady_clockENS0_8durationIxNS_5ratioILl1ELl1000000000EEEEEEC1B8ne200100ERKS6_
FNA:3,16,_ZNSt3__16chrono10time_pointINS0_12steady_clockENS0_8durationIxNS_5ratioILl1ELl1000000000EEEEEEC2B8ne200100ERKS6_
FNL:4,57,57
FNA:4,288,_ZNKSt3__16chrono10time_pointINS0_12steady_clockENS0_8durationIxNS_5ratioILl1ELl1000000000EEEEEE16time_since_epochB8ne200100Ev
FNA:4,40,_ZNKSt3__16chrono10time_pointINS0_12system_clockENS0_8durationIxNS_5ratioILl1ELl1000000EEEEEE16time_since_epochB8ne200100Ev
FNF:5
FNH:5
DA:48,32
DA:57,328
DA:170,17
DA:171,17
DA:200,16
DA:202,16
DA:209,119
DA:210,119
LF:8
LH:8
end_of_record
TN:
SF:/Library/Developer/CommandLineTools/SDKs/MacOSX.sdk/usr/include/c++/v1/__compare/ordering.h
FNL:0,220,221
FNA:0,1587,_ZNSt3__1ltB8ne200100ENS_15strong_orderingENS_20_CmpUnspecifiedParamE
FNL:1,228,229
FNA:1,79,_ZNSt3__1gtB8ne200100ENS_15strong_orderingENS_20_CmpUnspecifiedParamE
FNL:2,236,237
FNA:2,17,_ZNSt3__1ltB8ne200100ENS_20_CmpUnspecifiedParamENS_15strong_orderingE
FNL:3,71,72
FNA:3,79,_ZNSt3__1ltB8ne200100ENS_16partial_orderingENS_20_CmpUnspecifiedParamE
FNF:4
FNH:4
DA:71,79
DA:72,79
DA:220,1587
DA:221,1587
DA:228,79
DA:229,79
DA:236,17
DA:237,17
LF:8
LH:8
end_of_record
TN:
SF:/Library/Developer/CommandLineTools/SDKs/MacOSX.sdk/usr/include/c++/v1/__debug_utils/randomize_range.h
FNL:0,26,38
FNA:0,5,_ZNSt3__123__debug_randomize_rangeB8ne200100INS_17_ClassicAlgPolicyENS_11__wrap_iterIPNS_4pairIN3p2p9detection12DeviceVendorEdEEEES9_EEvT0_T1_
FNA:0,0,_ZNSt3__123__debug_randomize_rangeB8ne200100INS_17_ClassicAlgPolicyEPNS_4pairIN3p2p9detection12DeviceVendorEdEES7_EEvT0_T1_
FNF:1
FNH:1
DA:26,5
DA:38,5
LF:2
LH:2
end_of_record
TN:
SF:/Library/Developer/CommandLineTools/SDKs/MacOSX.sdk/usr/include/c++/v1/__debug_utils/strict_weak_ordering_check.h
FNL:0,28,73
FNA:0,5,_ZNSt3__135__check_strict_weak_ordering_sortedB8ne200100IPNS_4pairIN3p2p9detection12DeviceVendorEdEEZNKS3_14DeviceDetector6detectENS3_7NATTypeENS3_12PortStrategyEibbE3$_0EEvT_SB_RT0_
FNF:1
FNH:1
DA:28,5
DA:71,5
DA:73,5
LF:3
LH:3
end_of_record
TN:
SF:/Library/Developer/CommandLineTools/SDKs/MacOSX.sdk/usr/include/c++/v1/__exception/exception.h
FNL:0,74,74
FNA:0,1,_ZNSt9exceptionC2B8ne200100Ev
FNL:1,75,75
FNA:1,1,_ZNSt9exceptionC2B8ne200100ERKS_
FNF:2
FNH:2
DA:74,1
DA:75,1
LF:2
LH:2
end_of_record
TN:
SF:/Library/Developer/CommandLineTools/SDKs/MacOSX.sdk/usr/include/c++/v1/__exception/exception_ptr.h
FNL:0,105,111
FNA:0,0,_ZZSt29__make_exception_ptr_explicitB8ne200100IN5boost4asio19multiple_exceptionsEESt13exception_ptrRT_ENKUlPvE_clES6_
FNA:0,0,_ZZSt29__make_exception_ptr_explicitB8ne200100IN5boost4asio19multiple_exceptionsEESt13exception_ptrRT_ENKUlPvE_cvPFvS6_EEv
FNA:0,0,_ZZSt29__make_exception_ptr_explicitB8ne200100IN5boost4asio19multiple_exceptionsEESt13exception_ptrRT_ENUlPvE_8__invokeES6_
FNL:1,129,146
FNA:1,0,_ZSt18make_exception_ptrB8ne200100IN5boost4asio19multiple_exceptionsEESt13exception_ptrT_
FNL:2,72,72
FNA:2,11,_ZNSt13exception_ptrC1B8ne200100Ev
FNA:2,11,_ZNSt13exception_ptrC2B8ne200100Ev
FNL:3,96,98
FNA:3,0,_ZSt29__make_exception_ptr_explicitB8ne200100IN5boost4asio19multiple_exceptionsEESt13exception_ptrRT_
FNF:4
FNH:1
DA:72,22
DA:96,0
DA:98,0
DA:105,0
DA:107,0
DA:110,0
DA:111,0
DA:129,0
DA:146,0
LF:9
LH:1
end_of_record
TN:
SF:/Library/Developer/CommandLineTools/SDKs/MacOSX.sdk/usr/include/c++/v1/__functional/function.h
FNL:0,106,107
FNA:0,1,_ZNSt3__110__function10__not_nullB8ne200100IZN33UDPTransportTest_LargePacket_Test8TestBodyEvE3$_0EEbRKT_
FNA:0,1,_ZNSt3__110__function10__not_nullB8ne200100IZN33UDPTransportTest_LargePacket_Test8TestBodyEvE3$_1EEbRKT_
FNA:0,1,_ZNSt3__110__function10__not_nullB8ne200100IZN33UDPTransportTest_SendReceive_Test8TestBodyEvE3$_0EEbRKT_
FNA:0,1,_ZNSt3__110__function10__not_nullB8ne200100IZN33UDPTransportTest_SendReceive_Test8TestBodyEvE3$_1EEbRKT_
FNA:0,1,_ZNSt3__110__function10__not_nullB8ne200100IZN34UDPTransportTest_SendWithPeer_Test8TestBodyEvE3$_0EEbRKT_
FNA:0,1,_ZNSt3__110__function10__not_nullB8ne200100IZN34UDPTransportTest_SendWithPeer_Test8TestBodyEvE3$_1EEbRKT_
FNA:0,1,_ZNSt3__110__function10__not_nullB8ne200100IZN35UDPTransportTest_SendAfterStop_Test8TestBodyEvE3$_0EEbRKT_
FNA:0,1,_ZNSt3__110__function10__not_nullB8ne200100IZN37UDPTransportTest_SendWithoutPeer_Test8TestBodyEvE3$_0EEbRKT_
FNA:0,1,_ZNSt3__110__function10__not_nullB8ne200100IZN38UDPTransportTest_MultipleMessages_Test8TestBodyEvE3$_0EEbRKT_
FNA:0,10,_ZNSt3__110__function10__not_nullB8ne200100IZN38UDPTransportTest_MultipleMessages_Test8TestBodyEvE3$_1EEbRKT_
FNA:0,0,_ZNSt3__110__function10__not_nullB8ne200100IZN3p2p3nat15detect_nat_typeERN5boost4asio10io_contextERKNS_12basic_stringIcNS_11char_traitsIcEENS_9allocatorIcEEEEtNS_8functionIFvRKNS3_18NATDetectionResultEEEEE3$_0EEbRKT_
FNL:1,144
FNA:1,0,_ZNSt3__110__function12__alloc_funcIZN3p2p3nat15detect_nat_typeERN5boost4asio10io_contextERKNS_12basic_stringIcNS_11char_traitsIcEENS_9allocatorIcEEEEtNS_8functionIFvRKNS3_18NATDetectionResultEEEEE3$_0NSB_ISM_EEFvNS_8optionalISD_EENSO_ItEEEED1Ev
FNA:1,0,_ZNSt3__110__function12__alloc_funcIZN3p2p3nat15detect_nat_typeERN5boost4asio10io_contextERKNS_12basic_stringIcNS_11char_traitsIcEENS_9allocatorIcEEEEtNS_8functionIFvRKNS3_18NATDetectionResultEEEEE3$_0NSB_ISM_EEFvNS_8optionalISD_EENSO_ItEEEED2Ev
FNL:2,145
FNA:2,0,_ZNSt3__110__function12__alloc_funcIZN3p2p3nat15detect_nat_typeERN5boost4asio10io_contextERKNS_12basic_stringIcNS_11char_traitsIcEENS_9allocatorIcEEEEtNS_8functionIFvRKNS3_18NATDetectionResultEEEEE3$_0NSB_ISM_EEFvNS_8optionalISD_EENSO_ItEEEE3$_2D1Ev
FNA:2,0,_ZNSt3__110__function12__alloc_funcIZN3p2p3nat15detect_nat_typeERN5boost4asio10io_contextERKNS_12basic_stringIcNS_11char_traitsIcEENS_9allocatorIcEEEEtNS_8functionIFvRKNS3_18NATDetectionResultEEEEE3$_0NSB_ISM_EEFvNS_8optionalISD_EENSO_ItEEEE3$_2D2Ev
FNL:3,151,151
FNA:3,2,_ZNKSt3__110__function12__alloc_funcIZN33UDPTransportTest_LargePacket_Test8TestBodyEvE3$_0NS_9allocatorIS3_EEFvRKNS_6vectorIhNS4_IhEEEERKN5boost4asio2ip14basic_endpointINSD_3udpEEEEE8__targetB8ne200100Ev
FNA:3,3,_ZNKSt3__110__function12__alloc_funcIZN33UDPTransportTest_LargePacket_Test8TestBodyEvE3$_1NS_9allocatorIS3_EEFvRKNS_10error_codeEEE8__targetB8ne200100Ev
FNA:3,1,_ZNKSt3__110__function12__alloc_funcIZN33UDPTransportTest_SendReceive_Test8TestBodyEvE3$_0NS_9allocatorIS3_EEFvRKNS_6vectorIhNS4_IhEEEERKN5boost4asio2ip14basic_endpointINSD_3udpEEEEE8__targetB8ne200100Ev
FNA:3,3,_ZNKSt3__110__function12__alloc_funcIZN33UDPTransportTest_SendReceive_Test8TestBodyEvE3$_1NS_9allocatorIS3_EEFvRKNS_10error_codeEEE8__targetB8ne200100Ev
FNA:3,2,_ZNKSt3__110__function12__alloc_funcIZN34UDPTransportTest_SendWithPeer_Test8TestBodyEvE3$_0NS_9allocatorIS3_EEFvRKNS_6vectorIhNS4_IhEEEERKN5boost4asio2ip14basic_endpointINSD_3udpEEEEE8__targetB8ne200100Ev
FNA:3,4,_ZNKSt3__110__function12__alloc_funcIZN34UDPTransportTest_SendWithPeer_Test8TestBodyEvE3$_1NS_9allocatorIS3_EEFvRKNS_10error_codeEEE8__targetB8ne200100Ev
FNA:3,0,_ZNKSt3__110__function12__alloc_funcIZN35UDPTransportTest_SendAfterStop_Test8TestBodyEvE3$_0NS_9allocatorIS3_EEFvRKNS_10error_codeEEE8__targetB8ne200100Ev
FNA:3,0,_ZNKSt3__110__function12__alloc_funcIZN37UDPTransportTest_SendWithoutPeer_Test8TestBodyEvE3$_0NS_9allocatorIS3_EEFvRKNS_10error_codeEEE8__targetB8ne200100Ev
FNA:3,2,_ZNKSt3__110__function12__alloc_funcIZN38UDPTransportTest_MultipleMessages_Test8TestBodyEvE3$_0NS_9allocatorIS3_EEFvRKNS_6vectorIhNS4_IhEEEERKN5boost4asio2ip14basic_endpointINSD_3udpEEEEE8__targetB8ne200100Ev
FNA:3,30,_ZNKSt3__110__function12__alloc_funcIZN38UDPTransportTest_MultipleMessages_Test8TestBodyEvE3$_1NS_9allocatorIS3_EEFvRKNS_10error_codeEEE8__targetB8ne200100Ev
FNA:3,0,_ZNKSt3__110__function12__alloc_funcIZN3p2p3nat15detect_nat_typeERN5boost4asio10io_contextERKNS_12basic_stringIcNS_11char_traitsIcEENS_9allocatorIcEEEEtNS_8functionIFvRKNS3_18NATDetectionResultEEEEE3$_0NSB_ISM_EEFvNS_8optionalISD_EENSO_ItEEEE8__targetB8ne200100Ev
FNL:4,154,154
FNA:4,2,_ZNKSt3__110__function12__alloc_funcIZN33UDPTransportTest_LargePacket_Test8TestBodyEvE3$_0NS_9allocatorIS3_EEFvRKNS_6vectorIhNS4_IhEEEERKN5boost4asio2ip14basic_endpointINSD_3udpEEEEE15__get_allocatorB8ne200100Ev
FNA:4,3,_ZNKSt3__110__function12__alloc_funcIZN33UDPTransportTest_LargePacket_Test8TestBodyEvE3$_1NS_9allocatorIS3_EEFvRKNS_10error_codeEEE15__get_allocatorB8ne200100Ev
FNA:4,3,_ZNKSt3__110__function12__alloc_funcIZN33UDPTransportTest_SendReceive_Test8TestBodyEvE3$_0NS_9allocatorIS3_EEFvRKNS_6vectorIhNS4_IhEEEERKN5boost4asio2ip14basic_endpointINSD_3udpEEEEE15__get_allocatorB8ne200100Ev
FNA:4,3,_ZNKSt3__110__function12__alloc_funcIZN33UDPTransportTest_SendReceive_Test8TestBodyEvE3$_1NS_9allocatorIS3_EEFvRKNS_10error_codeEEE15__get_allocatorB8ne200100Ev
FNA:4,2,_ZNKSt3__110__function12__alloc_funcIZN34UDPTransportTest_SendWithPeer_Test8TestBodyEvE3$_0NS_9allocatorIS3_EEFvRKNS_6vectorIhNS4_IhEEEERKN5boost4asio2ip14basic_endpointINSD_3udpEEEEE15__get_allocatorB8ne200100Ev
FNA:4,4,_ZNKSt3__110__function12__alloc_funcIZN34UDPTransportTest_SendWithPeer_Test8TestBodyEvE3$_1NS_9allocatorIS3_EEFvRKNS_10error_codeEEE15__get_allocatorB8ne200100Ev
FNA:4,0,_ZNKSt3__110__function12__alloc_funcIZN35UDPTransportTest_SendAfterStop_Test8TestBodyEvE3$_0NS_9allocatorIS3_EEFvRKNS_10error_codeEEE15__get_allocatorB8ne200100Ev
FNA:4,0,_ZNKSt3__110__function12__alloc_funcIZN37UDPTransportTest_SendWithoutPeer_Test8TestBodyEvE3$_0NS_9allocatorIS3_EEFvRKNS_10error_codeEEE15__get_allocatorB8ne200100Ev
FNA:4,2,_ZNKSt3__110__function12__alloc_funcIZN38UDPTransportTest_MultipleMessages_Test8TestBodyEvE3$_0NS_9allocatorIS3_EEFvRKNS_6vectorIhNS4_IhEEEERKN5boost4asio2ip14basic_endpointINSD_3udpEEEEE15__get_allocatorB8ne200100Ev
FNA:4,30,_ZNKSt3__110__function12__alloc_funcIZN38UDPTransportTest_MultipleMessages_Test8TestBodyEvE3$_1NS_9allocatorIS3_EEFvRKNS_10error_codeEEE15__get_allocatorB8ne200100Ev
FNA:4,0,_ZNKSt3__110__function12__alloc_funcIZN3p2p3nat15detect_nat_typeERN5boost4asio10io_contextERKNS_12basic_stringIcNS_11char_traitsIcEENS_9allocatorIcEEEEtNS_8functionIFvRKNS3_18NATDetectionResultEEEEE3$_0NSB_ISM_EEFvNS_8optionalISD_EENSO_ItEEEE15__get_allocatorB8ne200100Ev
FNL:5,158,158
FNA:5,2,_ZNSt3__110__function12__alloc_funcIZN33UDPTransportTest_LargePacket_Test8TestBodyEvE3$_0NS_9allocatorIS3_EEFvRKNS_6vectorIhNS4_IhEEEERKN5boost4asio2ip14basic_endpointINSD_3udpEEEEEC1B8ne200100ERKS3_RKS5_
FNA:5,2,_ZNSt3__110__function12__alloc_funcIZN33UDPTransportTest_LargePacket_Test8TestBodyEvE3$_0NS_9allocatorIS3_EEFvRKNS_6vectorIhNS4_IhEEEERKN5boost4asio2ip14basic_endpointINSD_3udpEEEEEC2B8ne200100ERKS3_RKS5_
FNA:5,3,_ZNSt3__110__function12__alloc_funcIZN33UDPTransportTest_LargePacket_Test8TestBodyEvE3$_1NS_9allocatorIS3_EEFvRKNS_10error_codeEEEC1B8ne200100ERKS3_RKS5_
FNA:5,3,_ZNSt3__110__function12__alloc_funcIZN33UDPTransportTest_LargePacket_Test8TestBodyEvE3$_1NS_9allocatorIS3_EEFvRKNS_10error_codeEEEC2B8ne200100ERKS3_RKS5_
FNA:5,0,_ZNSt3__110__function12__alloc_funcIZN33UDPTransportTest_SendReceive_Test8TestBodyEvE3$_0NS_9allocatorIS3_EEFvRKNS_6vectorIhNS4_IhEEEERKN5boost4asio2ip14basic_endpointINSD_3udpEEEEEC1B8ne200100ERKS3_RKS5_
FNA:5,0,_ZNSt3__110__function12__alloc_funcIZN33UDPTransportTest_SendReceive_Test8TestBodyEvE3$_0NS_9allocatorIS3_EEFvRKNS_6vectorIhNS4_IhEEEERKN5boost4asio2ip14basic_endpointINSD_3udpEEEEEC2B8ne200100ERKS3_RKS5_
FNA:5,3,_ZNSt3__110__function12__alloc_funcIZN33UDPTransportTest_SendReceive_Test8TestBodyEvE3$_1NS_9allocatorIS3_EEFvRKNS_10error_codeEEEC1B8ne200100ERKS3_RKS5_
FNA:5,3,_ZNSt3__110__function12__alloc_funcIZN33UDPTransportTest_SendReceive_Test8TestBodyEvE3$_1NS_9allocatorIS3_EEFvRKNS_10error_codeEEEC2B8ne200100ERKS3_RKS5_
FNA:5,2,_ZNSt3__110__function12__alloc_funcIZN34UDPTransportTest_SendWithPeer_Test8TestBodyEvE3$_0NS_9allocatorIS3_EEFvRKNS_6vectorIhNS4_IhEEEERKN5boost4asio2ip14basic_endpointINSD_3udpEEEEEC1B8ne200100ERKS3_RKS5_
FNA:5,2,_ZNSt3__110__function12__alloc_funcIZN34UDPTransportTest_SendWithPeer_Test8TestBodyEvE3$_0NS_9allocatorIS3_EEFvRKNS_6vectorIhNS4_IhEEEERKN5boost4asio2ip14basic_endpointINSD_3udpEEEEEC2B8ne200100ERKS3_RKS5_
FNA:5,4,_ZNSt3__110__function12__alloc_funcIZN34UDPTransportTest_SendWithPeer_Test8TestBodyEvE3$_1NS_9allocatorIS3_EEFvRKNS_10error_codeEEEC1B8ne200100ERKS3_RKS5_
FNA:5,4,_ZNSt3__110__function12__alloc_funcIZN34UDPTransportTest_SendWithPeer_Test8TestBodyEvE3$_1NS_9allocatorIS3_EEFvRKNS_10error_codeEEEC2B8ne200100ERKS3_RKS5_
FNA:5,0,_ZNSt3__110__function12__alloc_funcIZN35UDPTransportTest_SendAfterStop_Test8TestBodyEvE3$_0NS_9allocatorIS3_EEFvRKNS_10error_codeEEEC1B8ne200100ERKS3_RKS5_
FNA:5,0,_ZNSt3__110__function12__alloc_funcIZN35UDPTransportTest_SendAfterStop_Test8TestBodyEvE3$_0NS_9allocatorIS3_EEFvRKNS_10error_codeEEEC2B8ne200100ERKS3_RKS5_
FNA:5,0,_ZNSt3__110__function12__alloc_funcIZN37UDPTransportTest_SendWithoutPeer_Test8TestBodyEvE3$_0NS_9allocatorIS3_EEFvRKNS_10error_codeEEEC1B8ne200100ERKS3_RKS5_
FNA:5,0,_ZNSt3__110__function12__alloc_funcIZN37UDPTransportTest_SendWithoutPeer_Test8TestBodyEvE3$_0NS_9allocatorIS3_EEFvRKNS_10error_codeEEEC2B8ne200100ERKS3_RKS5_
FNA:5,2,_ZNSt3__110__function12__alloc_funcIZN38UDPTransportTest_MultipleMessages_Test8TestBodyEvE3$_0NS_9allocatorIS3_EEFvRKNS_6vectorIhNS4_IhEEEERKN5boost4asio2ip14basic_endpointINSD_3udpEEEEEC1B8ne200100ERKS3_RKS5_
FNA:5,2,_ZNSt3__110__function12__alloc_funcIZN38UDPTransportTest_MultipleMessages_Test8TestBodyEvE3$_0NS_9allocatorIS3_EEFvRKNS_6vectorIhNS4_IhEEEERKN5boost4asio2ip14basic_endpointINSD_3udpEEEEEC2B8ne200100ERKS3_RKS5_
FNA:5,30,_ZNSt3__110__function12__alloc_funcIZN38UDPTransportTest_MultipleMessages_Test8TestBodyEvE3$_1NS_9allocatorIS3_EEFvRKNS_10error_codeEEEC1B8ne200100ERKS3_RKS5_
FNA:5,30,_ZNSt3__110__function12__alloc_funcIZN38UDPTransportTest_MultipleMessages_Test8TestBodyEvE3$_1NS_9allocatorIS3_EEFvRKNS_10error_codeEEEC2B8ne200100ERKS3_RKS5_
FNA:5,0,_ZNSt3__110__function12__alloc_funcIZN3p2p3nat15detect_nat_typeERN5boost4asio10io_contextERKNS_12basic_stringIcNS_11char_traitsIcEENS_9allocatorIcEEEEtNS_8functionIFvRKNS3_18NATDetectionResultEEEEE3$_0NSB_ISM_EEFvNS_8optionalISD_EENSO_ItEEEEC1B8ne200100ERKSM_RKSN_
FNA:5,0,_ZNSt3__110__function12__alloc_funcIZN3p2p3nat15detect_nat_typeERN5boost4asio10io_contextERKNS_12basic_stringIcNS_11char_traitsIcEENS_9allocatorIcEEEEtNS_8functionIFvRKNS3_18NATDetectionResultEEEEE3$_0NSB_ISM_EEFvNS_8optionalISD_EENSO_ItEEEEC2B8ne200100ERKSM_RKSN_
FNL:6,160,161
FNA:6,0,_ZNSt3__110__function12__alloc_funcIZN33UDPTransportTest_LargePacket_Test8TestBodyEvE3$_0NS_9allocatorIS3_EEFvRKNS_6vectorIhNS4_IhEEEERKN5boost4asio2ip14basic_endpointINSD_3udpEEEEEC1B8ne200100ERKS3_OS5_
FNA:6,0,_ZNSt3__110__function12__alloc_funcIZN33UDPTransportTest_LargePacket_Test8TestBodyEvE3$_0NS_9allocatorIS3_EEFvRKNS_6vectorIhNS4_IhEEEERKN5boost4asio2ip14basic_endpointINSD_3udpEEEEEC2B8ne200100ERKS3_OS5_
FNA:6,0,_ZNSt3__110__function12__alloc_funcIZN33UDPTransportTest_LargePacket_Test8TestBodyEvE3$_1NS_9allocatorIS3_EEFvRKNS_10error_codeEEEC1B8ne200100ERKS3_OS5_
FNA:6,0,_ZNSt3__110__function12__alloc_funcIZN33UDPTransportTest_LargePacket_Test8TestBodyEvE3$_1NS_9allocatorIS3_EEFvRKNS_10error_codeEEEC2B8ne200100ERKS3_OS5_
FNA:6,1,_ZNSt3__110__function12__alloc_funcIZN33UDPTransportTest_SendReceive_Test8TestBodyEvE3$_0NS_9allocatorIS3_EEFvRKNS_6vectorIhNS4_IhEEEERKN5boost4asio2ip14basic_endpointINSD_3udpEEEEEC1B8ne200100ERKS3_OS5_
FNA:6,1,_ZNSt3__110__function12__alloc_funcIZN33UDPTransportTest_SendReceive_Test8TestBodyEvE3$_0NS_9allocatorIS3_EEFvRKNS_6vectorIhNS4_IhEEEERKN5boost4asio2ip14basic_endpointINSD_3udpEEEEEC2B8ne200100ERKS3_OS5_
FNA:6,0,_ZNSt3__110__function12__alloc_funcIZN33UDPTransportTest_SendReceive_Test8TestBodyEvE3$_1NS_9allocatorIS3_EEFvRKNS_10error_codeEEEC1B8ne200100ERKS3_OS5_
FNA:6,0,_ZNSt3__110__function12__alloc_funcIZN33UDPTransportTest_SendReceive_Test8TestBodyEvE3$_1NS_9allocatorIS3_EEFvRKNS_10error_codeEEEC2B8ne200100ERKS3_OS5_
FNA:6,0,_ZNSt3__110__function12__alloc_funcIZN34UDPTransportTest_SendWithPeer_Test8TestBodyEvE3$_0NS_9allocatorIS3_EEFvRKNS_6vectorIhNS4_IhEEEERKN5boost4asio2ip14basic_endpointINSD_3udpEEEEEC1B8ne200100ERKS3_OS5_
FNA:6,0,_ZNSt3__110__function12__alloc_funcIZN34UDPTransportTest_SendWithPeer_Test8TestBodyEvE3$_0NS_9allocatorIS3_EEFvRKNS_6vectorIhNS4_IhEEEERKN5boost4asio2ip14basic_endpointINSD_3udpEEEEEC2B8ne200100ERKS3_OS5_
FNA:6,0,_ZNSt3__110__function12__alloc_funcIZN34UDPTransportTest_SendWithPeer_Test8TestBodyEvE3$_1NS_9allocatorIS3_EEFvRKNS_10error_codeEEEC1B8ne200100ERKS3_OS5_
FNA:6,0,_ZNSt3__110__function12__alloc_funcIZN34UDPTransportTest_SendWithPeer_Test8TestBodyEvE3$_1NS_9allocatorIS3_EEFvRKNS_10error_codeEEEC2B8ne200100ERKS3_OS5_
FNA:6,0,_ZNSt3__110__function12__alloc_funcIZN35UDPTransportTest_SendAfterStop_Test8TestBodyEvE3$_0NS_9allocatorIS3_EEFvRKNS_10error_codeEEEC1B8ne200100ERKS3_OS5_
FNA:6,0,_ZNSt3__110__function12__alloc_funcIZN35UDPTransportTest_SendAfterStop_Test8TestBodyEvE3$_0NS_9allocatorIS3_EEFvRKNS_10error_codeEEEC2B8ne200100ERKS3_OS5_
FNA:6,0,_ZNSt3__110__function12__alloc_funcIZN37UDPTransportTest_SendWithoutPeer_Test8TestBodyEvE3$_0NS_9allocatorIS3_EEFvRKNS_10error_codeEEEC1B8ne200100ERKS3_OS5_
FNA:6,0,_ZNSt3__110__function12__alloc_funcIZN37UDPTransportTest_SendWithoutPeer_Test8TestBodyEvE3$_0NS_9allocatorIS3_EEFvRKNS_10error_codeEEEC2B8ne200100ERKS3_OS5_
FNA:6,0,_ZNSt3__110__function12__alloc_funcIZN38UDPTransportTest_MultipleMessages_Test8TestBodyEvE3$_0NS_9allocatorIS3_EEFvRKNS_6vectorIhNS4_IhEEEERKN5boost4asio2ip14basic_endpointINSD_3udpEEEEEC1B8ne200100ERKS3_OS5_
FNA:6,0,_ZNSt3__110__function12__alloc_funcIZN38UDPTransportTest_MultipleMessages_Test8TestBodyEvE3$_0NS_9allocatorIS3_EEFvRKNS_6vectorIhNS4_IhEEEERKN5boost4asio2ip14basic_endpointINSD_3udpEEEEEC2B8ne200100ERKS3_OS5_
FNA:6,0,_ZNSt3__110__function12__alloc_funcIZN38UDPTransportTest_MultipleMessages_Test8TestBodyEvE3$_1NS_9allocatorIS3_EEFvRKNS_10error_codeEEEC1B8ne200100ERKS3_OS5_
FNA:6,0,_ZNSt3__110__function12__alloc_funcIZN38UDPTransportTest_MultipleMessages_Test8TestBodyEvE3$_1NS_9allocatorIS3_EEFvRKNS_10error_codeEEEC2B8ne200100ERKS3_OS5_
FNA:6,0,_ZNSt3__110__function12__alloc_funcIZN3p2p3nat15detect_nat_typeERN5boost4asio10io_contextERKNS_12basic_stringIcNS_11char_traitsIcEENS_9allocatorIcEEEEtNS_8functionIFvRKNS3_18NATDetectionResultEEEEE3$_0NSB_ISM_EEFvNS_8optionalISD_EENSO_ItEEEEC1B8ne200100ERKSM_OSN_
FNA:6,0,_ZNSt3__110__function12__alloc_funcIZN3p2p3nat15detect_nat_typeERN5boost4asio10io_contextERKNS_12basic_stringIcNS_11char_traitsIcEENS_9allocatorIcEEEEtNS_8functionIFvRKNS3_18NATDetectionResultEEEEE3$_0NSB_ISM_EEFvNS_8optionalISD_EENSO_ItEEEEC2B8ne200100ERKSM_OSN_
FNL:7,163,164
FNA:7,1,_ZNSt3__110__function12__alloc_funcIZN33UDPTransportTest_LargePacket_Test8TestBodyEvE3$_0NS_9allocatorIS3_EEFvRKNS_6vectorIhNS4_IhEEEERKN5boost4asio2ip14basic_endpointINSD_3udpEEEEEC1B8ne200100EOS3_OS5_
FNA:7,1,_ZNSt3__110__function12__alloc_funcIZN33UDPTransportTest_LargePacket_Test8TestBodyEvE3$_0NS_9allocatorIS3_EEFvRKNS_6vectorIhNS4_IhEEEERKN5boost4asio2ip14basic_endpointINSD_3udpEEEEEC2B8ne200100EOS3_OS5_
FNA:7,1,_ZNSt3__110__function12__alloc_funcIZN33UDPTransportTest_LargePacket_Test8TestBodyEvE3$_1NS_9allocatorIS3_EEFvRKNS_10error_codeEEEC1B8ne200100EOS3_OS5_
FNA:7,1,_ZNSt3__110__function12__alloc_funcIZN33UDPTransportTest_LargePacket_Test8TestBodyEvE3$_1NS_9allocatorIS3_EEFvRKNS_10error_codeEEEC2B8ne200100EOS3_OS5_
FNA:7,1,_ZNSt3__110__function12__alloc_funcIZN33UDPTransportTest_SendReceive_Test8TestBodyEvE3$_0NS_9allocatorIS3_EEFvRKNS_6vectorIhNS4_IhEEEERKN5boost4asio2ip14basic_endpointINSD_3udpEEEEEC1B8ne200100EOS3_OS5_
FNA:7,1,_ZNSt3__110__function12__alloc_funcIZN33UDPTransportTest_SendReceive_Test8TestBodyEvE3$_0NS_9allocatorIS3_EEFvRKNS_6vectorIhNS4_IhEEEERKN5boost4asio2ip14basic_endpointINSD_3udpEEEEEC2B8ne200100EOS3_OS5_
FNA:7,1,_ZNSt3__110__function12__alloc_funcIZN33UDPTransportTest_SendReceive_Test8TestBodyEvE3$_1NS_9allocatorIS3_EEFvRKNS_10error_codeEEEC1B8ne200100EOS3_OS5_
FNA:7,1,_ZNSt3__110__function12__alloc_funcIZN33UDPTransportTest_SendReceive_Test8TestBodyEvE3$_1NS_9allocatorIS3_EEFvRKNS_10error_codeEEEC2B8ne200100EOS3_OS5_
FNA:7,1,_ZNSt3__110__function12__alloc_funcIZN34UDPTransportTest_SendWithPeer_Test8TestBodyEvE3$_0NS_9allocatorIS3_EEFvRKNS_6vectorIhNS4_IhEEEERKN5boost4asio2ip14basic_endpointINSD_3udpEEEEEC1B8ne200100EOS3_OS5_
FNA:7,1,_ZNSt3__110__function12__alloc_funcIZN34UDPTransportTest_SendWithPeer_Test8TestBodyEvE3$_0NS_9allocatorIS3_EEFvRKNS_6vectorIhNS4_IhEEEERKN5boost4asio2ip14basic_endpointINSD_3udpEEEEEC2B8ne200100EOS3_OS5_
FNA:7,1,_ZNSt3__110__function12__alloc_funcIZN34UDPTransportTest_SendWithPeer_Test8TestBodyEvE3$_1NS_9allocatorIS3_EEFvRKNS_10error_codeEEEC1B8ne200100EOS3_OS5_
FNA:7,1,_ZNSt3__110__function12__alloc_funcIZN34UDPTransportTest_SendWithPeer_Test8TestBodyEvE3$_1NS_9allocatorIS3_EEFvRKNS_10error_codeEEEC2B8ne200100EOS3_OS5_
FNA:7,1,_ZNSt3__110__function12__alloc_funcIZN35UDPTransportTest_SendAfterStop_Test8TestBodyEvE3$_0NS_9allocatorIS3_EEFvRKNS_10error_codeEEEC1B8ne200100EOS3_OS5_
FNA:7,1,_ZNSt3__110__function12__alloc_funcIZN35UDPTransportTest_SendAfterStop_Test8TestBodyEvE3$_0NS_9allocatorIS3_EEFvRKNS_10error_codeEEEC2B8ne200100EOS3_OS5_
FNA:7,1,_ZNSt3__110__function12__alloc_funcIZN37UDPTransportTest_SendWithoutPeer_Test8TestBodyEvE3$_0NS_9allocatorIS3_EEFvRKNS_10error_codeEEEC1B8ne200100EOS3_OS5_
FNA:7,1,_ZNSt3__110__function12__alloc_funcIZN37UDPTransportTest_SendWithoutPeer_Test8TestBodyEvE3$_0NS_9allocatorIS3_EEFvRKNS_10error_codeEEEC2B8ne200100EOS3_OS5_
FNA:7,1,_ZNSt3__110__function12__alloc_funcIZN38UDPTransportTest_MultipleMessages_Test8TestBodyEvE3$_0NS_9allocatorIS3_EEFvRKNS_6vectorIhNS4_IhEEEERKN5boost4asio2ip14basic_endpointINSD_3udpEEEEEC1B8ne200100EOS3_OS5_
FNA:7,1,_ZNSt3__110__function12__alloc_funcIZN38UDPTransportTest_MultipleMessages_Test8TestBodyEvE3$_0NS_9allocatorIS3_EEFvRKNS_6vectorIhNS4_IhEEEERKN5boost4asio2ip14basic_endpointINSD_3udpEEEEEC2B8ne200100EOS3_OS5_
FNA:7,10,_ZNSt3__110__function12__alloc_funcIZN38UDPTransportTest_MultipleMessages_Test8TestBodyEvE3$_1NS_9allocatorIS3_EEFvRKNS_10error_codeEEEC1B8ne200100EOS3_OS5_
FNA:7,10,_ZNSt3__110__function12__alloc_funcIZN38UDPTransportTest_MultipleMessages_Test8TestBodyEvE3$_1NS_9allocatorIS3_EEFvRKNS_10error_codeEEEC2B8ne200100EOS3_OS5_
FNA:7,0,_ZNSt3__110__function12__alloc_funcIZN3p2p3nat15detect_nat_typeERN5boost4asio10io_contextERKNS_12basic_stringIcNS_11char_traitsIcEENS_9allocatorIcEEEEtNS_8functionIFvRKNS3_18NATDetectionResultEEEEE3$_0NSB_ISM_EEFvNS_8optionalISD_EENSO_ItEEEEC1B8ne200100EOSM_OSN_
FNA:7,0,_ZNSt3__110__function12__alloc_funcIZN3p2p3nat15detect_nat_typeERN5boost4asio10io_contextERKNS_12basic_stringIcNS_11char_traitsIcEENS_9allocatorIcEEEEtNS_8functionIFvRKNS3_18NATDetectionResultEEEEE3$_0NSB_ISM_EEFvNS_8optionalISD_EENSO_ItEEEEC2B8ne200100EOSM_OSN_
FNL:8,166,167
FNA:8,1,_ZNSt3__110__function12__alloc_funcIZN33UDPTransportTest_LargePacket_Test8TestBodyEvE3$_0NS_9allocatorIS3_EEFvRKNS_6vectorIhNS4_IhEEEERKN5boost4asio2ip14basic_endpointINSD_3udpEEEEEclB8ne200100ESA_SI_
FNA:8,1,_ZNSt3__110__function12__alloc_funcIZN33UDPTransportTest_LargePacket_Test8TestBodyEvE3$_1NS_9allocatorIS3_EEFvRKNS_10error_codeEEEclB8ne200100ES8_
FNA:8,1,_ZNSt3__110__function12__alloc_funcIZN33UDPTransportTest_SendReceive_Test8TestBodyEvE3$_0NS_9allocatorIS3_EEFvRKNS_6vectorIhNS4_IhEEEERKN5boost4asio2ip14basic_endpointINSD_3udpEEEEEclB8ne200100ESA_SI_
FNA:8,1,_ZNSt3__110__function12__alloc_funcIZN33UDPTransportTest_SendReceive_Test8TestBodyEvE3$_1NS_9allocatorIS3_EEFvRKNS_10error_codeEEEclB8ne200100ES8_
FNA:8,1,_ZNSt3__110__function12__alloc_funcIZN34UDPTransportTest_SendWithPeer_Test8TestBodyEvE3$_0NS_9allocatorIS3_EEFvRKNS_6vectorIhNS4_IhEEEERKN5boost4asio2ip14basic_endpointINSD_3udpEEEEEclB8ne200100ESA_SI_
FNA:8,1,_ZNSt3__110__function12__alloc_funcIZN34UDPTransportTest_SendWithPeer_Test8TestBodyEvE3$_1NS_9allocatorIS3_EEFvRKNS_10error_codeEEEclB8ne200100ES8_
FNA:8,1,_ZNSt3__110__function12__alloc_funcIZN35UDPTransportTest_SendAfterStop_Test8TestBodyEvE3$_0NS_9allocatorIS3_EEFvRKNS_10error_codeEEEclB8ne200100ES8_
FNA:8,1,_ZNSt3__110__function12__alloc_funcIZN37UDPTransportTest_SendWithoutPeer_Test8TestBodyEvE3$_0NS_9allocatorIS3_EEFvRKNS_10error_codeEEEclB8ne200100ES8_
FNA:8,10,_ZNSt3__110__function12__alloc_funcIZN38UDPTransportTest_MultipleMessages_Test8TestBodyEvE3$_0NS_9allocatorIS3_EEFvRKNS_6vectorIhNS4_IhEEEERKN5boost4asio2ip14basic_endpointINSD_3udpEEEEEclB8ne200100ESA_SI_
FNA:8,10,_ZNSt3__110__function12__alloc_funcIZN38UDPTransportTest_MultipleMessages_Test8TestBodyEvE3$_1NS_9allocatorIS3_EEFvRKNS_10error_codeEEEclB8ne200100ES8_
FNA:8,0,_ZNSt3__110__function12__alloc_funcIZN3p2p3nat15detect_nat_typeERN5boost4asio10io_contextERKNS_12basic_stringIcNS_11char_traitsIcEENS_9allocatorIcEEEEtNS_8functionIFvRKNS3_18NATDetectionResultEEEEE3$_0NSB_ISM_EEFvNS_8optionalISD_EENSO_ItEEEEclB8ne200100EOSP_OSQ_
FNL:9,180,183
FNA:9,3,_ZNSt3__110__function12__alloc_funcIZN33UDPTransportTest_LargePacket_Test8TestBodyEvE3$_0NS_9allocatorIS3_EEFvRKNS_6vectorIhNS4_IhEEEERKN5boost4asio2ip14basic_endpointINSD_3udpEEEEE7destroyB8ne200100Ev
FNA:9,4,_ZNSt3__110__function12__alloc_funcIZN33UDPTransportTest_LargePacket_Test8TestBodyEvE3$_1NS_9allocatorIS3_EEFvRKNS_10error_codeEEE7destroyB8ne200100Ev
FNA:9,2,_ZNSt3__110__function12__alloc_funcIZN33UDPTransportTest_SendReceive_Test8TestBodyEvE3$_0NS_9allocatorIS3_EEFvRKNS_6vectorIhNS4_IhEEEERKN5boost4asio2ip14basic_endpointINSD_3udpEEEEE7destroyB8ne200100Ev
FNA:9,4,_ZNSt3__110__function12__alloc_funcIZN33UDPTransportTest_SendReceive_Test8TestBodyEvE3$_1NS_9allocatorIS3_EEFvRKNS_10error_codeEEE7destroyB8ne200100Ev
FNA:9,3,_ZNSt3__110__function12__alloc_funcIZN34UDPTransportTest_SendWithPeer_Test8TestBodyEvE3$_0NS_9allocatorIS3_EEFvRKNS_6vectorIhNS4_IhEEEERKN5boost4asio2ip14basic_endpointINSD_3udpEEEEE7destroyB8ne200100Ev
FNA:9,5,_ZNSt3__110__function12__alloc_funcIZN34UDPTransportTest_SendWithPeer_Test8TestBodyEvE3$_1NS_9allocatorIS3_EEFvRKNS_10error_codeEEE7destroyB8ne200100Ev
FNA:9,1,_ZNSt3__110__function12__alloc_funcIZN35UDPTransportTest_SendAfterStop_Test8TestBodyEvE3$_0NS_9allocatorIS3_EEFvRKNS_10error_codeEEE7destroyB8ne200100Ev
FNA:9,1,_ZNSt3__110__function12__alloc_funcIZN37UDPTransportTest_SendWithoutPeer_Test8TestBodyEvE3$_0NS_9allocatorIS3_EEFvRKNS_10error_codeEEE7destroyB8ne200100Ev
FNA:9,3,_ZNSt3__110__function12__alloc_funcIZN38UDPTransportTest_MultipleMessages_Test8TestBodyEvE3$_0NS_9allocatorIS3_EEFvRKNS_6vectorIhNS4_IhEEEERKN5boost4asio2ip14basic_endpointINSD_3udpEEEEE7destroyB8ne200100Ev
FNA:9,40,_ZNSt3__110__function12__alloc_funcIZN38UDPTransportTest_MultipleMessages_Test8TestBodyEvE3$_1NS_9allocatorIS3_EEFvRKNS_10error_codeEEE7destroyB8ne200100Ev
FNA:9,0,_ZNSt3__110__function12__alloc_funcIZN3p2p3nat15detect_nat_typeERN5boost4asio10io_contextERKNS_12basic_stringIcNS_11char_traitsIcEENS_9allocatorIcEEEEtNS_8functionIFvRKNS3_18NATDetectionResultEEEEE3$_0NSB_ISM_EEFvNS_8optionalISD_EENSO_ItEEEE7destroyB8ne200100Ev
FNL:10,245,245
FNA:10,0,_ZNSt3__110__function6__baseIFvNS_8optionalINS_12basic_stringIcNS_11char_traitsIcEENS_9allocatorIcEEEEEENS2_ItEEEEC2B8ne200100Ev
FNA:10,55,_ZNSt3__110__function6__baseIFvRKNS_10error_codeEEEC2B8ne200100Ev
FNA:10,11,_ZNSt3__110__function6__baseIFvRKNS_6vectorIhNS_9allocatorIhEEEERKN5boost4asio2ip14basic_endpointINSA_3udpEEEEEC2B8ne200100Ev
FNL:11,246,246
FNA:11,0,_ZNSt3__110__function6__baseIFvNS_8optionalINS_12basic_stringIcNS_11char_traitsIcEENS_9allocatorIcEEEEEENS2_ItEEEED0Ev
FNA:11,0,_ZNSt3__110__function6__baseIFvNS_8optionalINS_12basic_stringIcNS_11char_traitsIcEENS_9allocatorIcEEEEEENS2_ItEEEED1Ev
FNA:11,0,_ZNSt3__110__function6__baseIFvNS_8optionalINS_12basic_stringIcNS_11char_traitsIcEENS_9allocatorIcEEEEEENS2_ItEEEED2Ev
FNA:11,0,_ZNSt3__110__function6__baseIFvRKNS_10error_codeEEED0Ev
FNA:11,0,_ZNSt3__110__function6__baseIFvRKNS_10error_codeEEED1Ev
FNA:11,0,_ZNSt3__110__function6__baseIFvRKNS_10error_codeEEED2Ev
FNA:11,0,_ZNSt3__110__function6__baseIFvRKNS_6vectorIhNS_9allocatorIhEEEERKN5boost4asio2ip14basic_endpointINSA_3udpEEEEED0Ev
FNA:11,0,_ZNSt3__110__function6__baseIFvRKNS_6vectorIhNS_9allocatorIhEEEERKN5boost4asio2ip14basic_endpointINSA_3udpEEEEED1Ev
FNA:11,0,_ZNSt3__110__function6__baseIFvRKNS_6vectorIhNS_9allocatorIhEEEERKN5boost4asio2ip14basic_endpointINSA_3udpEEEEED2Ev
FNL:12,261
FNA:12,0,_ZNSt3__110__function6__funcIZN33UDPTransportTest_LargePacket_Test8TestBodyEvE3$_0NS_9allocatorIS3_EEFvRKNS_6vectorIhNS4_IhEEEERKN5boost4asio2ip14basic_endpointINSD_3udpEEEEED0Ev
FNA:12,0,_ZNSt3__110__function6__funcIZN33UDPTransportTest_LargePacket_Test8TestBodyEvE3$_0NS_9allocatorIS3_EEFvRKNS_6vectorIhNS4_IhEEEERKN5boost4asio2ip14basic_endpointINSD_3udpEEEEED1Ev
FNA:12,0,_ZNSt3__110__function6__funcIZN33UDPTransportTest_LargePacket_Test8TestBodyEvE3$_0NS_9allocatorIS3_EEFvRKNS_6vectorIhNS4_IhEEEERKN5boost4asio2ip14basic_endpointINSD_3udpEEEEED2Ev
FNA:12,0,_ZNSt3__110__function6__funcIZN33UDPTransportTest_LargePacket_Test8TestBodyEvE3$_1NS_9allocatorIS3_EEFvRKNS_10error_codeEEED0Ev
FNA:12,0,_ZNSt3__110__function6__funcIZN33UDPTransportTest_LargePacket_Test8TestBodyEvE3$_1NS_9allocatorIS3_EEFvRKNS_10error_codeEEED1Ev
FNA:12,0,_ZNSt3__110__function6__funcIZN33UDPTransportTest_LargePacket_Test8TestBodyEvE3$_1NS_9allocatorIS3_EEFvRKNS_10error_codeEEED2Ev
FNA:12,0,_ZNSt3__110__function6__funcIZN33UDPTransportTest_SendReceive_Test8TestBodyEvE3$_0NS_9allocatorIS3_EEFvRKNS_6vectorIhNS4_IhEEEERKN5boost4asio2ip14basic_endpointINSD_3udpEEEEED0Ev
FNA:12,0,_ZNSt3__110__function6__funcIZN33UDPTransportTest_SendReceive_Test8TestBodyEvE3$_0NS_9allocatorIS3_EEFvRKNS_6vectorIhNS4_IhEEEERKN5boost4asio2ip14basic_endpointINSD_3udpEEEEED1Ev
FNA:12,0,_ZNSt3__110__function6__funcIZN33UDPTransportTest_SendReceive_Test8TestBodyEvE3$_0NS_9allocatorIS3_EEFvRKNS_6vectorIhNS4_IhEEEERKN5boost4asio2ip14basic_endpointINSD_3udpEEEEED2Ev
FNA:12,0,_ZNSt3__110__function6__funcIZN33UDPTransportTest_SendReceive_Test8TestBodyEvE3$_1NS_9allocatorIS3_EEFvRKNS_10error_codeEEED0Ev
FNA:12,0,_ZNSt3__110__function6__funcIZN33UDPTransportTest_SendReceive_Test8TestBodyEvE3$_1NS_9allocatorIS3_EEFvRKNS_10error_codeEEED1Ev
FNA:12,0,_ZNSt3__110__function6__funcIZN33UDPTransportTest_SendReceive_Test8TestBodyEvE3$_1NS_9allocatorIS3_EEFvRKNS_10error_codeEEED2Ev
FNA:12,0,_ZNSt3__110__function6__funcIZN34UDPTransportTest_SendWithPeer_Test8TestBodyEvE3$_0NS_9allocatorIS3_EEFvRKNS_6vectorIhNS4_IhEEEERKN5boost4asio2ip14basic_endpointINSD_3udpEEEEED0Ev
FNA:12,0,_ZNSt3__110__function6__funcIZN34UDPTransportTest_SendWithPeer_Test8TestBodyEvE3$_0NS_9allocatorIS3_EEFvRKNS_6vectorIhNS4_IhEEEERKN5boost4asio2ip14basic_endpointINSD_3udpEEEEED1Ev
FNA:12,0,_ZNSt3__110__function6__funcIZN34UDPTransportTest_SendWithPeer_Test8TestBodyEvE3$_0NS_9allocatorIS3_EEFvRKNS_6vectorIhNS4_IhEEEERKN5boost4asio2ip14basic_endpointINSD_3udpEEEEED2Ev
FNA:12,0,_ZNSt3__110__function6__funcIZN34UDPTransportTest_SendWithPeer_Test8TestBodyEvE3$_1NS_9allocatorIS3_EEFvRKNS_10error_codeEEED0Ev
FNA:12,0,_ZNSt3__110__function6__funcIZN34UDPTransportTest_SendWithPeer_Test8TestBodyEvE3$_1NS_9allocatorIS3_EEFvRKNS_10error_codeEEED1Ev
FNA:12,0,_ZNSt3__110__function6__funcIZN34UDPTransportTest_SendWithPeer_Test8TestBodyEvE3$_1NS_9allocatorIS3_EEFvRKNS_10error_codeEEED2Ev
FNA:12,0,_ZNSt3__110__function6__funcIZN35UDPTransportTest_SendAfterStop_Test8TestBodyEvE3$_0NS_9allocatorIS3_EEFvRKNS_10error_codeEEED0Ev
FNA:12,0,_ZNSt3__110__function6__funcIZN35UDPTransportTest_SendAfterStop_Test8TestBodyEvE3$_0NS_9allocatorIS3_EEFvRKNS_10error_codeEEED1Ev
FNA:12,0,_ZNSt3__110__function6__funcIZN35UDPTransportTest_SendAfterStop_Test8TestBodyEvE3$_0NS_9allocatorIS3_EEFvRKNS_10error_codeEEED2Ev
FNA:12,0,_ZNSt3__110__function6__funcIZN37UDPTransportTest_SendWithoutPeer_Test8TestBodyEvE3$_0NS_9allocatorIS3_EEFvRKNS_10error_codeEEED0Ev
FNA:12,0,_ZNSt3__110__function6__funcIZN37UDPTransportTest_SendWithoutPeer_Test8TestBodyEvE3$_0NS_9allocatorIS3_EEFvRKNS_10error_codeEEED1Ev
FNA:12,0,_ZNSt3__110__function6__funcIZN37UDPTransportTest_SendWithoutPeer_Test8TestBodyEvE3$_0NS_9allocatorIS3_EEFvRKNS_10error_codeEEED2Ev
FNA:12,0,_ZNSt3__110__function6__funcIZN38UDPTransportTest_MultipleMessages_Test8TestBodyEvE3$_0NS_9allocatorIS3_EEFvRKNS_6vectorIhNS4_IhEEEERKN5boost4asio2ip14basic_endpointINSD_3udpEEEEED0Ev
FNA:12,0,_ZNSt3__110__function6__funcIZN38UDPTransportTest_MultipleMessages_Test8TestBodyEvE3$_0NS_9allocatorIS3_EEFvRKNS_6vectorIhNS4_IhEEEERKN5boost4asio2ip14basic_endpointINSD_3udpEEEEED1Ev
FNA:12,0,_ZNSt3__110__function6__funcIZN38UDPTransportTest_MultipleMessages_Test8TestBodyEvE3$_0NS_9allocatorIS3_EEFvRKNS_6vectorIhNS4_IhEEEERKN5boost4asio2ip14basic_endpointINSD_3udpEEEEED2Ev
FNA:12,0,_ZNSt3__110__function6__funcIZN38UDPTransportTest_MultipleMessages_Test8TestBodyEvE3$_1NS_9allocatorIS3_EEFvRKNS_10error_codeEEED0Ev
FNA:12,0,_ZNSt3__110__function6__funcIZN38UDPTransportTest_MultipleMessages_Test8TestBodyEvE3$_1NS_9allocatorIS3_EEFvRKNS_10error_codeEEED1Ev
FNA:12,0,_ZNSt3__110__function6__funcIZN38UDPTransportTest_MultipleMessages_Test8TestBodyEvE3$_1NS_9allocatorIS3_EEFvRKNS_10error_codeEEED2Ev
FNA:12,0,_ZNSt3__110__function6__funcIZN3p2p3nat15detect_nat_typeERN5boost4asio10io_contextERKNS_12basic_stringIcNS_11char_traitsIcEENS_9allocatorIcEEEEtNS_8functionIFvRKNS3_18NATDetectionResultEEEEE3$_0NSB_ISM_EEFvNS_8optionalISD_EENSO_ItEEEED0Ev
FNA:12,0,_ZNSt3__110__function6__funcIZN3p2p3nat15detect_nat_typeERN5boost4asio10io_contextERKNS_12basic_stringIcNS_11char_traitsIcEENS_9allocatorIcEEEEtNS_8functionIFvRKNS3_18NATDetectionResultEEEEE3$_0NSB_ISM_EEFvNS_8optionalISD_EENSO_ItEEEED1Ev
FNA:12,0,_ZNSt3__110__function6__funcIZN3p2p3nat15detect_nat_typeERN5boost4asio10io_contextERKNS_12basic_stringIcNS_11char_traitsIcEENS_9allocatorIcEEEEtNS_8functionIFvRKNS3_18NATDetectionResultEEEEE3$_0NSB_ISM_EEFvNS_8optionalISD_EENSO_ItEEEED2Ev
FNL:13,270,270
FNA:13,2,_ZNSt3__110__function6__funcIZN33UDPTransportTest_LargePacket_Test8TestBodyEvE3$_0NS_9allocatorIS3_EEFvRKNS_6vectorIhNS4_IhEEEERKN5boost4asio2ip14basic_endpointINSD_3udpEEEEEC1B8ne200100ERKS3_RKS5_
FNA:13,2,_ZNSt3__110__function6__funcIZN33UDPTransportTest_LargePacket_Test8TestBodyEvE3$_0NS_9allocatorIS3_EEFvRKNS_6vectorIhNS4_IhEEEERKN5boost4asio2ip14basic_endpointINSD_3udpEEEEEC2B8ne200100ERKS3_RKS5_
FNA:13,3,_ZNSt3__110__function6__funcIZN33UDPTransportTest_LargePacket_Test8TestBodyEvE3$_1NS_9allocatorIS3_EEFvRKNS_10error_codeEEEC1B8ne200100ERKS3_RKS5_
FNA:13,3,_ZNSt3__110__function6__funcIZN33UDPTransportTest_LargePacket_Test8TestBodyEvE3$_1NS_9allocatorIS3_EEFvRKNS_10error_codeEEEC2B8ne200100ERKS3_RKS5_
FNA:13,0,_ZNSt3__110__function6__funcIZN33UDPTransportTest_SendReceive_Test8TestBodyEvE3$_0NS_9allocatorIS3_EEFvRKNS_6vectorIhNS4_IhEEEERKN5boost4asio2ip14basic_endpointINSD_3udpEEEEEC1B8ne200100ERKS3_RKS5_
FNA:13,0,_ZNSt3__110__function6__funcIZN33UDPTransportTest_SendReceive_Test8TestBodyEvE3$_0NS_9allocatorIS3_EEFvRKNS_6vectorIhNS4_IhEEEERKN5boost4asio2ip14basic_endpointINSD_3udpEEEEEC2B8ne200100ERKS3_RKS5_
FNA:13,3,_ZNSt3__110__function6__funcIZN33UDPTransportTest_SendReceive_Test8TestBodyEvE3$_1NS_9allocatorIS3_EEFvRKNS_10error_codeEEEC1B8ne200100ERKS3_RKS5_
FNA:13,3,_ZNSt3__110__function6__funcIZN33UDPTransportTest_SendReceive_Test8TestBodyEvE3$_1NS_9allocatorIS3_EEFvRKNS_10error_codeEEEC2B8ne200100ERKS3_RKS5_
FNA:13,2,_ZNSt3__110__function6__funcIZN34UDPTransportTest_SendWithPeer_Test8TestBodyEvE3$_0NS_9allocatorIS3_EEFvRKNS_6vectorIhNS4_IhEEEERKN5boost4asio2ip14basic_endpointINSD_3udpEEEEEC1B8ne200100ERKS3_RKS5_
FNA:13,2,_ZNSt3__110__function6__funcIZN34UDPTransportTest_SendWithPeer_Test8TestBodyEvE3$_0NS_9allocatorIS3_EEFvRKNS_6vectorIhNS4_IhEEEERKN5boost4asio2ip14basic_endpointINSD_3udpEEEEEC2B8ne200100ERKS3_RKS5_
FNA:13,4,_ZNSt3__110__function6__funcIZN34UDPTransportTest_SendWithPeer_Test8TestBodyEvE3$_1NS_9allocatorIS3_EEFvRKNS_10error_codeEEEC1B8ne200100ERKS3_RKS5_
FNA:13,4,_ZNSt3__110__function6__funcIZN34UDPTransportTest_SendWithPeer_Test8TestBodyEvE3$_1NS_9allocatorIS3_EEFvRKNS_10error_codeEEEC2B8ne200100ERKS3_RKS5_
FNA:13,0,_ZNSt3__110__function6__funcIZN35UDPTransportTest_SendAfterStop_Test8TestBodyEvE3$_0NS_9allocatorIS3_EEFvRKNS_10error_codeEEEC1B8ne200100ERKS3_RKS5_
FNA:13,0,_ZNSt3__110__function6__funcIZN35UDPTransportTest_SendAfterStop_Test8TestBodyEvE3$_0NS_9allocatorIS3_EEFvRKNS_10error_codeEEEC2B8ne200100ERKS3_RKS5_
FNA:13,0,_ZNSt3__110__function6__funcIZN37UDPTransportTest_SendWithoutPeer_Test8TestBodyEvE3$_0NS_9allocatorIS3_EEFvRKNS_10error_codeEEEC1B8ne200100ERKS3_RKS5_
FNA:13,0,_ZNSt3__110__function6__funcIZN37UDPTransportTest_SendWithoutPeer_Test8TestBodyEvE3$_0NS_9allocatorIS3_EEFvRKNS_10error_codeEEEC2B8ne200100ERKS3_RKS5_
FNA:13,2,_ZNSt3__110__function6__funcIZN38UDPTransportTest_MultipleMessages_Test8TestBodyEvE3$_0NS_9allocatorIS3_EEFvRKNS_6vectorIhNS4_IhEEEERKN5boost4asio2ip14basic_endpointINSD_3udpEEEEEC1B8ne200100ERKS3_RKS5_
FNA:13,2,_ZNSt3__110__function6__funcIZN38UDPTransportTest_MultipleMessages_Test8TestBodyEvE3$_0NS_9allocatorIS3_EEFvRKNS_6vectorIhNS4_IhEEEERKN5boost4asio2ip14basic_endpointINSD_3udpEEEEEC2B8ne200100ERKS3_RKS5_
FNA:13,30,_ZNSt3__110__function6__funcIZN38UDPTransportTest_MultipleMessages_Test8TestBodyEvE3$_1NS_9allocatorIS3_EEFvRKNS_10error_codeEEEC1B8ne200100ERKS3_RKS5_
FNA:13,30,_ZNSt3__110__function6__funcIZN38UDPTransportTest_MultipleMessages_Test8TestBodyEvE3$_1NS_9allocatorIS3_EEFvRKNS_10error_codeEEEC2B8ne200100ERKS3_RKS5_
FNA:13,0,_ZNSt3__110__function6__funcIZN3p2p3nat15detect_nat_typeERN5boost4asio10io_contextERKNS_12basic_stringIcNS_11char_traitsIcEENS_9allocatorIcEEEEtNS_8functionIFvRKNS3_18NATDetectionResultEEEEE3$_0NSB_ISM_EEFvNS_8optionalISD_EENSO_ItEEEEC1B8ne200100ERKSM_RKSN_
FNA:13,0,_ZNSt3__110__function6__funcIZN3p2p3nat15detect_nat_typeERN5boost4asio10io_contextERKNS_12basic_stringIcNS_11char_traitsIcEENS_9allocatorIcEEEEtNS_8functionIFvRKNS3_18NATDetectionResultEEEEE3$_0NSB_ISM_EEFvNS_8optionalISD_EENSO_ItEEEEC2B8ne200100ERKSM_RKSN_
FNL:14,272,272
FNA:14,0,_ZNSt3__110__function6__funcIZN33UDPTransportTest_LargePacket_Test8TestBodyEvE3$_0NS_9allocatorIS3_EEFvRKNS_6vectorIhNS4_IhEEEERKN5boost4asio2ip14basic_endpointINSD_3udpEEEEEC1B8ne200100ERKS3_OS5_
FNA:14,0,_ZNSt3__110__function6__funcIZN33UDPTransportTest_LargePacket_Test8TestBodyEvE3$_0NS_9allocatorIS3_EEFvRKNS_6vectorIhNS4_IhEEEERKN5boost4asio2ip14basic_endpointINSD_3udpEEEEEC2B8ne200100ERKS3_OS5_
FNA:14,0,_ZNSt3__110__function6__funcIZN33UDPTransportTest_LargePacket_Test8TestBodyEvE3$_1NS_9allocatorIS3_EEFvRKNS_10error_codeEEEC1B8ne200100ERKS3_OS5_
FNA:14,0,_ZNSt3__110__function6__funcIZN33UDPTransportTest_LargePacket_Test8TestBodyEvE3$_1NS_9allocatorIS3_EEFvRKNS_10error_codeEEEC2B8ne200100ERKS3_OS5_
FNA:14,1,_ZNSt3__110__function6__funcIZN33UDPTransportTest_SendReceive_Test8TestBodyEvE3$_0NS_9allocatorIS3_EEFvRKNS_6vectorIhNS4_IhEEEERKN5boost4asio2ip14basic_endpointINSD_3udpEEEEEC1B8ne200100ERKS3_OS5_
FNA:14,1,_ZNSt3__110__function6__funcIZN33UDPTransportTest_SendReceive_Test8TestBodyEvE3$_0NS_9allocatorIS3_EEFvRKNS_6vectorIhNS4_IhEEEERKN5boost4asio2ip14basic_endpointINSD_3udpEEEEEC2B8ne200100ERKS3_OS5_
FNA:14,0,_ZNSt3__110__function6__funcIZN33UDPTransportTest_SendReceive_Test8TestBodyEvE3$_1NS_9allocatorIS3_EEFvRKNS_10error_codeEEEC1B8ne200100ERKS3_OS5_
FNA:14,0,_ZNSt3__110__function6__funcIZN33UDPTransportTest_SendReceive_Test8TestBodyEvE3$_1NS_9allocatorIS3_EEFvRKNS_10error_codeEEEC2B8ne200100ERKS3_OS5_
FNA:14,0,_ZNSt3__110__function6__funcIZN34UDPTransportTest_SendWithPeer_Test8TestBodyEvE3$_0NS_9allocatorIS3_EEFvRKNS_6vectorIhNS4_IhEEEERKN5boost4asio2ip14basic_endpointINSD_3udpEEEEEC1B8ne200100ERKS3_OS5_
FNA:14,0,_ZNSt3__110__function6__funcIZN34UDPTransportTest_SendWithPeer_Test8TestBodyEvE3$_0NS_9allocatorIS3_EEFvRKNS_6vectorIhNS4_IhEEEERKN5boost4asio2ip14basic_endpointINSD_3udpEEEEEC2B8ne200100ERKS3_OS5_
FNA:14,0,_ZNSt3__110__function6__funcIZN34UDPTransportTest_SendWithPeer_Test8TestBodyEvE3$_1NS_9allocatorIS3_EEFvRKNS_10error_codeEEEC1B8ne200100ERKS3_OS5_
FNA:14,0,_ZNSt3__110__function6__funcIZN34UDPTransportTest_SendWithPeer_Test8TestBodyEvE3$_1NS_9allocatorIS3_EEFvRKNS_10error_codeEEEC2B8ne200100ERKS3_OS5_
FNA:14,0,_ZNSt3__110__function6__funcIZN35UDPTransportTest_SendAfterStop_Test8TestBodyEvE3$_0NS_9allocatorIS3_EEFvRKNS_10error_codeEEEC1B8ne200100ERKS3_OS5_
FNA:14,0,_ZNSt3__110__function6__funcIZN35UDPTransportTest_SendAfterStop_Test8TestBodyEvE3$_0NS_9allocatorIS3_EEFvRKNS_10error_codeEEEC2B8ne200100ERKS3_OS5_
FNA:14,0,_ZNSt3__110__function6__funcIZN37UDPTransportTest_SendWithoutPeer_Test8TestBodyEvE3$_0NS_9allocatorIS3_EEFvRKNS_10error_codeEEEC1B8ne200100ERKS3_OS5_
FNA:14,0,_ZNSt3__110__function6__funcIZN37UDPTransportTest_SendWithoutPeer_Test8TestBodyEvE3$_0NS_9allocatorIS3_EEFvRKNS_10error_codeEEEC2B8ne200100ERKS3_OS5_
FNA:14,0,_ZNSt3__110__function6__funcIZN38UDPTransportTest_MultipleMessages_Test8TestBodyEvE3$_0NS_9allocatorIS3_EEFvRKNS_6vectorIhNS4_IhEEEERKN5boost4asio2ip14basic_endpointINSD_3udpEEEEEC1B8ne200100ERKS3_OS5_
FNA:14,0,_ZNSt3__110__function6__funcIZN38UDPTransportTest_MultipleMessages_Test8TestBodyEvE3$_0NS_9allocatorIS3_EEFvRKNS_6vectorIhNS4_IhEEEERKN5boost4asio2ip14basic_endpointINSD_3udpEEEEEC2B8ne200100ERKS3_OS5_
FNA:14,0,_ZNSt3__110__function6__funcIZN38UDPTransportTest_MultipleMessages_Test8TestBodyEvE3$_1NS_9allocatorIS3_EEFvRKNS_10error_codeEEEC1B8ne200100ERKS3_OS5_
FNA:14,0,_ZNSt3__110__function6__funcIZN38UDPTransportTest_MultipleMessages_Test8TestBodyEvE3$_1NS_9allocatorIS3_EEFvRKNS_10error_codeEEEC2B8ne200100ERKS3_OS5_
FNA:14,0,_ZNSt3__110__function6__funcIZN3p2p3nat15detect_nat_typeERN5boost4asio10io_contextERKNS_12basic_stringIcNS_11char_traitsIcEENS_9allocatorIcEEEEtNS_8functionIFvRKNS3_18NATDetectionResultEEEEE3$_0NSB_ISM_EEFvNS_8optionalISD_EENSO_ItEEEEC1B8ne200100ERKSM_OSN_
FNA:14,0,_ZNSt3__110__function6__funcIZN3p2p3nat15detect_nat_typeERN5boost4asio10io_contextERKNS_12basic_stringIcNS_11char_traitsIcEENS_9allocatorIcEEEEtNS_8functionIFvRKNS3_18NATDetectionResultEEEEE3$_0NSB_ISM_EEFvNS_8optionalISD_EENSO_ItEEEEC2B8ne200100ERKSM_OSN_
FNL:15,274,274
FNA:15,1,_ZNSt3__110__function6__funcIZN33UDPTransportTest_LargePacket_Test8TestBodyEvE3$_0NS_9allocatorIS3_EEFvRKNS_6vectorIhNS4_IhEEEERKN5boost4asio2ip14basic_endpointINSD_3udpEEEEEC1B8ne200100EOS3_OS5_
FNA:15,1,_ZNSt3__110__function6__funcIZN33UDPTransportTest_LargePacket_Test8TestBodyEvE3$_0NS_9allocatorIS3_EEFvRKNS_6vectorIhNS4_IhEEEERKN5boost4asio2ip14basic_endpointINSD_3udpEEEEEC2B8ne200100EOS3_OS5_
FNA:15,1,_ZNSt3__110__function6__funcIZN33UDPTransportTest_LargePacket_Test8TestBodyEvE3$_1NS_9allocatorIS3_EEFvRKNS_10error_codeEEEC1B8ne200100EOS3_OS5_
FNA:15,1,_ZNSt3__110__function6__funcIZN33UDPTransportTest_LargePacket_Test8TestBodyEvE3$_1NS_9allocatorIS3_EEFvRKNS_10error_codeEEEC2B8ne200100EOS3_OS5_
FNA:15,1,_ZNSt3__110__function6__funcIZN33UDPTransportTest_SendReceive_Test8TestBodyEvE3$_0NS_9allocatorIS3_EEFvRKNS_6vectorIhNS4_IhEEEERKN5boost4asio2ip14basic_endpointINSD_3udpEEEEEC1B8ne200100EOS3_OS5_
FNA:15,1,_ZNSt3__110__function6__funcIZN33UDPTransportTest_SendReceive_Test8TestBodyEvE3$_0NS_9allocatorIS3_EEFvRKNS_6vectorIhNS4_IhEEEERKN5boost4asio2ip14basic_endpointINSD_3udpEEEEEC2B8ne200100EOS3_OS5_
FNA:15,1,_ZNSt3__110__function6__funcIZN33UDPTransportTest_SendReceive_Test8TestBodyEvE3$_1NS_9allocatorIS3_EEFvRKNS_10error_codeEEEC1B8ne200100EOS3_OS5_
FNA:15,1,_ZNSt3__110__function6__funcIZN33UDPTransportTest_SendReceive_Test8TestBodyEvE3$_1NS_9allocatorIS3_EEFvRKNS_10error_codeEEEC2B8ne200100EOS3_OS5_
FNA:15,1,_ZNSt3__110__function6__funcIZN34UDPTransportTest_SendWithPeer_Test8TestBodyEvE3$_0NS_9allocatorIS3_EEFvRKNS_6vectorIhNS4_IhEEEERKN5boost4asio2ip14basic_endpointINSD_3udpEEEEEC1B8ne200100EOS3_OS5_
FNA:15,1,_ZNSt3__110__function6__funcIZN34UDPTransportTest_SendWithPeer_Test8TestBodyEvE3$_0NS_9allocatorIS3_EEFvRKNS_6vectorIhNS4_IhEEEERKN5boost4asio2ip14basic_endpointINSD_3udpEEEEEC2B8ne200100EOS3_OS5_
FNA:15,1,_ZNSt3__110__function6__funcIZN34UDPTransportTest_SendWithPeer_Test8TestBodyEvE3$_1NS_9allocatorIS3_EEFvRKNS_10error_codeEEEC1B8ne200100EOS3_OS5_
FNA:15,1,_ZNSt3__110__function6__funcIZN34UDPTransportTest_SendWithPeer_Test8TestBodyEvE3$_1NS_9allocatorIS3_EEFvRKNS_10error_codeEEEC2B8ne200100EOS3_OS5_
FNA:15,1,_ZNSt3__110__function6__funcIZN35UDPTransportTest_SendAfterStop_Test8TestBodyEvE3$_0NS_9allocatorIS3_EEFvRKNS_10error_codeEEEC1B8ne200100EOS3_OS5_
FNA:15,1,_ZNSt3__110__function6__funcIZN35UDPTransportTest_SendAfterStop_Test8TestBodyEvE3$_0NS_9allocatorIS3_EEFvRKNS_10error_codeEEEC2B8ne200100EOS3_OS5_
FNA:15,1,_ZNSt3__110__function6__funcIZN37UDPTransportTest_SendWithoutPeer_Test8TestBodyEvE3$_0NS_9allocatorIS3_EEFvRKNS_10error_codeEEEC1B8ne200100EOS3_OS5_
FNA:15,1,_ZNSt3__110__function6__funcIZN37UDPTransportTest_SendWithoutPeer_Test8TestBodyEvE3$_0NS_9allocatorIS3_EEFvRKNS_10error_codeEEEC2B8ne200100EOS3_OS5_
FNA:15,1,_ZNSt3__110__function6__funcIZN38UDPTransportTest_MultipleMessages_Test8TestBodyEvE3$_0NS_9allocatorIS3_EEFvRKNS_6vectorIhNS4_IhEEEERKN5boost4asio2ip14basic_endpointINSD_3udpEEEEEC1B8ne200100EOS3_OS5_
FNA:15,1,_ZNSt3__110__function6__funcIZN38UDPTransportTest_MultipleMessages_Test8TestBodyEvE3$_0NS_9allocatorIS3_EEFvRKNS_6vectorIhNS4_IhEEEERKN5boost4asio2ip14basic_endpointINSD_3udpEEEEEC2B8ne200100EOS3_OS5_
FNA:15,10,_ZNSt3__110__function6__funcIZN38UDPTransportTest_MultipleMessages_Test8TestBodyEvE3$_1NS_9allocatorIS3_EEFvRKNS_10error_codeEEEC1B8ne200100EOS3_OS5_
FNA:15,10,_ZNSt3__110__function6__funcIZN38UDPTransportTest_MultipleMessages_Test8TestBodyEvE3$_1NS_9allocatorIS3_EEFvRKNS_10error_codeEEEC2B8ne200100EOS3_OS5_
FNA:15,0,_ZNSt3__110__function6__funcIZN3p2p3nat15detect_nat_typeERN5boost4asio10io_contextERKNS_12basic_stringIcNS_11char_traitsIcEENS_9allocatorIcEEEEtNS_8functionIFvRKNS3_18NATDetectionResultEEEEE3$_0NSB_ISM_EEFvNS_8optionalISD_EENSO_ItEEEEC1B8ne200100EOSM_OSN_
FNA:15,0,_ZNSt3__110__function6__funcIZN3p2p3nat15detect_nat_typeERN5boost4asio10io_contextERKNS_12basic_stringIcNS_11char_traitsIcEENS_9allocatorIcEEEEtNS_8functionIFvRKNS3_18NATDetectionResultEEEEE3$_0NSB_ISM_EEFvNS_8optionalISD_EENSO_ItEEEEC2B8ne200100EOSM_OSN_
FNL:16,288,296
FNA:16,0,_ZNKSt3__110__function6__funcIZN33UDPTransportTest_LargePacket_Test8TestBodyEvE3$_0NS_9allocatorIS3_EEFvRKNS_6vectorIhNS4_IhEEEERKN5boost4asio2ip14basic_endpointINSD_3udpEEEEE7__cloneEv
FNA:16,0,_ZNKSt3__110__function6__funcIZN33UDPTransportTest_LargePacket_Test8TestBodyEvE3$_1NS_9allocatorIS3_EEFvRKNS_10error_codeEEE7__cloneEv
FNA:16,1,_ZNKSt3__110__function6__funcIZN33UDPTransportTest_SendReceive_Test8TestBodyEvE3$_0NS_9allocatorIS3_EEFvRKNS_6vectorIhNS4_IhEEEERKN5boost4asio2ip14basic_endpointINSD_3udpEEEEE7__cloneEv
FNA:16,0,_ZNKSt3__110__function6__funcIZN33UDPTransportTest_SendReceive_Test8TestBodyEvE3$_1NS_9allocatorIS3_EEFvRKNS_10error_codeEEE7__cloneEv
FNA:16,0,_ZNKSt3__110__function6__funcIZN34UDPTransportTest_SendWithPeer_Test8TestBodyEvE3$_0NS_9allocatorIS3_EEFvRKNS_6vectorIhNS4_IhEEEERKN5boost4asio2ip14basic_endpointINSD_3udpEEEEE7__cloneEv
FNA:16,0,_ZNKSt3__110__function6__funcIZN34UDPTransportTest_SendWithPeer_Test8TestBodyEvE3$_1NS_9allocatorIS3_EEFvRKNS_10error_codeEEE7__cloneEv
FNA:16,0,_ZNKSt3__110__function6__funcIZN35UDPTransportTest_SendAfterStop_Test8TestBodyEvE3$_0NS_9allocatorIS3_EEFvRKNS_10error_codeEEE7__cloneEv
FNA:16,0,_ZNKSt3__110__function6__funcIZN37UDPTransportTest_SendWithoutPeer_Test8TestBodyEvE3$_0NS_9allocatorIS3_EEFvRKNS_10error_codeEEE7__cloneEv
FNA:16,0,_ZNKSt3__110__function6__funcIZN38UDPTransportTest_MultipleMessages_Test8TestBodyEvE3$_0NS_9allocatorIS3_EEFvRKNS_6vectorIhNS4_IhEEEERKN5boost4asio2ip14basic_endpointINSD_3udpEEEEE7__cloneEv
FNA:16,0,_ZNKSt3__110__function6__funcIZN38UDPTransportTest_MultipleMessages_Test8TestBodyEvE3$_1NS_9allocatorIS3_EEFvRKNS_10error_codeEEE7__cloneEv
FNA:16,0,_ZNKSt3__110__function6__funcIZN3p2p3nat15detect_nat_typeERN5boost4asio10io_contextERKNS_12basic_stringIcNS_11char_traitsIcEENS_9allocatorIcEEEEtNS_8functionIFvRKNS3_18NATDetectionResultEEEEE3$_0NSB_ISM_EEFvNS_8optionalISD_EENSO_ItEEEE7__cloneEv
FNL:17,299,301
FNA:17,2,_ZNKSt3__110__function6__funcIZN33UDPTransportTest_LargePacket_Test8TestBodyEvE3$_0NS_9allocatorIS3_EEFvRKNS_6vectorIhNS4_IhEEEERKN5boost4asio2ip14basic_endpointINSD_3udpEEEEE7__cloneEPNS0_6__baseISJ_EE
FNA:17,3,_ZNKSt3__110__function6__funcIZN33UDPTransportTest_LargePacket_Test8TestBodyEvE3$_1NS_9allocatorIS3_EEFvRKNS_10error_codeEEE7__cloneEPNS0_6__baseIS9_EE
FNA:17,0,_ZNKSt3__110__function6__funcIZN33UDPTransportTest_SendReceive_Test8TestBodyEvE3$_0NS_9allocatorIS3_EEFvRKNS_6vectorIhNS4_IhEEEERKN5boost4asio2ip14basic_endpointINSD_3udpEEEEE7__cloneEPNS0_6__baseISJ_EE
FNA:17,3,_ZNKSt3__110__function6__funcIZN33UDPTransportTest_SendReceive_Test8TestBodyEvE3$_1NS_9allocatorIS3_EEFvRKNS_10error_codeEEE7__cloneEPNS0_6__baseIS9_EE
FNA:17,2,_ZNKSt3__110__function6__funcIZN34UDPTransportTest_SendWithPeer_Test8TestBodyEvE3$_0NS_9allocatorIS3_EEFvRKNS_6vectorIhNS4_IhEEEERKN5boost4asio2ip14basic_endpointINSD_3udpEEEEE7__cloneEPNS0_6__baseISJ_EE
FNA:17,4,_ZNKSt3__110__function6__funcIZN34UDPTransportTest_SendWithPeer_Test8TestBodyEvE3$_1NS_9allocatorIS3_EEFvRKNS_10error_codeEEE7__cloneEPNS0_6__baseIS9_EE
FNA:17,0,_ZNKSt3__110__function6__funcIZN35UDPTransportTest_SendAfterStop_Test8TestBodyEvE3$_0NS_9allocatorIS3_EEFvRKNS_10error_codeEEE7__cloneEPNS0_6__baseIS9_EE
FNA:17,0,_ZNKSt3__110__function6__funcIZN37UDPTransportTest_SendWithoutPeer_Test8TestBodyEvE3$_0NS_9allocatorIS3_EEFvRKNS_10error_codeEEE7__cloneEPNS0_6__baseIS9_EE
FNA:17,2,_ZNKSt3__110__function6__funcIZN38UDPTransportTest_MultipleMessages_Test8TestBodyEvE3$_0NS_9allocatorIS3_EEFvRKNS_6vectorIhNS4_IhEEEERKN5boost4asio2ip14basic_endpointINSD_3udpEEEEE7__cloneEPNS0_6__baseISJ_EE
FNA:17,30,_ZNKSt3__110__function6__funcIZN38UDPTransportTest_MultipleMessages_Test8TestBodyEvE3$_1NS_9allocatorIS3_EEFvRKNS_10error_codeEEE7__cloneEPNS0_6__baseIS9_EE
FNA:17,0,_ZNKSt3__110__function6__funcIZN3p2p3nat15detect_nat_typeERN5boost4asio10io_contextERKNS_12basic_stringIcNS_11char_traitsIcEENS_9allocatorIcEEEEtNS_8functionIFvRKNS3_18NATDetectionResultEEEEE3$_0NSB_ISM_EEFvNS_8optionalISD_EENSO_ItEEEE7__cloneEPNS0_6__baseISR_EE
FNL:18,304,306
FNA:18,3,_ZNSt3__110__function6__funcIZN33UDPTransportTest_LargePacket_Test8TestBodyEvE3$_0NS_9allocatorIS3_EEFvRKNS_6vectorIhNS4_IhEEEERKN5boost4asio2ip14basic_endpointINSD_3udpEEEEE7destroyEv
FNA:18,4,_ZNSt3__110__function6__funcIZN33UDPTransportTest_LargePacket_Test8TestBodyEvE3$_1NS_9allocatorIS3_EEFvRKNS_10error_codeEEE7destroyEv
FNA:18,0,_ZNSt3__110__function6__funcIZN33UDPTransportTest_SendReceive_Test8TestBodyEvE3$_0NS_9allocatorIS3_EEFvRKNS_6vectorIhNS4_IhEEEERKN5boost4asio2ip14basic_endpointINSD_3udpEEEEE7destroyEv
FNA:18,4,_ZNSt3__110__function6__funcIZN33UDPTransportTest_SendReceive_Test8TestBodyEvE3$_1NS_9allocatorIS3_EEFvRKNS_10error_codeEEE7destroyEv
FNA:18,3,_ZNSt3__110__function6__funcIZN34UDPTransportTest_SendWithPeer_Test8TestBodyEvE3$_0NS_9allocatorIS3_EEFvRKNS_6vectorIhNS4_IhEEEERKN5boost4asio2ip14basic_endpointINSD_3udpEEEEE7destroyEv
FNA:18,5,_ZNSt3__110__function6__funcIZN34UDPTransportTest_SendWithPeer_Test8TestBodyEvE3$_1NS_9allocatorIS3_EEFvRKNS_10error_codeEEE7destroyEv
FNA:18,1,_ZNSt3__110__function6__funcIZN35UDPTransportTest_SendAfterStop_Test8TestBodyEvE3$_0NS_9allocatorIS3_EEFvRKNS_10error_codeEEE7destroyEv
FNA:18,1,_ZNSt3__110__function6__funcIZN37UDPTransportTest_SendWithoutPeer_Test8TestBodyEvE3$_0NS_9allocatorIS3_EEFvRKNS_10error_codeEEE7destroyEv
FNA:18,3,_ZNSt3__110__function6__funcIZN38UDPTransportTest_MultipleMessages_Test8TestBodyEvE3$_0NS_9allocatorIS3_EEFvRKNS_6vectorIhNS4_IhEEEERKN5boost4asio2ip14basic_endpointINSD_3udpEEEEE7destroyEv
FNA:18,40,_ZNSt3__110__function6__funcIZN38UDPTransportTest_MultipleMessages_Test8TestBodyEvE3$_1NS_9allocatorIS3_EEFvRKNS_10error_codeEEE7destroyEv
FNA:18,0,_ZNSt3__110__function6__funcIZN3p2p3nat15detect_nat_typeERN5boost4asio10io_contextERKNS_12basic_stringIcNS_11char_traitsIcEENS_9allocatorIcEEEEtNS_8functionIFvRKNS3_18NATDetectionResultEEEEE3$_0NSB_ISM_EEFvNS_8optionalISD_EENSO_ItEEEE7destroyEv
FNL:19,309,315
FNA:19,0,_ZNSt3__110__function6__funcIZN33UDPTransportTest_LargePacket_Test8TestBodyEvE3$_0NS_9allocatorIS3_EEFvRKNS_6vectorIhNS4_IhEEEERKN5boost4asio2ip14basic_endpointINSD_3udpEEEEE18destroy_deallocateEv
FNA:19,0,_ZNSt3__110__function6__funcIZN33UDPTransportTest_LargePacket_Test8TestBodyEvE3$_1NS_9allocatorIS3_EEFvRKNS_10error_codeEEE18destroy_deallocateEv
FNA:19,2,_ZNSt3__110__function6__funcIZN33UDPTransportTest_SendReceive_Test8TestBodyEvE3$_0NS_9allocatorIS3_EEFvRKNS_6vectorIhNS4_IhEEEERKN5boost4asio2ip14basic_endpointINSD_3udpEEEEE18destroy_deallocateEv
FNA:19,0,_ZNSt3__110__function6__funcIZN33UDPTransportTest_SendReceive_Test8TestBodyEvE3$_1NS_9allocatorIS3_EEFvRKNS_10error_codeEEE18destroy_deallocateEv
FNA:19,0,_ZNSt3__110__function6__funcIZN34UDPTransportTest_SendWithPeer_Test8TestBodyEvE3$_0NS_9allocatorIS3_EEFvRKNS_6vectorIhNS4_IhEEEERKN5boost4asio2ip14basic_endpointINSD_3udpEEEEE18destroy_deallocateEv
FNA:19,0,_ZNSt3__110__function6__funcIZN34UDPTransportTest_SendWithPeer_Test8TestBodyEvE3$_1NS_9allocatorIS3_EEFvRKNS_10error_codeEEE18destroy_deallocateEv
FNA:19,0,_ZNSt3__110__function6__funcIZN35UDPTransportTest_SendAfterStop_Test8TestBodyEvE3$_0NS_9allocatorIS3_EEFvRKNS_10error_codeEEE18destroy_deallocateEv
FNA:19,0,_ZNSt3__110__function6__funcIZN37UDPTransportTest_SendWithoutPeer_Test8TestBodyEvE3$_0NS_9allocatorIS3_EEFvRKNS_10error_codeEEE18destroy_deallocateEv
FNA:19,0,_ZNSt3__110__function6__funcIZN38UDPTransportTest_MultipleMessages_Test8TestBodyEvE3$_0NS_9allocatorIS3_EEFvRKNS_6vectorIhNS4_IhEEEERKN5boost4asio2ip14basic_endpointINSD_3udpEEEEE18destroy_deallocateEv
FNA:19,0,_ZNSt3__110__function6__funcIZN38UDPTransportTest_MultipleMessages_Test8TestBodyEvE3$_1NS_9allocatorIS3_EEFvRKNS_10error_codeEEE18destroy_deallocateEv
FNA:19,0,_ZNSt3__110__function6__funcIZN3p2p3nat15detect_nat_typeERN5boost4asio10io_contextERKNS_12basic_stringIcNS_11char_traitsIcEENS_9allocatorIcEEEEtNS_8functionIFvRKNS3_18NATDetectionResultEEEEE3$_0NSB_ISM_EEFvNS_8optionalISD_EENSO_ItEEEE18destroy_deallocateEv
FNL:20,318,319
FNA:20,1,_ZNSt3__110__function6__funcIZN33UDPTransportTest_LargePacket_Test8TestBodyEvE3$_0NS_9allocatorIS3_EEFvRKNS_6vectorIhNS4_IhEEEERKN5boost4asio2ip14basic_endpointINSD_3udpEEEEEclESA_SI_
FNA:20,1,_ZNSt3__110__function6__funcIZN33UDPTransportTest_LargePacket_Test8TestBodyEvE3$_1NS_9allocatorIS3_EEFvRKNS_10error_codeEEEclES8_
FNA:20,1,_ZNSt3__110__function6__funcIZN33UDPTransportTest_SendReceive_Test8TestBodyEvE3$_0NS_9allocatorIS3_EEFvRKNS_6vectorIhNS4_IhEEEERKN5boost4asio2ip14basic_endpointINSD_3udpEEEEEclESA_SI_
FNA:20,1,_ZNSt3__110__function6__funcIZN33UDPTransportTest_SendReceive_Test8TestBodyEvE3$_1NS_9allocatorIS3_EEFvRKNS_10error_codeEEEclES8_
FNA:20,1,_ZNSt3__110__function6__funcIZN34UDPTransportTest_SendWithPeer_Test8TestBodyEvE3$_0NS_9allocatorIS3_EEFvRKNS_6vectorIhNS4_IhEEEERKN5boost4asio2ip14basic_endpointINSD_3udpEEEEEclESA_SI_
FNA:20,1,_ZNSt3__110__function6__funcIZN34UDPTransportTest_SendWithPeer_Test8TestBodyEvE3$_1NS_9allocatorIS3_EEFvRKNS_10error_codeEEEclES8_
FNA:20,1,_ZNSt3__110__function6__funcIZN35UDPTransportTest_SendAfterStop_Test8TestBodyEvE3$_0NS_9allocatorIS3_EEFvRKNS_10error_codeEEEclES8_
FNA:20,1,_ZNSt3__110__function6__funcIZN37UDPTransportTest_SendWithoutPeer_Test8TestBodyEvE3$_0NS_9allocatorIS3_EEFvRKNS_10error_codeEEEclES8_
FNA:20,10,_ZNSt3__110__function6__funcIZN38UDPTransportTest_MultipleMessages_Test8TestBodyEvE3$_0NS_9allocatorIS3_EEFvRKNS_6vectorIhNS4_IhEEEERKN5boost4asio2ip14basic_endpointINSD_3udpEEEEEclESA_SI_
FNA:20,10,_ZNSt3__110__function6__funcIZN38UDPTransportTest_MultipleMessages_Test8TestBodyEvE3$_1NS_9allocatorIS3_EEFvRKNS_10error_codeEEEclES8_
FNA:20,0,_ZNSt3__110__function6__funcIZN3p2p3nat15detect_nat_typeERN5boost4asio10io_contextERKNS_12basic_stringIcNS_11char_traitsIcEENS_9allocatorIcEEEEtNS_8functionIFvRKNS3_18NATDetectionResultEEEEE3$_0NSB_ISM_EEFvNS_8optionalISD_EENSO_ItEEEEclEOSP_OSQ_
FNL:21,325,329
FNA:21,0,_ZNKSt3__110__function6__funcIZN33UDPTransportTest_LargePacket_Test8TestBodyEvE3$_0NS_9allocatorIS3_EEFvRKNS_6vectorIhNS4_IhEEEERKN5boost4asio2ip14basic_endpointINSD_3udpEEEEE6targetERKSt9type_info
FNA:21,0,_ZNKSt3__110__function6__funcIZN33UDPTransportTest_LargePacket_Test8TestBodyEvE3$_1NS_9allocatorIS3_EEFvRKNS_10error_codeEEE6targetERKSt9type_info
FNA:21,0,_ZNKSt3__110__function6__funcIZN33UDPTransportTest_SendReceive_Test8TestBodyEvE3$_0NS_9allocatorIS3_EEFvRKNS_6vectorIhNS4_IhEEEERKN5boost4asio2ip14basic_endpointINSD_3udpEEEEE6targetERKSt9type_info
FNA:21,0,_ZNKSt3__110__function6__funcIZN33UDPTransportTest_SendReceive_Test8TestBodyEvE3$_1NS_9allocatorIS3_EEFvRKNS_10error_codeEEE6targetERKSt9type_info
FNA:21,0,_ZNKSt3__110__function6__funcIZN34UDPTransportTest_SendWithPeer_Test8TestBodyEvE3$_0NS_9allocatorIS3_EEFvRKNS_6vectorIhNS4_IhEEEERKN5boost4asio2ip14basic_endpointINSD_3udpEEEEE6targetERKSt9type_info
FNA:21,0,_ZNKSt3__110__function6__funcIZN34UDPTransportTest_SendWithPeer_Test8TestBodyEvE3$_1NS_9allocatorIS3_EEFvRKNS_10error_codeEEE6targetERKSt9type_info
FNA:21,0,_ZNKSt3__110__function6__funcIZN35UDPTransportTest_SendAfterStop_Test8TestBodyEvE3$_0NS_9allocatorIS3_EEFvRKNS_10error_codeEEE6targetERKSt9type_info
FNA:21,0,_ZNKSt3__110__function6__funcIZN37UDPTransportTest_SendWithoutPeer_Test8TestBodyEvE3$_0NS_9allocatorIS3_EEFvRKNS_10error_codeEEE6targetERKSt9type_info
FNA:21,0,_ZNKSt3__110__function6__funcIZN38UDPTransportTest_MultipleMessages_Test8TestBodyEvE3$_0NS_9allocatorIS3_EEFvRKNS_6vectorIhNS4_IhEEEERKN5boost4asio2ip14basic_endpointINSD_3udpEEEEE6targetERKSt9type_info
FNA:21,0,_ZNKSt3__110__function6__funcIZN38UDPTransportTest_MultipleMessages_Test8TestBodyEvE3$_1NS_9allocatorIS3_EEFvRKNS_10error_codeEEE6targetERKSt9type_info
FNA:21,0,_ZNKSt3__110__function6__funcIZN3p2p3nat15detect_nat_typeERN5boost4asio10io_contextERKNS_12basic_stringIcNS_11char_traitsIcEENS_9allocatorIcEEEEtNS_8functionIFvRKNS3_18NATDetectionResultEEEEE3$_0NSB_ISM_EEFvNS_8optionalISD_EENSO_ItEEEE6targetERKSt9type_info
FNL:22,332,333
FNA:22,0,_ZNKSt3__110__function6__funcIZN33UDPTransportTest_LargePacket_Test8TestBodyEvE3$_0NS_9allocatorIS3_EEFvRKNS_6vectorIhNS4_IhEEEERKN5boost4asio2ip14basic_endpointINSD_3udpEEEEE11target_typeEv
FNA:22,0,_ZNKSt3__110__function6__funcIZN33UDPTransportTest_LargePacket_Test8TestBodyEvE3$_1NS_9allocatorIS3_EEFvRKNS_10error_codeEEE11target_typeEv
FNA:22,0,_ZNKSt3__110__function6__funcIZN33UDPTransportTest_SendReceive_Test8TestBodyEvE3$_0NS_9allocatorIS3_EEFvRKNS_6vectorIhNS4_IhEEEERKN5boost4asio2ip14basic_endpointINSD_3udpEEEEE11target_typeEv
FNA:22,0,_ZNKSt3__110__function6__funcIZN33UDPTransportTest_SendReceive_Test8TestBodyEvE3$_1NS_9allocatorIS3_EEFvRKNS_10error_codeEEE11target_typeEv
FNA:22,0,_ZNKSt3__110__function6__funcIZN34UDPTransportTest_SendWithPeer_Test8TestBodyEvE3$_0NS_9allocatorIS3_EEFvRKNS_6vectorIhNS4_IhEEEERKN5boost4asio2ip14basic_endpointINSD_3udpEEEEE11target_typeEv
FNA:22,0,_ZNKSt3__110__function6__funcIZN34UDPTransportTest_SendWithPeer_Test8TestBodyEvE3$_1NS_9allocatorIS3_EEFvRKNS_10error_codeEEE11target_typeEv
FNA:22,0,_ZNKSt3__110__function6__funcIZN35UDPTransportTest_SendAfterStop_Test8TestBodyEvE3$_0NS_9allocatorIS3_EEFvRKNS_10error_codeEEE11target_typeEv
FNA:22,0,_ZNKSt3__110__function6__funcIZN37UDPTransportTest_SendWithoutPeer_Test8TestBodyEvE3$_0NS_9allocatorIS3_EEFvRKNS_10error_codeEEE11target_typeEv
FNA:22,0,_ZNKSt3__110__function6__funcIZN38UDPTransportTest_MultipleMessages_Test8TestBodyEvE3$_0NS_9allocatorIS3_EEFvRKNS_6vectorIhNS4_IhEEEERKN5boost4asio2ip14basic_endpointINSD_3udpEEEEE11target_typeEv
FNA:22,0,_ZNKSt3__110__function6__funcIZN38UDPTransportTest_MultipleMessages_Test8TestBodyEvE3$_1NS_9allocatorIS3_EEFvRKNS_10error_codeEEE11target_typeEv
FNA:22,0,_ZNKSt3__110__function6__funcIZN3p2p3nat15detect_nat_typeERN5boost4asio10io_contextERKNS_12basic_stringIcNS_11char_traitsIcEENS_9allocatorIcEEEEtNS_8functionIFvRKNS3_18NATDetectionResultEEEEE3$_0NSB_ISM_EEFvNS_8optionalISD_EENSO_ItEEEE11target_typeEv
FNL:23,352,352
FNA:23,0,_ZNSt3__110__function12__value_funcIFbiN8nlohmann16json_abi_v3_12_06detail13parse_event_tERNS3_10basic_jsonINS_3mapENS_6vectorENS_12basic_stringIcNS_11char_traitsIcEENS_9allocatorIcEEEEbxydSC_NS3_14adl_serializerENS8_IhNSC_IhEEEEvEEEE9__as_baseB8ne200100EPv
FNA:23,0,_ZNSt3__110__function12__value_funcIFvNS_8optionalINS_12basic_stringIcNS_11char_traitsIcEENS_9allocatorIcEEEEEENS2_ItEEEE9__as_baseB8ne200100EPv
FNA:23,0,_ZNSt3__110__function12__value_funcIFvRKN3p2p3nat18NATDetectionResultEEE9__as_baseB8ne200100EPv
FNA:23,40,_ZNSt3__110__function12__value_funcIFvRKNS_10error_codeEEE9__as_baseB8ne200100EPv
FNA:23,9,_ZNSt3__110__function12__value_funcIFvRKNS_6vectorIhNS_9allocatorIhEEEERKN5boost4asio2ip14basic_endpointINSA_3udpEEEEE9__as_baseB8ne200100EPv
FNL:24,355,355
FNA:24,18,_ZNSt3__110__function12__value_funcIFbiN8nlohmann16json_abi_v3_12_06detail13parse_event_tERNS3_10basic_jsonINS_3mapENS_6vectorENS_12basic_stringIcNS_11char_traitsIcEENS_9allocatorIcEEEEbxydSC_NS3_14adl_serializerENS8_IhNSC_IhEEEEvEEEEC1B8ne200100Ev
FNA:24,18,_ZNSt3__110__function12__value_funcIFbiN8nlohmann16json_abi_v3_12_06detail13parse_event_tERNS3_10basic_jsonINS_3mapENS_6vectorENS_12basic_stringIcNS_11char_traitsIcEENS_9allocatorIcEEEEbxydSC_NS3_14adl_serializerENS8_IhNSC_IhEEEEvEEEEC2B8ne200100Ev
FNA:24,14,_ZNSt3__110__function12__value_funcIFvRKNS_6vectorIhNS_9allocatorIhEEEERKN5boost4asio2ip14basic_endpointINSA_3udpEEEEEC1B8ne200100Ev
FNA:24,14,_ZNSt3__110__function12__value_funcIFvRKNS_6vectorIhNS_9allocatorIhEEEERKN5boost4asio2ip14basic_endpointINSA_3udpEEEEEC2B8ne200100Ev
FNL:25,358,375
FNA:25,0,_ZNSt3__110__function12__value_funcIFvNS_8optionalINS_12basic_stringIcNS_11char_traitsIcEENS_9allocatorIcEEEEEENS2_ItEEEEC1B8ne200100IZN3p2p3nat15detect_nat_typeERN5boost4asio10io_contextERKS8_tNS_8functionIFvRKNSF_18NATDetectionResultEEEEE3$_0NS6_ISS_EEEEOT_RKT0_
FNA:25,0,_ZNSt3__110__function12__value_funcIFvNS_8optionalINS_12basic_stringIcNS_11char_traitsIcEENS_9allocatorIcEEEEEENS2_ItEEEEC2B8ne200100IZN3p2p3nat15detect_nat_typeERN5boost4asio10io_contextERKS8_tNS_8functionIFvRKNSF_18NATDetectionResultEEEEE3$_0NS6_ISS_EEEEOT_RKT0_
FNA:25,1,_ZNSt3__110__function12__value_funcIFvRKNS_10error_codeEEEC1B8ne200100IZN33UDPTransportTest_LargePacket_Test8TestBodyEvE3$_1NS_9allocatorIS9_EEEEOT_RKT0_
FNA:25,1,_ZNSt3__110__function12__value_funcIFvRKNS_10error_codeEEEC1B8ne200100IZN33UDPTransportTest_SendReceive_Test8TestBodyEvE3$_1NS_9allocatorIS9_EEEEOT_RKT0_
FNA:25,1,_ZNSt3__110__function12__value_funcIFvRKNS_10error_codeEEEC1B8ne200100IZN34UDPTransportTest_SendWithPeer_Test8TestBodyEvE3$_1NS_9allocatorIS9_EEEEOT_RKT0_
FNA:25,1,_ZNSt3__110__function12__value_funcIFvRKNS_10error_codeEEEC1B8ne200100IZN35UDPTransportTest_SendAfterStop_Test8TestBodyEvE3$_0NS_9allocatorIS9_EEEEOT_RKT0_
FNA:25,1,_ZNSt3__110__function12__value_funcIFvRKNS_10error_codeEEEC1B8ne200100IZN37UDPTransportTest_SendWithoutPeer_Test8TestBodyEvE3$_0NS_9allocatorIS9_EEEEOT_RKT0_
FNA:25,10,_ZNSt3__110__function12__value_funcIFvRKNS_10error_codeEEEC1B8ne200100IZN38UDPTransportTest_MultipleMessages_Test8TestBodyEvE3$_1NS_9allocatorIS9_EEEEOT_RKT0_
FNA:25,1,_ZNSt3__110__function12__value_funcIFvRKNS_10error_codeEEEC2B8ne200100IZN33UDPTransportTest_LargePacket_Test8TestBodyEvE3$_1NS_9allocatorIS9_EEEEOT_RKT0_
FNA:25,1,_ZNSt3__110__function12__value_funcIFvRKNS_10error_codeEEEC2B8ne200100IZN33UDPTransportTest_SendReceive_Test8TestBodyEvE3$_1NS_9allocatorIS9_EEEEOT_RKT0_
FNA:25,1,_ZNSt3__110__function12__value_funcIFvRKNS_10error_codeEEEC2B8ne200100IZN34UDPTransportTest_SendWithPeer_Test8TestBodyEvE3$_1NS_9allocatorIS9_EEEEOT_RKT0_
FNA:25,1,_ZNSt3__110__function12__value_funcIFvRKNS_10error_codeEEEC2B8ne200100IZN35UDPTransportTest_SendAfterStop_Test8TestBodyEvE3$_0NS_9allocatorIS9_EEEEOT_RKT0_
FNA:25,1,_ZNSt3__110__function12__value_funcIFvRKNS_10error_codeEEEC2B8ne200100IZN37UDPTransportTest_SendWithoutPeer_Test8TestBodyEvE3$_0NS_9allocatorIS9_EEEEOT_RKT0_
FNA:25,10,_ZNSt3__110__function12__value_funcIFvRKNS_10error_codeEEEC2B8ne200100IZN38UDPTransportTest_MultipleMessages_Test8TestBodyEvE3$_1NS_9allocatorIS9_EEEEOT_RKT0_
FNA:25,1,_ZNSt3__110__function12__value_funcIFvRKNS_6vectorIhNS_9allocatorIhEEEERKN5boost4asio2ip14basic_endpointINSA_3udpEEEEEC1B8ne200100IZN33UDPTransportTest_LargePacket_Test8TestBodyEvE3$_0NS3_ISK_EEEEOT_RKT0_
FNA:25,1,_ZNSt3__110__function12__value_funcIFvRKNS_6vectorIhNS_9allocatorIhEEEERKN5boost4asio2ip14basic_endpointINSA_3udpEEEEEC1B8ne200100IZN33UDPTransportTest_SendReceive_Test8TestBodyEvE3$_0NS3_ISK_EEEEOT_RKT0_
FNA:25,1,_ZNSt3__110__function12__value_funcIFvRKNS_6vectorIhNS_9allocatorIhEEEERKN5boost4asio2ip14basic_endpointINSA_3udpEEEEEC1B8ne200100IZN34UDPTransportTest_SendWithPeer_Test8TestBodyEvE3$_0NS3_ISK_EEEEOT_RKT0_
FNA:25,1,_ZNSt3__110__function12__value_funcIFvRKNS_6vectorIhNS_9allocatorIhEEEERKN5boost4asio2ip14basic_endpointINSA_3udpEEEEEC1B8ne200100IZN38UDPTransportTest_MultipleMessages_Test8TestBodyEvE3$_0NS3_ISK_EEEEOT_RKT0_
FNA:25,1,_ZNSt3__110__function12__value_funcIFvRKNS_6vectorIhNS_9allocatorIhEEEERKN5boost4asio2ip14basic_endpointINSA_3udpEEEEEC2B8ne200100IZN33UDPTransportTest_LargePacket_Test8TestBodyEvE3$_0NS3_ISK_EEEEOT_RKT0_
FNA:25,1,_ZNSt3__110__function12__value_funcIFvRKNS_6vectorIhNS_9allocatorIhEEEERKN5boost4asio2ip14basic_endpointINSA_3udpEEEEEC2B8ne200100IZN33UDPTransportTest_SendReceive_Test8TestBodyEvE3$_0NS3_ISK_EEEEOT_RKT0_
FNA:25,1,_ZNSt3__110__function12__value_funcIFvRKNS_6vectorIhNS_9allocatorIhEEEERKN5boost4asio2ip14basic_endpointINSA_3udpEEEEEC2B8ne200100IZN34UDPTransportTest_SendWithPeer_Test8TestBodyEvE3$_0NS3_ISK_EEEEOT_RKT0_
FNA:25,1,_ZNSt3__110__function12__value_funcIFvRKNS_6vectorIhNS_9allocatorIhEEEERKN5boost4asio2ip14basic_endpointINSA_3udpEEEEEC2B8ne200100IZN38UDPTransportTest_MultipleMessages_Test8TestBodyEvE3$_0NS3_ISK_EEEEOT_RKT0_
FNL:26,378,378
FNA:26,0,_ZNSt3__110__function12__value_funcIFvNS_8optionalINS_12basic_stringIcNS_11char_traitsIcEENS_9allocatorIcEEEEEENS2_ItEEEEC1B8ne200100IZN3p2p3nat15detect_nat_typeERN5boost4asio10io_contextERKS8_tNS_8functionIFvRKNSF_18NATDetectionResultEEEEE3$_0Li0EEEOT_
FNA:26,1,_ZNSt3__110__function12__value_funcIFvRKNS_10error_codeEEEC1B8ne200100IZN33UDPTransportTest_LargePacket_Test8TestBodyEvE3$_1Li0EEEOT_
FNA:26,1,_ZNSt3__110__function12__value_funcIFvRKNS_10error_codeEEEC1B8ne200100IZN33UDPTransportTest_SendReceive_Test8TestBodyEvE3$_1Li0EEEOT_
FNA:26,1,_ZNSt3__110__function12__value_funcIFvRKNS_10error_codeEEEC1B8ne200100IZN34UDPTransportTest_SendWithPeer_Test8TestBodyEvE3$_1Li0EEEOT_
FNA:26,1,_ZNSt3__110__function12__value_funcIFvRKNS_10error_codeEEEC1B8ne200100IZN35UDPTransportTest_SendAfterStop_Test8TestBodyEvE3$_0Li0EEEOT_
FNA:26,1,_ZNSt3__110__function12__value_funcIFvRKNS_10error_codeEEEC1B8ne200100IZN37UDPTransportTest_SendWithoutPeer_Test8TestBodyEvE3$_0Li0EEEOT_
FNA:26,10,_ZNSt3__110__function12__value_funcIFvRKNS_10error_codeEEEC1B8ne200100IZN38UDPTransportTest_MultipleMessages_Test8TestBodyEvE3$_1Li0EEEOT_
FNA:26,1,_ZNSt3__110__function12__value_funcIFvRKNS_6vectorIhNS_9allocatorIhEEEERKN5boost4asio2ip14basic_endpointINSA_3udpEEEEEC1B8ne200100IZN33UDPTransportTest_LargePacket_Test8TestBodyEvE3$_0Li0EEEOT_
FNA:26,1,_ZNSt3__110__function12__value_funcIFvRKNS_6vectorIhNS_9allocatorIhEEEERKN5boost4asio2ip14basic_endpointINSA_3udpEEEEEC1B8ne200100IZN33UDPTransportTest_SendReceive_Test8TestBodyEvE3$_0Li0EEEOT_
FNA:26,1,_ZNSt3__110__function12__value_funcIFvRKNS_6vectorIhNS_9allocatorIhEEEERKN5boost4asio2ip14basic_endpointINSA_3udpEEEEEC1B8ne200100IZN34UDPTransportTest_SendWithPeer_Test8TestBodyEvE3$_0Li0EEEOT_
FNA:26,1,_ZNSt3__110__function12__value_funcIFvRKNS_6vectorIhNS_9allocatorIhEEEERKN5boost4asio2ip14basic_endpointINSA_3udpEEEEEC1B8ne200100IZN38UDPTransportTest_MultipleMessages_Test8TestBodyEvE3$_0Li0EEEOT_
FNL:27,380,388
FNA:27,0,_ZNSt3__110__function12__value_funcIFbiN8nlohmann16json_abi_v3_12_06detail13parse_event_tERNS3_10basic_jsonINS_3mapENS_6vectorENS_12basic_stringIcNS_11char_traitsIcEENS_9allocatorIcEEEEbxydSC_NS3_14adl_serializerENS8_IhNSC_IhEEEEvEEEEC1B8ne200100ERKSL_
FNA:27,0,_ZNSt3__110__function12__value_funcIFbiN8nlohmann16json_abi_v3_12_06detail13parse_event_tERNS3_10basic_jsonINS_3mapENS_6vectorENS_12basic_stringIcNS_11char_traitsIcEENS_9allocatorIcEEEEbxydSC_NS3_14adl_serializerENS8_IhNSC_IhEEEEvEEEEC2B8ne200100ERKSL_
FNA:27,0,_ZNSt3__110__function12__value_funcIFvNS_8optionalINS_12basic_stringIcNS_11char_traitsIcEENS_9allocatorIcEEEEEENS2_ItEEEEC1B8ne200100ERKSC_
FNA:27,0,_ZNSt3__110__function12__value_funcIFvNS_8optionalINS_12basic_stringIcNS_11char_traitsIcEENS_9allocatorIcEEEEEENS2_ItEEEEC2B8ne200100ERKSC_
FNA:27,0,_ZNSt3__110__function12__value_funcIFvRKN3p2p3nat18NATDetectionResultEEEC1B8ne200100ERKS8_
FNA:27,0,_ZNSt3__110__function12__value_funcIFvRKN3p2p3nat18NATDetectionResultEEEC2B8ne200100ERKS8_
FNA:27,14,_ZNSt3__110__function12__value_funcIFvRKNS_10error_codeEEEC1B8ne200100ERKS6_
FNA:27,14,_ZNSt3__110__function12__value_funcIFvRKNS_10error_codeEEEC2B8ne200100ERKS6_
FNA:27,4,_ZNSt3__110__function12__value_funcIFvRKNS_6vectorIhNS_9allocatorIhEEEERKN5boost4asio2ip14basic_endpointINSA_3udpEEEEEC1B8ne200100ERKSH_
FNA:27,4,_ZNSt3__110__function12__value_funcIFvRKNS_6vectorIhNS_9allocatorIhEEEERKN5boost4asio2ip14basic_endpointINSA_3udpEEEEEC2B8ne200100ERKSH_
FNL:28,390,400
FNA:28,54,_ZNSt3__110__function12__value_funcIFbiN8nlohmann16json_abi_v3_12_06detail13parse_event_tERNS3_10basic_jsonINS_3mapENS_6vectorENS_12basic_stringIcNS_11char_traitsIcEENS_9allocatorIcEEEEbxydSC_NS3_14adl_serializerENS8_IhNSC_IhEEEEvEEEEC1B8ne200100EOSL_
FNA:28,54,_ZNSt3__110__function12__value_funcIFbiN8nlohmann16json_abi_v3_12_06detail13parse_event_tERNS3_10basic_jsonINS_3mapENS_6vectorENS_12basic_stringIcNS_11char_traitsIcEENS_9allocatorIcEEEEbxydSC_NS3_14adl_serializerENS8_IhNSC_IhEEEEvEEEEC2B8ne200100EOSL_
FNA:28,0,_ZNSt3__110__function12__value_funcIFvNS_8optionalINS_12basic_stringIcNS_11char_traitsIcEENS_9allocatorIcEEEEEENS2_ItEEEEC1B8ne200100EOSC_
FNA:28,0,_ZNSt3__110__function12__value_funcIFvNS_8optionalINS_12basic_stringIcNS_11char_traitsIcEENS_9allocatorIcEEEEEENS2_ItEEEEC2B8ne200100EOSC_
FNA:28,0,_ZNSt3__110__function12__value_funcIFvRKN3p2p3nat18NATDetectionResultEEEC1B8ne200100EOS8_
FNA:28,0,_ZNSt3__110__function12__value_funcIFvRKN3p2p3nat18NATDetectionResultEEEC2B8ne200100EOS8_
FNA:28,26,_ZNSt3__110__function12__value_funcIFvRKNS_10error_codeEEEC1B8ne200100EOS6_
FNA:28,26,_ZNSt3__110__function12__value_funcIFvRKNS_10error_codeEEEC2B8ne200100EOS6_
FNL:29,402,407
FNA:29,72,_ZNSt3__110__function12__value_funcIFbiN8nlohmann16json_abi_v3_12_06detail13parse_event_tERNS3_10basic_jsonINS_3mapENS_6vectorENS_12basic_stringIcNS_11char_traitsIcEENS_9allocatorIcEEEEbxydSC_NS3_14adl_serializerENS8_IhNSC_IhEEEEvEEEED1B8ne200100Ev
FNA:29,72,_ZNSt3__110__function12__value_funcIFbiN8nlohmann16json_abi_v3_12_06detail13parse_event_tERNS3_10basic_jsonINS_3mapENS_6vectorENS_12basic_stringIcNS_11char_traitsIcEENS_9allocatorIcEEEEbxydSC_NS3_14adl_serializerENS8_IhNSC_IhEEEEvEEEED2B8ne200100Ev
FNA:29,0,_ZNSt3__110__function12__value_funcIFvNS_8optionalINS_12basic_stringIcNS_11char_traitsIcEENS_9allocatorIcEEEEEENS2_ItEEEED1B8ne200100Ev
FNA:29,0,_ZNSt3__110__function12__value_funcIFvNS_8optionalINS_12basic_stringIcNS_11char_traitsIcEENS_9allocatorIcEEEEEENS2_ItEEEED2B8ne200100Ev
FNA:29,0,_ZNSt3__110__function12__value_funcIFvRKN3p2p3nat18NATDetectionResultEEED1B8ne200100Ev
FNA:29,0,_ZNSt3__110__function12__value_funcIFvRKN3p2p3nat18NATDetectionResultEEED2B8ne200100Ev
FNA:29,55,_ZNSt3__110__function12__value_funcIFvRKNS_10error_codeEEED1B8ne200100Ev
FNA:29,55,_ZNSt3__110__function12__value_funcIFvRKNS_10error_codeEEED2B8ne200100Ev
FNA:29,22,_ZNSt3__110__function12__value_funcIFvRKNS_6vectorIhNS_9allocatorIhEEEERKN5boost4asio2ip14basic_endpointINSA_3udpEEEEED1B8ne200100Ev
FNA:29,22,_ZNSt3__110__function12__value_funcIFvRKNS_6vectorIhNS_9allocatorIhEEEERKN5boost4asio2ip14basic_endpointINSA_3udpEEEEED2B8ne200100Ev
FNL:30,433,436
FNA:30,0,_ZNKSt3__110__function12__value_funcIFbiN8nlohmann16json_abi_v3_12_06detail13parse_event_tERNS3_10basic_jsonINS_3mapENS_6vectorENS_12basic_stringIcNS_11char_traitsIcEENS_9allocatorIcEEEEbxydSC_NS3_14adl_serializerENS8_IhNSC_IhEEEEvEEEEclB8ne200100EOiOS5_SJ_
FNA:30,0,_ZNKSt3__110__function12__value_funcIFvNS_8optionalINS_12basic_stringIcNS_11char_traitsIcEENS_9allocatorIcEEEEEENS2_ItEEEEclB8ne200100EOS9_OSA_
FNA:30,0,_ZNKSt3__110__function12__value_funcIFvRKN3p2p3nat18NATDetectionResultEEEclB8ne200100ES6_
FNA:30,15,_ZNKSt3__110__function12__value_funcIFvRKNS_10error_codeEEEclB8ne200100ES4_
FNA:30,13,_ZNKSt3__110__function12__value_funcIFvRKNS_6vectorIhNS_9allocatorIhEEEERKN5boost4asio2ip14basic_endpointINSA_3udpEEEEEclB8ne200100ES7_SF_
FNL:31,439,469
FNA:31,4,_ZNSt3__110__function12__value_funcIFvRKNS_6vectorIhNS_9allocatorIhEEEERKN5boost4asio2ip14basic_endpointINSA_3udpEEEEE4swapB8ne200100ERSH_
FNL:32,471,471
FNA:32,18,_ZNKSt3__110__function12__value_funcIFbiN8nlohmann16json_abi_v3_12_06detail13parse_event_tERNS3_10basic_jsonINS_3mapENS_6vectorENS_12basic_stringIcNS_11char_traitsIcEENS_9allocatorIcEEEEbxydSC_NS3_14adl_serializerENS8_IhNSC_IhEEEEvEEEEcvbB8ne200100Ev
FNA:32,15,_ZNKSt3__110__function12__value_funcIFvRKNS_10error_codeEEEcvbB8ne200100Ev
FNA:32,13,_ZNKSt3__110__function12__value_funcIFvRKNS_6vectorIhNS_9allocatorIhEEEERKN5boost4asio2ip14basic_endpointINSA_3udpEEEEEcvbB8ne200100Ev
FNL:33,62,62
FNA:33,0,_ZNSt3__117bad_function_callC1B8ne200100Ev
FNA:33,0,_ZNSt3__117bad_function_callC2B8ne200100Ev
FNL:34,80,82
FNA:34,0,_ZNSt3__125__throw_bad_function_callB8ne200100Ev
FNL:35,861,861
FNA:35,14,_ZNSt3__18functionIFvRKNS_6vectorIhNS_9allocatorIhEEEERKN5boost4asio2ip14basic_endpointINS9_3udpEEEEEC1B8ne200100Ev
FNA:35,14,_ZNSt3__18functionIFvRKNS_6vectorIhNS_9allocatorIhEEEERKN5boost4asio2ip14basic_endpointINS9_3udpEEEEEC2B8ne200100Ev
FNL:36,862,862
FNA:36,18,_ZNSt3__18functionIFbiN8nlohmann16json_abi_v3_12_06detail13parse_event_tERNS2_10basic_jsonINS_3mapENS_6vectorENS_12basic_stringIcNS_11char_traitsIcEENS_9allocatorIcEEEEbxydSB_NS2_14adl_serializerENS7_IhNSB_IhEEEEvEEEEC1B8ne200100EDn
FNA:36,18,_ZNSt3__18functionIFbiN8nlohmann16json_abi_v3_12_06detail13parse_event_tERNS2_10basic_jsonINS_3mapENS_6vectorENS_12basic_stringIcNS_11char_traitsIcEENS_9allocatorIcEEEEbxydSB_NS2_14adl_serializerENS7_IhNSB_IhEEEEvEEEEC2B8ne200100EDn
FNL:37,900,900
FNA:37,18,_ZNKSt3__18functionIFbiN8nlohmann16json_abi_v3_12_06detail13parse_event_tERNS2_10basic_jsonINS_3mapENS_6vectorENS_12basic_stringIcNS_11char_traitsIcEENS_9allocatorIcEEEEbxydSB_NS2_14adl_serializerENS7_IhNSB_IhEEEEvEEEEcvbB8ne200100Ev
FNA:37,15,_ZNKSt3__18functionIFvRKNS_10error_codeEEEcvbB8ne200100Ev
FNA:37,13,_ZNKSt3__18functionIFvRKNS_6vectorIhNS_9allocatorIhEEEERKN5boost4asio2ip14basic_endpointINS9_3udpEEEEEcvbB8ne200100Ev
FNL:38,933,933
FNA:38,0,_ZNSt3__18functionIFbiN8nlohmann16json_abi_v3_12_06detail13parse_event_tERNS2_10basic_jsonINS_3mapENS_6vectorENS_12basic_stringIcNS_11char_traitsIcEENS_9allocatorIcEEEEbxydSB_NS2_14adl_serializerENS7_IhNSB_IhEEEEvEEEEC1ERKSK_
FNA:38,0,_ZNSt3__18functionIFbiN8nlohmann16json_abi_v3_12_06detail13parse_event_tERNS2_10basic_jsonINS_3mapENS_6vectorENS_12basic_stringIcNS_11char_traitsIcEENS_9allocatorIcEEEEbxydSB_NS2_14adl_serializerENS7_IhNSB_IhEEEEvEEEEC2ERKSK_
FNA:38,0,_ZNSt3__18functionIFvNS_8optionalINS_12basic_stringIcNS_11char_traitsIcEENS_9allocatorIcEEEEEENS1_ItEEEEC1ERKSB_
FNA:38,0,_ZNSt3__18functionIFvNS_8optionalINS_12basic_stringIcNS_11char_traitsIcEENS_9allocatorIcEEEEEENS1_ItEEEEC2ERKSB_
FNA:38,0,_ZNSt3__18functionIFvRKN3p2p3nat18NATDetectionResultEEEC1ERKS7_
FNA:38,0,_ZNSt3__18functionIFvRKN3p2p3nat18NATDetectionResultEEEC2ERKS7_
FNA:38,14,_ZNSt3__18functionIFvRKNS_10error_codeEEEC1ERKS5_
FNA:38,14,_ZNSt3__18functionIFvRKNS_10error_codeEEEC2ERKS5_
FNA:38,4,_ZNSt3__18functionIFvRKNS_6vectorIhNS_9allocatorIhEEEERKN5boost4asio2ip14basic_endpointINS9_3udpEEEEEC1ERKSG_
FNA:38,4,_ZNSt3__18functionIFvRKNS_6vectorIhNS_9allocatorIhEEEERKN5boost4asio2ip14basic_endpointINS9_3udpEEEEEC2ERKSG_
FNL:39,942,942
FNA:39,54,_ZNSt3__18functionIFbiN8nlohmann16json_abi_v3_12_06detail13parse_event_tERNS2_10basic_jsonINS_3mapENS_6vectorENS_12basic_stringIcNS_11char_traitsIcEENS_9allocatorIcEEEEbxydSB_NS2_14adl_serializerENS7_IhNSB_IhEEEEvEEEEC1EOSK_
FNA:39,54,_ZNSt3__18functionIFbiN8nlohmann16json_abi_v3_12_06detail13parse_event_tERNS2_10basic_jsonINS_3mapENS_6vectorENS_12basic_stringIcNS_11char_traitsIcEENS_9allocatorIcEEEEbxydSB_NS2_14adl_serializerENS7_IhNSB_IhEEEEvEEEEC2EOSK_
FNA:39,0,_ZNSt3__18functionIFvNS_8optionalINS_12basic_stringIcNS_11char_traitsIcEENS_9allocatorIcEEEEEENS1_ItEEEEC1EOSB_
FNA:39,0,_ZNSt3__18functionIFvNS_8optionalINS_12basic_stringIcNS_11char_traitsIcEENS_9allocatorIcEEEEEENS1_ItEEEEC2EOSB_
FNA:39,0,_ZNSt3__18functionIFvRKN3p2p3nat18NATDetectionResultEEEC1EOS7_
FNA:39,0,_ZNSt3__18functionIFvRKN3p2p3nat18NATDetectionResultEEEC2EOS7_
FNA:39,26,_ZNSt3__18functionIFvRKNS_10error_codeEEEC1EOS5_
FNA:39,26,_ZNSt3__18functionIFvRKNS_10error_codeEEEC2EOS5_
FNL:40,952,952
FNA:40,0,_ZNSt3__18functionIFvNS_8optionalINS_12basic_stringIcNS_11char_traitsIcEENS_9allocatorIcEEEEEENS1_ItEEEEC1IZN3p2p3nat15detect_nat_typeERN5boost4asio10io_contextERKS7_tNS0_IFvRKNSE_18NATDetectionResultEEEEE3$_0vEET_
FNA:40,0,_ZNSt3__18functionIFvNS_8optionalINS_12basic_stringIcNS_11char_traitsIcEENS_9allocatorIcEEEEEENS1_ItEEEEC2IZN3p2p3nat15detect_nat_typeERN5boost4asio10io_contextERKS7_tNS0_IFvRKNSE_18NATDetectionResultEEEEE3$_0vEET_
FNA:40,1,_ZNSt3__18functionIFvRKNS_10error_codeEEEC1IZN33UDPTransportTest_LargePacket_Test8TestBodyEvE3$_1vEET_
FNA:40,1,_ZNSt3__18functionIFvRKNS_10error_codeEEEC1IZN33UDPTransportTest_SendReceive_Test8TestBodyEvE3$_1vEET_
FNA:40,1,_ZNSt3__18functionIFvRKNS_10error_codeEEEC1IZN34UDPTransportTest_SendWithPeer_Test8TestBodyEvE3$_1vEET_
FNA:40,1,_ZNSt3__18functionIFvRKNS_10error_codeEEEC1IZN35UDPTransportTest_SendAfterStop_Test8TestBodyEvE3$_0vEET_
FNA:40,1,_ZNSt3__18functionIFvRKNS_10error_codeEEEC1IZN37UDPTransportTest_SendWithoutPeer_Test8TestBodyEvE3$_0vEET_
FNA:40,10,_ZNSt3__18functionIFvRKNS_10error_codeEEEC1IZN38UDPTransportTest_MultipleMessages_Test8TestBodyEvE3$_1vEET_
FNA:40,1,_ZNSt3__18functionIFvRKNS_10error_codeEEEC2IZN33UDPTransportTest_LargePacket_Test8TestBodyEvE3$_1vEET_
FNA:40,1,_ZNSt3__18functionIFvRKNS_10error_codeEEEC2IZN33UDPTransportTest_SendReceive_Test8TestBodyEvE3$_1vEET_
FNA:40,1,_ZNSt3__18functionIFvRKNS_10error_codeEEEC2IZN34UDPTransportTest_SendWithPeer_Test8TestBodyEvE3$_1vEET_
FNA:40,1,_ZNSt3__18functionIFvRKNS_10error_codeEEEC2IZN35UDPTransportTest_SendAfterStop_Test8TestBodyEvE3$_0vEET_
FNA:40,1,_ZNSt3__18functionIFvRKNS_10error_codeEEEC2IZN37UDPTransportTest_SendWithoutPeer_Test8TestBodyEvE3$_0vEET_
FNA:40,10,_ZNSt3__18functionIFvRKNS_10error_codeEEEC2IZN38UDPTransportTest_MultipleMessages_Test8TestBodyEvE3$_1vEET_
FNA:40,1,_ZNSt3__18functionIFvRKNS_6vectorIhNS_9allocatorIhEEEERKN5boost4asio2ip14basic_endpointINS9_3udpEEEEEC1IZN33UDPTransportTest_LargePacket_Test8TestBodyEvE3$_0vEET_
FNA:40,1,_ZNSt3__18functionIFvRKNS_6vectorIhNS_9allocatorIhEEEERKN5boost4asio2ip14basic_endpointINS9_3udpEEEEEC1IZN33UDPTransportTest_SendReceive_Test8TestBodyEvE3$_0vEET_
FNA:40,1,_ZNSt3__18functionIFvRKNS_6vectorIhNS_9allocatorIhEEEERKN5boost4asio2ip14basic_endpointINS9_3udpEEEEEC1IZN34UDPTransportTest_SendWithPeer_Test8TestBodyEvE3$_0vEET_
FNA:40,1,_ZNSt3__18functionIFvRKNS_6vectorIhNS_9allocatorIhEEEERKN5boost4asio2ip14basic_endpointINS9_3udpEEEEEC1IZN38UDPTransportTest_MultipleMessages_Test8TestBodyEvE3$_0vEET_
FNA:40,1,_ZNSt3__18functionIFvRKNS_6vectorIhNS_9allocatorIhEEEERKN5boost4asio2ip14basic_endpointINS9_3udpEEEEEC2IZN33UDPTransportTest_LargePacket_Test8TestBodyEvE3$_0vEET_
FNA:40,1,_ZNSt3__18functionIFvRKNS_6vectorIhNS_9allocatorIhEEEERKN5boost4asio2ip14basic_endpointINS9_3udpEEEEEC2IZN33UDPTransportTest_SendReceive_Test8TestBodyEvE3$_0vEET_
FNA:40,1,_ZNSt3__18functionIFvRKNS_6vectorIhNS_9allocatorIhEEEERKN5boost4asio2ip14basic_endpointINS9_3udpEEEEEC2IZN34UDPTransportTest_SendWithPeer_Test8TestBodyEvE3$_0vEET_
FNA:40,1,_ZNSt3__18functionIFvRKNS_6vectorIhNS_9allocatorIhEEEERKN5boost4asio2ip14basic_endpointINS9_3udpEEEEEC2IZN38UDPTransportTest_MultipleMessages_Test8TestBodyEvE3$_0vEET_
FNL:41,961,963
FNA:41,4,_ZNSt3__18functionIFvRKNS_6vectorIhNS_9allocatorIhEEEERKN5boost4asio2ip14basic_endpointINS9_3udpEEEEEaSERKSG_
FNL:42,986,986
FNA:42,72,_ZNSt3__18functionIFbiN8nlohmann16json_abi_v3_12_06detail13parse_event_tERNS2_10basic_jsonINS_3mapENS_6vectorENS_12basic_stringIcNS_11char_traitsIcEENS_9allocatorIcEEEEbxydSB_NS2_14adl_serializerENS7_IhNSB_IhEEEEvEEEED1Ev
FNA:42,72,_ZNSt3__18functionIFbiN8nlohmann16json_abi_v3_12_06detail13parse_event_tERNS2_10basic_jsonINS_3mapENS_6vectorENS_12basic_stringIcNS_11char_traitsIcEENS_9allocatorIcEEEEbxydSB_NS2_14adl_serializerENS7_IhNSB_IhEEEEvEEEED2Ev
FNA:42,0,_ZNSt3__18functionIFvNS_8optionalINS_12basic_stringIcNS_11char_traitsIcEENS_9allocatorIcEEEEEENS1_ItEEEED1Ev
FNA:42,0,_ZNSt3__18functionIFvNS_8optionalINS_12basic_stringIcNS_11char_traitsIcEENS_9allocatorIcEEEEEENS1_ItEEEED2Ev
FNA:42,0,_ZNSt3__18functionIFvRKN3p2p3nat18NATDetectionResultEEED1Ev
FNA:42,0,_ZNSt3__18functionIFvRKN3p2p3nat18NATDetectionResultEEED2Ev
FNA:42,55,_ZNSt3__18functionIFvRKNS_10error_codeEEED1Ev
FNA:42,55,_ZNSt3__18functionIFvRKNS_10error_codeEEED2Ev
FNA:42,21,_ZNSt3__18functionIFvRKNS_6vectorIhNS_9allocatorIhEEEERKN5boost4asio2ip14basic_endpointINS9_3udpEEEEED1Ev
FNA:42,22,_ZNSt3__18functionIFvRKNS_6vectorIhNS_9allocatorIhEEEERKN5boost4asio2ip14basic_endpointINS9_3udpEEEEED2Ev
FNL:43,989,991
FNA:43,4,_ZNSt3__18functionIFvRKNS_6vectorIhNS_9allocatorIhEEEERKN5boost4asio2ip14basic_endpointINS9_3udpEEEEE4swapERSG_
FNL:44,994,995
FNA:44,0,_ZNKSt3__18functionIFbiN8nlohmann16json_abi_v3_12_06detail13parse_event_tERNS2_10basic_jsonINS_3mapENS_6vectorENS_12basic_stringIcNS_11char_traitsIcEENS_9allocatorIcEEEEbxydSB_NS2_14adl_serializerENS7_IhNSB_IhEEEEvEEEEclEiS4_SI_
FNA:44,0,_ZNKSt3__18functionIFvNS_8optionalINS_12basic_stringIcNS_11char_traitsIcEENS_9allocatorIcEEEEEENS1_ItEEEEclES8_S9_
FNA:44,0,_ZNKSt3__18functionIFvRKN3p2p3nat18NATDetectionResultEEEclES5_
FNA:44,15,_ZNKSt3__18functionIFvRKNS_10error_codeEEEclES3_
FNA:44,13,_ZNKSt3__18functionIFvRKNS_6vectorIhNS_9allocatorIhEEEERKN5boost4asio2ip14basic_endpointINS9_3udpEEEEEclES6_SE_
FNF:45
FNH:37
DA:62,0
DA:80,0
DA:82,0
DA:106,19
DA:107,19
DA:151,47
DA:154,49
DA:158,92
DA:160,4
DA:161,4
DA:163,76
DA:164,76
DA:166,28
DA:167,28
DA:180,66
DA:181,66
DA:182,66
DA:183,66
DA:245,66
DA:246,0
DA:270,92
DA:272,2
DA:274,38
DA:288,1
DA:291,1
DA:293,1
DA:294,1
DA:295,1
DA:296,1
DA:299,46
DA:300,46
DA:301,46
DA:304,64
DA:305,64
DA:306,64
DA:309,2
DA:312,2
DA:313,2
DA:314,2
DA:315,2
DA:318,28
DA:319,28
DA:325,0
DA:326,0
DA:327,0
DA:328,0
DA:329,0
DA:332,0
DA:333,0
DA:352,49
DA:355,64
DA:358,38
DA:363,19
DA:364,19
DA:367,18
DA:370,1
DA:371,1
DA:372,1
DA:373,1
DA:374,19
DA:375,38
DA:378,19
DA:380,36
DA:381,18
DA:382,0
DA:383,18
DA:384,17
DA:385,17
DA:386,17
DA:387,1
DA:388,36
DA:390,160
DA:391,80
DA:392,54
DA:393,26
DA:394,26
DA:395,26
DA:396,26
DA:397,0
DA:398,0
DA:400,160
DA:402,298
DA:403,149
DA:404,61
DA:405,88
DA:406,2
DA:407,298
DA:433,28
DA:434,28
DA:435,0
DA:436,28
DA:439,4
DA:440,4
DA:441,0
DA:442,4
DA:446,0
DA:447,0
DA:448,0
DA:449,0
DA:450,0
DA:451,0
DA:452,0
DA:453,0
DA:454,0
DA:455,0
DA:456,0
DA:457,4
DA:458,3
DA:459,3
DA:460,3
DA:461,3
DA:462,4
DA:463,0
DA:464,0
DA:465,0
DA:466,0
DA:467,0
DA:468,1
DA:469,4
DA:471,46
DA:861,28
DA:862,36
DA:900,46
DA:933,36
DA:942,160
DA:952,38
DA:961,4
DA:962,4
DA:963,4
DA:986,297
DA:989,4
DA:990,4
DA:991,4
DA:994,28
DA:995,28
LF:135
LH:103
end_of_record
TN:
SF:/Library/Developer/CommandLineTools/SDKs/MacOSX.sdk/usr/include/c++/v1/__functional/hash.h
FNL:0,132,133
FNA:0,1115,_ZNSt3__121__murmur2_or_cityhashImLm64EE8__rotateB8ne200100Emi
FNL:1,136,137
FNA:1,78,_ZNSt3__121__murmur2_or_cityhashImLm64EE22__rotate_by_at_least_1B8ne200100Emi
FNL:2,140,140
FNA:2,128,_ZNSt3__121__murmur2_or_cityhashImLm64EE11__shift_mixB8ne200100Em
FNL:3,142,149
FNA:3,389,_ZNSt3__121__murmur2_or_cityhashImLm64EE13__hash_len_16B8ne200100Emm
FNL:4,153,177
FNA:4,188,_ZNSt3__121__murmur2_or_cityhashImLm64EE18__hash_len_0_to_16B8ne200100EPKcm
FNL:5,180,186
FNA:5,201,_ZNSt3__121__murmur2_or_cityhashImLm64EE19__hash_len_17_to_32B8ne200100EPKcm
FNL:6,192,199
FNA:6,0,_ZNSt3__121__murmur2_or_cityhashImLm64EE29__weak_hash_len_32_with_seedsB8ne200100Emmmmmm
FNL:7,204,211
FNA:7,0,_ZNSt3__121__murmur2_or_cityhashImLm64EE29__weak_hash_len_32_with_seedsB8ne200100EPKcmm
FNL:8,216,236
FNA:8,64,_ZNSt3__121__murmur2_or_cityhashImLm64EE19__hash_len_33_to_64B8ne200100EPKcm
FNL:9,34,37
FNA:9,220,_ZNSt3__110__loadwordB8ne200100IjEET_PKv
FNA:9,1600,_ZNSt3__110__loadwordB8ne200100ImEET_PKv
FNL:10,85,123
FNA:10,453,_ZNKSt3__121__murmur2_or_cityhashImLm64EEclB8ne200100EPKvm
FNF:11
FNH:9
DA:34,1820
DA:36,1820
DA:37,1820
DA:85,453
DA:86,453
DA:87,453
DA:88,389
DA:89,188
DA:91,201
DA:93,64
DA:94,64
DA:99,0
DA:100,0
DA:101,0
DA:102,0
DA:103,0
DA:104,0
DA:105,0
DA:108,0
DA:109,0
DA:110,0
DA:111,0
DA:112,0
DA:113,0
DA:114,0
DA:115,0
DA:116,0
DA:117,0
DA:118,0
DA:119,0
DA:120,0
DA:121,0
DA:122,0
DA:123,453
DA:132,1115
DA:133,1115
DA:136,78
DA:137,78
DA:140,128
DA:142,389
DA:143,389
DA:144,389
DA:145,389
DA:146,389
DA:147,389
DA:148,389
DA:149,389
DA:153,188
DA:154,188
DA:155,78
DA:156,78
DA:157,78
DA:159,110
DA:160,110
DA:161,110
DA:165,110
DA:168,0
DA:169,0
DA:170,0
DA:171,0
DA:172,0
DA:173,0
DA:174,0
DA:176,0
DA:177,188
DA:180,201
DA:181,201
DA:182,201
DA:183,201
DA:184,201
DA:185,201
DA:186,201
DA:192,0
DA:193,0
DA:194,0
DA:195,0
DA:196,0
DA:197,0
DA:198,0
DA:199,0
DA:204,0
DA:205,0
DA:206,0
DA:207,0
DA:208,0
DA:209,0
DA:210,0
DA:211,0
DA:216,64
DA:217,64
DA:218,64
DA:219,64
DA:220,64
DA:221,64
DA:222,64
DA:223,64
DA:224,64
DA:225,64
DA:226,64
DA:227,64
DA:228,64
DA:229,64
DA:230,64
DA:231,64
DA:232,64
DA:233,64
DA:234,64
DA:235,64
DA:236,64
LF:109
LH:63
end_of_record
TN:
SF:/Library/Developer/CommandLineTools/SDKs/MacOSX.sdk/usr/include/c++/v1/__functional/operations.h
FNL:0,298,299
FNA:0,103,_ZNKSt3__18equal_toINS_12basic_stringIcNS_11char_traitsIcEENS_9allocatorIcEEEEEclB8ne200100ERKS6_S9_
FNL:1,359,360
FNA:1,1455,_ZNKSt3__14lessIN3p2p9detection12DeviceVendorEEclB8ne200100ERKS3_S6_
FNA:1,89,_ZNKSt3__14lessINS_12basic_stringIcNS_11char_traitsIcEENS_9allocatorIcEEEEEclB8ne200100ERKS6_S9_
FNL:2,375,378
FNA:2,17,_ZNKSt3__14lessIvEclB8ne200100IRA9_KcRKNS_12basic_stringIcNS_11char_traitsIcEENS_9allocatorIcEEEEEEDTltclsr3stdE7forwardIT_Efp_Eclsr3stdE7forwardIT0_Efp0_EEOSE_OSF_
FNA:2,51,_ZNKSt3__14lessIvEclB8ne200100IRKNS_12basic_stringIcNS_11char_traitsIcEENS_9allocatorIcEEEERA9_KcEEDTltclsr3stdE7forwardIT_Efp_Eclsr3stdE7forwardIT0_Efp0_EEOSE_OSF_
FNA:2,1351,_ZNKSt3__14lessIvEclB8ne200100IRKNS_12basic_stringIcNS_11char_traitsIcEENS_9allocatorIcEEEESA_EEDTltclsr3stdE7forwardIT_Efp_Eclsr3stdE7forwardIT0_Efp0_EEOSB_OSC_
FNF:3
FNH:3
DA:298,103
DA:299,103
DA:359,1544
DA:360,1544
DA:375,1419
DA:378,1419
LF:6
LH:6
end_of_record
TN:
SF:/Library/Developer/CommandLineTools/SDKs/MacOSX.sdk/usr/include/c++/v1/__hash_table
FNL:0,101
FNA:0,3,_ZNSt3__116__hash_node_baseIPNS_11__hash_nodeINS_12basic_stringIcNS_11char_traitsIcEENS_9allocatorIcEEEEPvEEE8__upcastB8ne200100Ev
FNA:0,107,_ZNSt3__116__hash_node_baseIPNS_11__hash_nodeINS_17__hash_value_typeINS_12basic_stringIcNS_11char_traitsIcEENS_9allocatorIcEEEEN3p2p5relay14BandwidthStatsEEEPvEEE8__upcastB8ne200100Ev
FNA:0,107,_ZNSt3__116__hash_node_baseIPNS_11__hash_nodeINS_17__hash_value_typeINS_12basic_stringIcNS_11char_traitsIcEENS_9allocatorIcEEEEN3p2p5relay16BandwidthLimiter18AllocationLimitersEEEPvEEE8__upcastB8ne200100Ev
FNA:0,94,_ZNSt3__116__hash_node_baseIPNS_11__hash_nodeINS_17__hash_value_typeINS_12basic_stringIcNS_11char_traitsIcEENS_9allocatorIcEEEENS_10shared_ptrIN3p2p5relay14TurnAllocationEEEEEPvEEE8__upcastB8ne200100Ev
FNA:0,147,_ZNSt3__116__hash_node_baseIPNS_11__hash_nodeINS_17__hash_value_typeINS_12basic_stringIcNS_11char_traitsIcEENS_9allocatorIcEEEES8_EEPvEEE8__upcastB8ne200100Ev
FNL:1,1029
FNA:1,34,_ZNSt3__112__hash_tableINS_12basic_stringIcNS_11char_traitsIcEENS_9allocatorIcEEEENS_4hashIS6_EENS_8equal_toIS6_EENS4_IS6_EEEC1Ev
FNA:1,34,_ZNSt3__112__hash_tableINS_12basic_stringIcNS_11char_traitsIcEENS_9allocatorIcEEEENS_4hashIS6_EENS_8equal_toIS6_EENS4_IS6_EEEC2Ev
FNA:1,9,_ZNSt3__112__hash_tableINS_17__hash_value_typeINS_12basic_stringIcNS_11char_traitsIcEENS_9allocatorIcEEEEN3p2p5relay14BandwidthStatsEEENS_22__unordered_map_hasherIS7_SB_NS_4hashIS7_EENS_8equal_toIS7_EELb1EEENS_21__unordered_map_equalIS7_SB_SG_SE_Lb1EEENS5_ISB_EEEC1Ev
FNA:1,9,_ZNSt3__112__hash_tableINS_17__hash_value_typeINS_12basic_stringIcNS_11char_traitsIcEENS_9allocatorIcEEEEN3p2p5relay14BandwidthStatsEEENS_22__unordered_map_hasherIS7_SB_NS_4hashIS7_EENS_8equal_toIS7_EELb1EEENS_21__unordered_map_equalIS7_SB_SG_SE_Lb1EEENS5_ISB_EEEC2Ev
FNA:1,9,_ZNSt3__112__hash_tableINS_17__hash_value_typeINS_12basic_stringIcNS_11char_traitsIcEENS_9allocatorIcEEEEN3p2p5relay16BandwidthLimiter18AllocationLimitersEEENS_22__unordered_map_hasherIS7_SC_NS_4hashIS7_EENS_8equal_toIS7_EELb1EEENS_21__unordered_map_equalIS7_SC_SH_SF_Lb1EEENS5_ISC_EEEC1Ev
FNA:1,9,_ZNSt3__112__hash_tableINS_17__hash_value_typeINS_12basic_stringIcNS_11char_traitsIcEENS_9allocatorIcEEEEN3p2p5relay16BandwidthLimiter18AllocationLimitersEEENS_22__unordered_map_hasherIS7_SC_NS_4hashIS7_EENS_8equal_toIS7_EELb1EEENS_21__unordered_map_equalIS7_SC_SH_SF_Lb1EEENS5_ISC_EEEC2Ev
FNA:1,20,_ZNSt3__112__hash_tableINS_17__hash_value_typeINS_12basic_stringIcNS_11char_traitsIcEENS_9allocatorIcEEEENS_10shared_ptrIN3p2p5relay14TurnAllocationEEEEENS_22__unordered_map_hasherIS7_SD_NS_4hashIS7_EENS_8equal_toIS7_EELb1EEENS_21__unordered_map_equalIS7_SD_SI_SG_Lb1EEENS5_ISD_EEEC1Ev
FNA:1,20,_ZNSt3__112__hash_tableINS_17__hash_value_typeINS_12basic_stringIcNS_11char_traitsIcEENS_9allocatorIcEEEENS_10shared_ptrIN3p2p5relay14TurnAllocationEEEEENS_22__unordered_map_hasherIS7_SD_NS_4hashIS7_EENS_8equal_toIS7_EELb1EEENS_21__unordered_map_equalIS7_SD_SI_SG_Lb1EEENS5_ISD_EEEC2Ev
FNA:1,40,_ZNSt3__112__hash_tableINS_17__hash_value_typeINS_12basic_stringIcNS_11char_traitsIcEENS_9allocatorIcEEEES7_EENS_22__unordered_map_hasherIS7_S8_NS_4hashIS7_EENS_8equal_toIS7_EELb1EEENS_21__unordered_map_equalIS7_S8_SD_SB_Lb1EEENS5_IS8_EEEC1Ev
FNA:1,40,_ZNSt3__112__hash_tableINS_17__hash_value_typeINS_12basic_stringIcNS_11char_traitsIcEENS_9allocatorIcEEEES7_EENS_22__unordered_map_hasherIS7_S8_NS_4hashIS7_EENS_8equal_toIS7_EELb1EEENS_21__unordered_map_equalIS7_S8_SD_SB_Lb1EEENS5_IS8_EEEC2Ev
FNL:2,105
FNA:2,4,_ZNKSt3__116__hash_node_baseIPNS_11__hash_nodeINS_12basic_stringIcNS_11char_traitsIcEENS_9allocatorIcEEEEPvEEE6__hashB8ne200100Ev
FNA:2,183,_ZNKSt3__116__hash_node_baseIPNS_11__hash_nodeINS_17__hash_value_typeINS_12basic_stringIcNS_11char_traitsIcEENS_9allocatorIcEEEEN3p2p5relay14BandwidthStatsEEEPvEEE6__hashB8ne200100Ev
FNA:2,183,_ZNKSt3__116__hash_node_baseIPNS_11__hash_nodeINS_17__hash_value_typeINS_12basic_stringIcNS_11char_traitsIcEENS_9allocatorIcEEEEN3p2p5relay16BandwidthLimiter18AllocationLimitersEEEPvEEE6__hashB8ne200100Ev
FNA:2,75,_ZNKSt3__116__hash_node_baseIPNS_11__hash_nodeINS_17__hash_value_typeINS_12basic_stringIcNS_11char_traitsIcEENS_9allocatorIcEEEENS_10shared_ptrIN3p2p5relay14TurnAllocationEEEEEPvEEE6__hashB8ne200100Ev
FNA:2,184,_ZNKSt3__116__hash_node_baseIPNS_11__hash_nodeINS_17__hash_value_typeINS_12basic_stringIcNS_11char_traitsIcEENS_9allocatorIcEEEES8_EEPvEEE6__hashB8ne200100Ev
FNL:3,107
FNA:3,34,_ZNSt3__116__hash_node_baseIPNS_11__hash_nodeINS_12basic_stringIcNS_11char_traitsIcEENS_9allocatorIcEEEEPvEEEC1B8ne200100Ev
FNA:3,34,_ZNSt3__116__hash_node_baseIPNS_11__hash_nodeINS_12basic_stringIcNS_11char_traitsIcEENS_9allocatorIcEEEEPvEEEC2B8ne200100Ev
FNA:3,9,_ZNSt3__116__hash_node_baseIPNS_11__hash_nodeINS_17__hash_value_typeINS_12basic_stringIcNS_11char_traitsIcEENS_9allocatorIcEEEEN3p2p5relay14BandwidthStatsEEEPvEEEC1B8ne200100Ev
FNA:3,9,_ZNSt3__116__hash_node_baseIPNS_11__hash_nodeINS_17__hash_value_typeINS_12basic_stringIcNS_11char_traitsIcEENS_9allocatorIcEEEEN3p2p5relay14BandwidthStatsEEEPvEEEC2B8ne200100Ev
FNA:3,9,_ZNSt3__116__hash_node_baseIPNS_11__hash_nodeINS_17__hash_value_typeINS_12basic_stringIcNS_11char_traitsIcEENS_9allocatorIcEEEEN3p2p5relay16BandwidthLimiter18AllocationLimitersEEEPvEEEC1B8ne200100Ev
FNA:3,9,_ZNSt3__116__hash_node_baseIPNS_11__hash_nodeINS_17__hash_value_typeINS_12basic_stringIcNS_11char_traitsIcEENS_9allocatorIcEEEEN3p2p5relay16BandwidthLimiter18AllocationLimitersEEEPvEEEC2B8ne200100Ev
FNA:3,20,_ZNSt3__116__hash_node_baseIPNS_11__hash_nodeINS_17__hash_value_typeINS_12basic_stringIcNS_11char_traitsIcEENS_9allocatorIcEEEENS_10shared_ptrIN3p2p5relay14TurnAllocationEEEEEPvEEEC1B8ne200100Ev
FNA:3,20,_ZNSt3__116__hash_node_baseIPNS_11__hash_nodeINS_17__hash_value_typeINS_12basic_stringIcNS_11char_traitsIcEENS_9allocatorIcEEEENS_10shared_ptrIN3p2p5relay14TurnAllocationEEEEEPvEEEC2B8ne200100Ev
FNA:3,40,_ZNSt3__116__hash_node_baseIPNS_11__hash_nodeINS_17__hash_value_typeINS_12basic_stringIcNS_11char_traitsIcEENS_9allocatorIcEEEES8_EEPvEEEC1B8ne200100Ev
FNA:3,40,_ZNSt3__116__hash_node_baseIPNS_11__hash_nodeINS_17__hash_value_typeINS_12basic_stringIcNS_11char_traitsIcEENS_9allocatorIcEEEES8_EEPvEEEC2B8ne200100Ev
FNL:4,108
FNA:4,1,_ZNSt3__116__hash_node_baseIPNS_11__hash_nodeINS_12basic_stringIcNS_11char_traitsIcEENS_9allocatorIcEEEEPvEEEC2B8ne200100EPSB_
FNA:4,13,_ZNSt3__116__hash_node_baseIPNS_11__hash_nodeINS_17__hash_value_typeINS_12basic_stringIcNS_11char_traitsIcEENS_9allocatorIcEEEEN3p2p5relay14BandwidthStatsEEEPvEEEC2B8ne200100EPSG_
FNA:4,13,_ZNSt3__116__hash_node_baseIPNS_11__hash_nodeINS_17__hash_value_typeINS_12basic_stringIcNS_11char_traitsIcEENS_9allocatorIcEEEEN3p2p5relay16BandwidthLimiter18AllocationLimitersEEEPvEEEC2B8ne200100EPSH_
FNA:4,34,_ZNSt3__116__hash_node_baseIPNS_11__hash_nodeINS_17__hash_value_typeINS_12basic_stringIcNS_11char_traitsIcEENS_9allocatorIcEEEENS_10shared_ptrIN3p2p5relay14TurnAllocationEEEEEPvEEEC2B8ne200100EPSI_
FNA:4,68,_ZNSt3__116__hash_node_baseIPNS_11__hash_nodeINS_17__hash_value_typeINS_12basic_stringIcNS_11char_traitsIcEENS_9allocatorIcEEEES8_EEPvEEEC2B8ne200100EPSD_
FNL:5,1125
FNA:5,34,_ZNSt3__112__hash_tableINS_12basic_stringIcNS_11char_traitsIcEENS_9allocatorIcEEEENS_4hashIS6_EENS_8equal_toIS6_EENS4_IS6_EEED1Ev
FNA:5,51,_ZNSt3__112__hash_tableINS_12basic_stringIcNS_11char_traitsIcEENS_9allocatorIcEEEENS_4hashIS6_EENS_8equal_toIS6_EENS4_IS6_EEED2Ev
FNA:5,9,_ZNSt3__112__hash_tableINS_17__hash_value_typeINS_12basic_stringIcNS_11char_traitsIcEENS_9allocatorIcEEEEN3p2p5relay14BandwidthStatsEEENS_22__unordered_map_hasherIS7_SB_NS_4hashIS7_EENS_8equal_toIS7_EELb1EEENS_21__unordered_map_equalIS7_SB_SG_SE_Lb1EEENS5_ISB_EEED1Ev
FNA:5,9,_ZNSt3__112__hash_tableINS_17__hash_value_typeINS_12basic_stringIcNS_11char_traitsIcEENS_9allocatorIcEEEEN3p2p5relay14BandwidthStatsEEENS_22__unordered_map_hasherIS7_SB_NS_4hashIS7_EENS_8equal_toIS7_EELb1EEENS_21__unordered_map_equalIS7_SB_SG_SE_Lb1EEENS5_ISB_EEED2Ev
FNA:5,9,_ZNSt3__112__hash_tableINS_17__hash_value_typeINS_12basic_stringIcNS_11char_traitsIcEENS_9allocatorIcEEEEN3p2p5relay16BandwidthLimiter18AllocationLimitersEEENS_22__unordered_map_hasherIS7_SC_NS_4hashIS7_EENS_8equal_toIS7_EELb1EEENS_21__unordered_map_equalIS7_SC_SH_SF_Lb1EEENS5_ISC_EEED1Ev
FNA:5,9,_ZNSt3__112__hash_tableINS_17__hash_value_typeINS_12basic_stringIcNS_11char_traitsIcEENS_9allocatorIcEEEEN3p2p5relay16BandwidthLimiter18AllocationLimitersEEENS_22__unordered_map_hasherIS7_SC_NS_4hashIS7_EENS_8equal_toIS7_EELb1EEENS_21__unordered_map_equalIS7_SC_SH_SF_Lb1EEENS5_ISC_EEED2Ev
FNA:5,20,_ZNSt3__112__hash_tableINS_17__hash_value_typeINS_12basic_stringIcNS_11char_traitsIcEENS_9allocatorIcEEEENS_10shared_ptrIN3p2p5relay14TurnAllocationEEEEENS_22__unordered_map_hasherIS7_SD_NS_4hashIS7_EENS_8equal_toIS7_EELb1EEENS_21__unordered_map_equalIS7_SD_SI_SG_Lb1EEENS5_ISD_EEED1Ev
FNA:5,20,_ZNSt3__112__hash_tableINS_17__hash_value_typeINS_12basic_stringIcNS_11char_traitsIcEENS_9allocatorIcEEEENS_10shared_ptrIN3p2p5relay14TurnAllocationEEEEENS_22__unordered_map_hasherIS7_SD_NS_4hashIS7_EENS_8equal_toIS7_EELb1EEENS_21__unordered_map_equalIS7_SD_SI_SG_Lb1EEENS5_ISD_EEED2Ev
FNA:5,40,_ZNSt3__112__hash_tableINS_17__hash_value_typeINS_12basic_stringIcNS_11char_traitsIcEENS_9allocatorIcEEEES7_EENS_22__unordered_map_hasherIS7_S8_NS_4hashIS7_EENS_8equal_toIS7_EELb1EEENS_21__unordered_map_equalIS7_S8_SD_SB_Lb1EEENS5_IS8_EEED1Ev
FNA:5,40,_ZNSt3__112__hash_tableINS_17__hash_value_typeINS_12basic_stringIcNS_11char_traitsIcEENS_9allocatorIcEEEES7_EENS_22__unordered_map_hasherIS7_S8_NS_4hashIS7_EENS_8equal_toIS7_EELb1EEENS_21__unordered_map_equalIS7_S8_SD_SB_Lb1EEENS5_IS8_EEED2Ev
FNL:6,1158
FNA:6,51,_ZNSt3__112__hash_tableINS_12basic_stringIcNS_11char_traitsIcEENS_9allocatorIcEEEENS_4hashIS6_EENS_8equal_toIS6_EENS4_IS6_EEE17__deallocate_nodeEPNS_16__hash_node_baseIPNS_11__hash_nodeIS6_PvEEEE
FNA:6,9,_ZNSt3__112__hash_tableINS_17__hash_value_typeINS_12basic_stringIcNS_11char_traitsIcEENS_9allocatorIcEEEEN3p2p5relay14BandwidthStatsEEENS_22__unordered_map_hasherIS7_SB_NS_4hashIS7_EENS_8equal_toIS7_EELb1EEENS_21__unordered_map_equalIS7_SB_SG_SE_Lb1EEENS5_ISB_EEE17__deallocate_nodeEPNS_16__hash_node_baseIPNS_11__hash_nodeISB_PvEEEE
FNA:6,9,_ZNSt3__112__hash_tableINS_17__hash_value_typeINS_12basic_stringIcNS_11char_traitsIcEENS_9allocatorIcEEEEN3p2p5relay16BandwidthLimiter18AllocationLimitersEEENS_22__unordered_map_hasherIS7_SC_NS_4hashIS7_EENS_8equal_toIS7_EELb1EEENS_21__unordered_map_equalIS7_SC_SH_SF_Lb1EEENS5_ISC_EEE17__deallocate_nodeEPNS_16__hash_node_baseIPNS_11__hash_nodeISC_PvEEEE
FNA:6,20,_ZNSt3__112__hash_tableINS_17__hash_value_typeINS_12basic_stringIcNS_11char_traitsIcEENS_9allocatorIcEEEENS_10shared_ptrIN3p2p5relay14TurnAllocationEEEEENS_22__unordered_map_hasherIS7_SD_NS_4hashIS7_EENS_8equal_toIS7_EELb1EEENS_21__unordered_map_equalIS7_SD_SI_SG_Lb1EEENS5_ISD_EEE17__deallocate_nodeEPNS_16__hash_node_baseIPNS_11__hash_nodeISD_PvEEEE
FNA:6,40,_ZNSt3__112__hash_tableINS_17__hash_value_typeINS_12basic_stringIcNS_11char_traitsIcEENS_9allocatorIcEEEES7_EENS_22__unordered_map_hasherIS7_S8_NS_4hashIS7_EENS_8equal_toIS7_EELb1EEENS_21__unordered_map_equalIS7_S8_SD_SB_Lb1EEENS5_IS8_EEE17__deallocate_nodeEPNS_16__hash_node_baseIPNS_11__hash_nodeIS8_PvEEEE
FNL:7,129
FNA:7,4,_ZNSt3__111__hash_nodeINS_12basic_stringIcNS_11char_traitsIcEENS_9allocatorIcEEEEPvE11__get_valueB8ne200100Ev
FNA:7,120,_ZNSt3__111__hash_nodeINS_17__hash_value_typeINS_12basic_stringIcNS_11char_traitsIcEENS_9allocatorIcEEEEN3p2p5relay14BandwidthStatsEEEPvE11__get_valueB8ne200100Ev
FNA:7,120,_ZNSt3__111__hash_nodeINS_17__hash_value_typeINS_12basic_stringIcNS_11char_traitsIcEENS_9allocatorIcEEEEN3p2p5relay16BandwidthLimiter18AllocationLimitersEEEPvE11__get_valueB8ne200100Ev
FNA:7,128,_ZNSt3__111__hash_nodeINS_17__hash_value_typeINS_12basic_stringIcNS_11char_traitsIcEENS_9allocatorIcEEEENS_10shared_ptrIN3p2p5relay14TurnAllocationEEEEEPvE11__get_valueB8ne200100Ev
FNA:7,215,_ZNSt3__111__hash_nodeINS_17__hash_value_typeINS_12basic_stringIcNS_11char_traitsIcEENS_9allocatorIcEEEES7_EEPvE11__get_valueB8ne200100Ev
FNL:8,1314
FNA:8,1,_ZNSt3__112__hash_tableINS_17__hash_value_typeINS_12basic_stringIcNS_11char_traitsIcEENS_9allocatorIcEEEENS_10shared_ptrIN3p2p5relay14TurnAllocationEEEEENS_22__unordered_map_hasherIS7_SD_NS_4hashIS7_EENS_8equal_toIS7_EELb1EEENS_21__unordered_map_equalIS7_SD_SI_SG_Lb1EEENS5_ISD_EEE5beginEv
FNL:9,1320
FNA:9,0,_ZNSt3__112__hash_tableINS_12basic_stringIcNS_11char_traitsIcEENS_9allocatorIcEEEENS_4hashIS6_EENS_8equal_toIS6_EENS4_IS6_EEE3endEv
FNA:9,1,_ZNSt3__112__hash_tableINS_17__hash_value_typeINS_12basic_stringIcNS_11char_traitsIcEENS_9allocatorIcEEEEN3p2p5relay14BandwidthStatsEEENS_22__unordered_map_hasherIS7_SB_NS_4hashIS7_EENS_8equal_toIS7_EELb1EEENS_21__unordered_map_equalIS7_SB_SG_SE_Lb1EEENS5_ISB_EEE3endEv
FNA:9,1,_ZNSt3__112__hash_tableINS_17__hash_value_typeINS_12basic_stringIcNS_11char_traitsIcEENS_9allocatorIcEEEEN3p2p5relay16BandwidthLimiter18AllocationLimitersEEENS_22__unordered_map_hasherIS7_SC_NS_4hashIS7_EENS_8equal_toIS7_EELb1EEENS_21__unordered_map_equalIS7_SC_SH_SF_Lb1EEENS5_ISC_EEE3endEv
FNA:9,11,_ZNSt3__112__hash_tableINS_17__hash_value_typeINS_12basic_stringIcNS_11char_traitsIcEENS_9allocatorIcEEEENS_10shared_ptrIN3p2p5relay14TurnAllocationEEEEENS_22__unordered_map_hasherIS7_SD_NS_4hashIS7_EENS_8equal_toIS7_EELb1EEENS_21__unordered_map_equalIS7_SD_SI_SG_Lb1EEENS5_ISD_EEE3endEv
FNA:9,9,_ZNSt3__112__hash_tableINS_17__hash_value_typeINS_12basic_stringIcNS_11char_traitsIcEENS_9allocatorIcEEEES7_EENS_22__unordered_map_hasherIS7_S8_NS_4hashIS7_EENS_8equal_toIS7_EELb1EEENS_21__unordered_map_equalIS7_S8_SD_SB_Lb1EEENS5_IS8_EEE3endEv
FNL:10,1326
FNA:10,2,_ZNKSt3__112__hash_tableINS_17__hash_value_typeINS_12basic_stringIcNS_11char_traitsIcEENS_9allocatorIcEEEENS_10shared_ptrIN3p2p5relay14TurnAllocationEEEEENS_22__unordered_map_hasherIS7_SD_NS_4hashIS7_EENS_8equal_toIS7_EELb1EEENS_21__unordered_map_equalIS7_SD_SI_SG_Lb1EEENS5_ISD_EEE5beginEv
FNL:11,1332
FNA:11,98,_ZNKSt3__112__hash_tableINS_12basic_stringIcNS_11char_traitsIcEENS_9allocatorIcEEEENS_4hashIS6_EENS_8equal_toIS6_EENS4_IS6_EEE3endEv
FNA:11,1,_ZNKSt3__112__hash_tableINS_17__hash_value_typeINS_12basic_stringIcNS_11char_traitsIcEENS_9allocatorIcEEEEN3p2p5relay14BandwidthStatsEEENS_22__unordered_map_hasherIS7_SB_NS_4hashIS7_EENS_8equal_toIS7_EELb1EEENS_21__unordered_map_equalIS7_SB_SG_SE_Lb1EEENS5_ISB_EEE3endEv
FNA:11,2,_ZNKSt3__112__hash_tableINS_17__hash_value_typeINS_12basic_stringIcNS_11char_traitsIcEENS_9allocatorIcEEEENS_10shared_ptrIN3p2p5relay14TurnAllocationEEEEENS_22__unordered_map_hasherIS7_SD_NS_4hashIS7_EENS_8equal_toIS7_EELb1EEENS_21__unordered_map_equalIS7_SD_SI_SG_Lb1EEENS5_ISD_EEE3endEv
FNA:11,69,_ZNKSt3__112__hash_tableINS_17__hash_value_typeINS_12basic_stringIcNS_11char_traitsIcEENS_9allocatorIcEEEES7_EENS_22__unordered_map_hasherIS7_S8_NS_4hashIS7_EENS_8equal_toIS7_EELb1EEENS_21__unordered_map_equalIS7_S8_SD_SB_Lb1EEENS5_IS8_EEE3endEv
FNL:12,139
FNA:12,1,_ZNSt3__111__hash_nodeINS_12basic_stringIcNS_11char_traitsIcEENS_9allocatorIcEEEEPvEC1B8ne200100EPNS_16__hash_node_baseIPS8_EEm
FNA:12,1,_ZNSt3__111__hash_nodeINS_12basic_stringIcNS_11char_traitsIcEENS_9allocatorIcEEEEPvEC2B8ne200100EPNS_16__hash_node_baseIPS8_EEm
FNA:12,13,_ZNSt3__111__hash_nodeINS_17__hash_value_typeINS_12basic_stringIcNS_11char_traitsIcEENS_9allocatorIcEEEEN3p2p5relay14BandwidthStatsEEEPvEC1B8ne200100EPNS_16__hash_node_baseIPSD_EEm
FNA:12,13,_ZNSt3__111__hash_nodeINS_17__hash_value_typeINS_12basic_stringIcNS_11char_traitsIcEENS_9allocatorIcEEEEN3p2p5relay14BandwidthStatsEEEPvEC2B8ne200100EPNS_16__hash_node_baseIPSD_EEm
FNA:12,13,_ZNSt3__111__hash_nodeINS_17__hash_value_typeINS_12basic_stringIcNS_11char_traitsIcEENS_9allocatorIcEEEEN3p2p5relay16BandwidthLimiter18AllocationLimitersEEEPvEC1B8ne200100EPNS_16__hash_node_baseIPSE_EEm
FNA:12,13,_ZNSt3__111__hash_nodeINS_17__hash_value_typeINS_12basic_stringIcNS_11char_traitsIcEENS_9allocatorIcEEEEN3p2p5relay16BandwidthLimiter18AllocationLimitersEEEPvEC2B8ne200100EPNS_16__hash_node_baseIPSE_EEm
FNA:12,34,_ZNSt3__111__hash_nodeINS_17__hash_value_typeINS_12basic_stringIcNS_11char_traitsIcEENS_9allocatorIcEEEENS_10shared_ptrIN3p2p5relay14TurnAllocationEEEEEPvEC1B8ne200100EPNS_16__hash_node_baseIPSF_EEm
FNA:12,34,_ZNSt3__111__hash_nodeINS_17__hash_value_typeINS_12basic_stringIcNS_11char_traitsIcEENS_9allocatorIcEEEENS_10shared_ptrIN3p2p5relay14TurnAllocationEEEEEPvEC2B8ne200100EPNS_16__hash_node_baseIPSF_EEm
FNA:12,68,_ZNSt3__111__hash_nodeINS_17__hash_value_typeINS_12basic_stringIcNS_11char_traitsIcEENS_9allocatorIcEEEES7_EEPvEC1B8ne200100EPNS_16__hash_node_baseIPSA_EEm
FNA:12,68,_ZNSt3__111__hash_nodeINS_17__hash_value_typeINS_12basic_stringIcNS_11char_traitsIcEENS_9allocatorIcEEEES7_EEPvEC2B8ne200100EPNS_16__hash_node_baseIPSA_EEm
FNL:13,140
FNA:13,1,_ZNSt3__111__hash_nodeINS_12basic_stringIcNS_11char_traitsIcEENS_9allocatorIcEEEEPvED1B8ne200100Ev
FNA:13,1,_ZNSt3__111__hash_nodeINS_12basic_stringIcNS_11char_traitsIcEENS_9allocatorIcEEEEPvED2B8ne200100Ev
FNA:13,13,_ZNSt3__111__hash_nodeINS_17__hash_value_typeINS_12basic_stringIcNS_11char_traitsIcEENS_9allocatorIcEEEEN3p2p5relay14BandwidthStatsEEEPvED1B8ne200100Ev
FNA:13,13,_ZNSt3__111__hash_nodeINS_17__hash_value_typeINS_12basic_stringIcNS_11char_traitsIcEENS_9allocatorIcEEEEN3p2p5relay14BandwidthStatsEEEPvED2B8ne200100Ev
FNA:13,13,_ZNSt3__111__hash_nodeINS_17__hash_value_typeINS_12basic_stringIcNS_11char_traitsIcEENS_9allocatorIcEEEEN3p2p5relay16BandwidthLimiter18AllocationLimitersEEEPvED1B8ne200100Ev
FNA:13,13,_ZNSt3__111__hash_nodeINS_17__hash_value_typeINS_12basic_stringIcNS_11char_traitsIcEENS_9allocatorIcEEEEN3p2p5relay16BandwidthLimiter18AllocationLimitersEEEPvED2B8ne200100Ev
FNA:13,34,_ZNSt3__111__hash_nodeINS_17__hash_value_typeINS_12basic_stringIcNS_11char_traitsIcEENS_9allocatorIcEEEENS_10shared_ptrIN3p2p5relay14TurnAllocationEEEEEPvED1B8ne200100Ev
FNA:13,34,_ZNSt3__111__hash_nodeINS_17__hash_value_typeINS_12basic_stringIcNS_11char_traitsIcEENS_9allocatorIcEEEENS_10shared_ptrIN3p2p5relay14TurnAllocationEEEEEPvED2B8ne200100Ev
FNA:13,68,_ZNSt3__111__hash_nodeINS_17__hash_value_typeINS_12basic_stringIcNS_11char_traitsIcEENS_9allocatorIcEEEES7_EEPvED1B8ne200100Ev
FNA:13,68,_ZNSt3__111__hash_nodeINS_17__hash_value_typeINS_12basic_stringIcNS_11char_traitsIcEENS_9allocatorIcEEEES7_EEPvED2B8ne200100Ev
FNL:14,143
FNA:14,85,_ZNSt3__116__is_hash_power2B8ne200100Em
FNL:15,145
FNA:15,467,_ZNSt3__116__constrain_hashB8ne200100Emm
FNL:16,149
FNA:16,0,_ZNSt3__116__next_hash_pow2B8ne200100Em
FNL:17,1528
FNA:17,2,_ZNSt3__112__hash_tableINS_12basic_stringIcNS_11char_traitsIcEENS_9allocatorIcEEEENS_4hashIS6_EENS_8equal_toIS6_EENS4_IS6_EEE25__emplace_unique_key_argsIS6_JS6_EEENS_4pairINS_15__hash_iteratorIPNS_11__hash_nodeIS6_PvEEEEbEERKT_DpOT0_
FNA:17,52,_ZNSt3__112__hash_tableINS_17__hash_value_typeINS_12basic_stringIcNS_11char_traitsIcEENS_9allocatorIcEEEEN3p2p5relay14BandwidthStatsEEENS_22__unordered_map_hasherIS7_SB_NS_4hashIS7_EENS_8equal_toIS7_EELb1EEENS_21__unordered_map_equalIS7_SB_SG_SE_Lb1EEENS5_ISB_EEE25__emplace_unique_key_argsIS7_JRKNS_21piecewise_construct_tENS_5tupleIJRKS7_EEENSQ_IJEEEEEENS_4pairINS_15__hash_iteratorIPNS_11__hash_nodeISB_PvEEEEbEERKT_DpOT0_
FNA:17,53,_ZNSt3__112__hash_tableINS_17__hash_value_typeINS_12basic_stringIcNS_11char_traitsIcEENS_9allocatorIcEEEEN3p2p5relay16BandwidthLimiter18AllocationLimitersEEENS_22__unordered_map_hasherIS7_SC_NS_4hashIS7_EENS_8equal_toIS7_EELb1EEENS_21__unordered_map_equalIS7_SC_SH_SF_Lb1EEENS5_ISC_EEE25__emplace_unique_key_argsIS7_JRKNS_21piecewise_construct_tENS_5tupleIJRKS7_EEENSR_IJEEEEEENS_4pairINS_15__hash_iteratorIPNS_11__hash_nodeISC_PvEEEEbEERKT_DpOT0_
FNA:17,37,_ZNSt3__112__hash_tableINS_17__hash_value_typeINS_12basic_stringIcNS_11char_traitsIcEENS_9allocatorIcEEEENS_10shared_ptrIN3p2p5relay14TurnAllocationEEEEENS_22__unordered_map_hasherIS7_SD_NS_4hashIS7_EENS_8equal_toIS7_EELb1EEENS_21__unordered_map_equalIS7_SD_SI_SG_Lb1EEENS5_ISD_EEE25__emplace_unique_key_argsIS7_JRKNS_21piecewise_construct_tENS_5tupleIJRKS7_EEENSS_IJEEEEEENS_4pairINS_15__hash_iteratorIPNS_11__hash_nodeISD_PvEEEEbEERKT_DpOT0_
FNA:17,68,_ZNSt3__112__hash_tableINS_17__hash_value_typeINS_12basic_stringIcNS_11char_traitsIcEENS_9allocatorIcEEEES7_EENS_22__unordered_map_hasherIS7_S8_NS_4hashIS7_EENS_8equal_toIS7_EELb1EEENS_21__unordered_map_equalIS7_S8_SD_SB_Lb1EEENS5_IS8_EEE25__emplace_unique_key_argsIS7_JRKNS_21piecewise_construct_tENS_5tupleIJOS7_EEENSN_IJEEEEEENS_4pairINS_15__hash_iteratorIPNS_11__hash_nodeIS8_PvEEEEbEERKT_DpOT0_
FNL:18,1708
FNA:18,1,_ZNSt3__112__hash_tableINS_12basic_stringIcNS_11char_traitsIcEENS_9allocatorIcEEEENS_4hashIS6_EENS_8equal_toIS6_EENS4_IS6_EEE8__rehashILb1EEEvm
FNA:18,9,_ZNSt3__112__hash_tableINS_17__hash_value_typeINS_12basic_stringIcNS_11char_traitsIcEENS_9allocatorIcEEEEN3p2p5relay14BandwidthStatsEEENS_22__unordered_map_hasherIS7_SB_NS_4hashIS7_EENS_8equal_toIS7_EELb1EEENS_21__unordered_map_equalIS7_SB_SG_SE_Lb1EEENS5_ISB_EEE8__rehashILb1EEEvm
FNA:18,9,_ZNSt3__112__hash_tableINS_17__hash_value_typeINS_12basic_stringIcNS_11char_traitsIcEENS_9allocatorIcEEEEN3p2p5relay16BandwidthLimiter18AllocationLimitersEEENS_22__unordered_map_hasherIS7_SC_NS_4hashIS7_EENS_8equal_toIS7_EELb1EEENS_21__unordered_map_equalIS7_SC_SH_SF_Lb1EEENS5_ISC_EEE8__rehashILb1EEEvm
FNA:18,22,_ZNSt3__112__hash_tableINS_17__hash_value_typeINS_12basic_stringIcNS_11char_traitsIcEENS_9allocatorIcEEEENS_10shared_ptrIN3p2p5relay14TurnAllocationEEEEENS_22__unordered_map_hasherIS7_SD_NS_4hashIS7_EENS_8equal_toIS7_EELb1EEENS_21__unordered_map_equalIS7_SD_SI_SG_Lb1EEENS5_ISD_EEE8__rehashILb1EEEvm
FNA:18,44,_ZNSt3__112__hash_tableINS_17__hash_value_typeINS_12basic_stringIcNS_11char_traitsIcEENS_9allocatorIcEEEES7_EENS_22__unordered_map_hasherIS7_S8_NS_4hashIS7_EENS_8equal_toIS7_EELb1EEENS_21__unordered_map_equalIS7_S8_SD_SB_Lb1EEENS5_IS8_EEE8__rehashILb1EEEvm
FNL:19,1728
FNA:19,1,_ZNSt3__112__hash_tableINS_12basic_stringIcNS_11char_traitsIcEENS_9allocatorIcEEEENS_4hashIS6_EENS_8equal_toIS6_EENS4_IS6_EEE11__do_rehashILb1EEEvm
FNA:19,9,_ZNSt3__112__hash_tableINS_17__hash_value_typeINS_12basic_stringIcNS_11char_traitsIcEENS_9allocatorIcEEEEN3p2p5relay14BandwidthStatsEEENS_22__unordered_map_hasherIS7_SB_NS_4hashIS7_EENS_8equal_toIS7_EELb1EEENS_21__unordered_map_equalIS7_SB_SG_SE_Lb1EEENS5_ISB_EEE11__do_rehashILb1EEEvm
FNA:19,9,_ZNSt3__112__hash_tableINS_17__hash_value_typeINS_12basic_stringIcNS_11char_traitsIcEENS_9allocatorIcEEEEN3p2p5relay16BandwidthLimiter18AllocationLimitersEEENS_22__unordered_map_hasherIS7_SC_NS_4hashIS7_EENS_8equal_toIS7_EELb1EEENS_21__unordered_map_equalIS7_SC_SH_SF_Lb1EEENS5_ISC_EEE11__do_rehashILb1EEEvm
FNA:19,22,_ZNSt3__112__hash_tableINS_17__hash_value_typeINS_12basic_stringIcNS_11char_traitsIcEENS_9allocatorIcEEEENS_10shared_ptrIN3p2p5relay14TurnAllocationEEEEENS_22__unordered_map_hasherIS7_SD_NS_4hashIS7_EENS_8equal_toIS7_EELb1EEENS_21__unordered_map_equalIS7_SD_SI_SG_Lb1EEENS5_ISD_EEE11__do_rehashILb1EEEvm
FNA:19,44,_ZNSt3__112__hash_tableINS_17__hash_value_typeINS_12basic_stringIcNS_11char_traitsIcEENS_9allocatorIcEEEES7_EENS_22__unordered_map_hasherIS7_S8_NS_4hashIS7_EENS_8equal_toIS7_EELb1EEENS_21__unordered_map_equalIS7_S8_SD_SB_Lb1EEENS5_IS8_EEE11__do_rehashILb1EEEvm
FNL:20,177
FNA:20,2,_ZNSt3__122__hash_key_value_typesINS_12basic_stringIcNS_11char_traitsIcEENS_9allocatorIcEEEEE9__get_keyB8ne200100ERKS6_
FNL:21,1771
FNA:21,0,_ZNSt3__112__hash_tableINS_12basic_stringIcNS_11char_traitsIcEENS_9allocatorIcEEEENS_4hashIS6_EENS_8equal_toIS6_EENS4_IS6_EEE4findIS6_EENS_15__hash_iteratorIPNS_11__hash_nodeIS6_PvEEEERKT_
FNA:21,1,_ZNSt3__112__hash_tableINS_17__hash_value_typeINS_12basic_stringIcNS_11char_traitsIcEENS_9allocatorIcEEEEN3p2p5relay14BandwidthStatsEEENS_22__unordered_map_hasherIS7_SB_NS_4hashIS7_EENS_8equal_toIS7_EELb1EEENS_21__unordered_map_equalIS7_SB_SG_SE_Lb1EEENS5_ISB_EEE4findIS7_EENS_15__hash_iteratorIPNS_11__hash_nodeISB_PvEEEERKT_
FNA:21,1,_ZNSt3__112__hash_tableINS_17__hash_value_typeINS_12basic_stringIcNS_11char_traitsIcEENS_9allocatorIcEEEEN3p2p5relay16BandwidthLimiter18AllocationLimitersEEENS_22__unordered_map_hasherIS7_SC_NS_4hashIS7_EENS_8equal_toIS7_EELb1EEENS_21__unordered_map_equalIS7_SC_SH_SF_Lb1EEENS5_ISC_EEE4findIS7_EENS_15__hash_iteratorIPNS_11__hash_nodeISC_PvEEEERKT_
FNA:21,9,_ZNSt3__112__hash_tableINS_17__hash_value_typeINS_12basic_stringIcNS_11char_traitsIcEENS_9allocatorIcEEEENS_10shared_ptrIN3p2p5relay14TurnAllocationEEEEENS_22__unordered_map_hasherIS7_SD_NS_4hashIS7_EENS_8equal_toIS7_EELb1EEENS_21__unordered_map_equalIS7_SD_SI_SG_Lb1EEENS5_ISD_EEE4findIS7_EENS_15__hash_iteratorIPNS_11__hash_nodeISD_PvEEEERKT_
FNA:21,8,_ZNSt3__112__hash_tableINS_17__hash_value_typeINS_12basic_stringIcNS_11char_traitsIcEENS_9allocatorIcEEEES7_EENS_22__unordered_map_hasherIS7_S8_NS_4hashIS7_EENS_8equal_toIS7_EELb1EEENS_21__unordered_map_equalIS7_S8_SD_SB_Lb1EEENS5_IS8_EEE4findIS7_EENS_15__hash_iteratorIPNS_11__hash_nodeIS8_PvEEEERKT_
FNL:22,179
FNA:22,2,_ZNSt3__122__hash_key_value_typesINS_12basic_stringIcNS_11char_traitsIcEENS_9allocatorIcEEEEE9__get_ptrB8ne200100ERS6_
FNL:23,1792
FNA:23,97,_ZNKSt3__112__hash_tableINS_12basic_stringIcNS_11char_traitsIcEENS_9allocatorIcEEEENS_4hashIS6_EENS_8equal_toIS6_EENS4_IS6_EEE4findIS6_EENS_21__hash_const_iteratorIPNS_11__hash_nodeIS6_PvEEEERKT_
FNA:23,1,_ZNKSt3__112__hash_tableINS_17__hash_value_typeINS_12basic_stringIcNS_11char_traitsIcEENS_9allocatorIcEEEEN3p2p5relay14BandwidthStatsEEENS_22__unordered_map_hasherIS7_SB_NS_4hashIS7_EENS_8equal_toIS7_EELb1EEENS_21__unordered_map_equalIS7_SB_SG_SE_Lb1EEENS5_ISB_EEE4findIS7_EENS_21__hash_const_iteratorIPNS_11__hash_nodeISB_PvEEEERKT_
FNA:23,35,_ZNKSt3__112__hash_tableINS_17__hash_value_typeINS_12basic_stringIcNS_11char_traitsIcEENS_9allocatorIcEEEES7_EENS_22__unordered_map_hasherIS7_S8_NS_4hashIS7_EENS_8equal_toIS7_EELb1EEENS_21__unordered_map_equalIS7_S8_SD_SB_Lb1EEENS5_IS8_EEE4findIS7_EENS_21__hash_const_iteratorIPNS_11__hash_nodeIS8_PvEEEERKT_
FNL:24,1837
FNA:24,1,_ZNSt3__112__hash_tableINS_12basic_stringIcNS_11char_traitsIcEENS_9allocatorIcEEEENS_4hashIS6_EENS_8equal_toIS6_EENS4_IS6_EEE21__construct_node_hashIS6_JEEENS_10unique_ptrINS_11__hash_nodeIS6_PvEENS_22__hash_node_destructorINS4_ISH_EEEEEEmOT_DpOT0_
FNA:24,13,_ZNSt3__112__hash_tableINS_17__hash_value_typeINS_12basic_stringIcNS_11char_traitsIcEENS_9allocatorIcEEEEN3p2p5relay14BandwidthStatsEEENS_22__unordered_map_hasherIS7_SB_NS_4hashIS7_EENS_8equal_toIS7_EELb1EEENS_21__unordered_map_equalIS7_SB_SG_SE_Lb1EEENS5_ISB_EEE21__construct_node_hashIRKNS_21piecewise_construct_tEJNS_5tupleIJRKS7_EEENSQ_IJEEEEEENS_10unique_ptrINS_11__hash_nodeISB_PvEENS_22__hash_node_destructorINS5_ISY_EEEEEEmOT_DpOT0_
FNA:24,13,_ZNSt3__112__hash_tableINS_17__hash_value_typeINS_12basic_stringIcNS_11char_traitsIcEENS_9allocatorIcEEEEN3p2p5relay16BandwidthLimiter18AllocationLimitersEEENS_22__unordered_map_hasherIS7_SC_NS_4hashIS7_EENS_8equal_toIS7_EELb1EEENS_21__unordered_map_equalIS7_SC_SH_SF_Lb1EEENS5_ISC_EEE21__construct_node_hashIRKNS_21piecewise_construct_tEJNS_5tupleIJRKS7_EEENSR_IJEEEEEENS_10unique_ptrINS_11__hash_nodeISC_PvEENS_22__hash_node_destructorINS5_ISZ_EEEEEEmOT_DpOT0_
FNA:24,34,_ZNSt3__112__hash_tableINS_17__hash_value_typeINS_12basic_stringIcNS_11char_traitsIcEENS_9allocatorIcEEEENS_10shared_ptrIN3p2p5relay14TurnAllocationEEEEENS_22__unordered_map_hasherIS7_SD_NS_4hashIS7_EENS_8equal_toIS7_EELb1EEENS_21__unordered_map_equalIS7_SD_SI_SG_Lb1EEENS5_ISD_EEE21__construct_node_hashIRKNS_21piecewise_construct_tEJNS_5tupleIJRKS7_EEENSS_IJEEEEEENS_10unique_ptrINS_11__hash_nodeISD_PvEENS_22__hash_node_destructorINS5_IS10_EEEEEEmOT_DpOT0_
FNA:24,68,_ZNSt3__112__hash_tableINS_17__hash_value_typeINS_12basic_stringIcNS_11char_traitsIcEENS_9allocatorIcEEEES7_EENS_22__unordered_map_hasherIS7_S8_NS_4hashIS7_EENS_8equal_toIS7_EELb1EEENS_21__unordered_map_equalIS7_S8_SD_SB_Lb1EEENS5_IS8_EEE21__construct_node_hashIRKNS_21piecewise_construct_tEJNS_5tupleIJOS7_EEENSN_IJEEEEEENS_10unique_ptrINS_11__hash_nodeIS8_PvEENS_22__hash_node_destructorINS5_ISU_EEEEEEmOT_DpOT0_
FNL:25,1850
FNA:25,0,_ZNSt3__112__hash_tableINS_12basic_stringIcNS_11char_traitsIcEENS_9allocatorIcEEEENS_4hashIS6_EENS_8equal_toIS6_EENS4_IS6_EEE5eraseENS_21__hash_const_iteratorIPNS_11__hash_nodeIS6_PvEEEE
FNA:25,1,_ZNSt3__112__hash_tableINS_17__hash_value_typeINS_12basic_stringIcNS_11char_traitsIcEENS_9allocatorIcEEEEN3p2p5relay14BandwidthStatsEEENS_22__unordered_map_hasherIS7_SB_NS_4hashIS7_EENS_8equal_toIS7_EELb1EEENS_21__unordered_map_equalIS7_SB_SG_SE_Lb1EEENS5_ISB_EEE5eraseENS_21__hash_const_iteratorIPNS_11__hash_nodeISB_PvEEEE
FNA:25,1,_ZNSt3__112__hash_tableINS_17__hash_value_typeINS_12basic_stringIcNS_11char_traitsIcEENS_9allocatorIcEEEEN3p2p5relay16BandwidthLimiter18AllocationLimitersEEENS_22__unordered_map_hasherIS7_SC_NS_4hashIS7_EENS_8equal_toIS7_EELb1EEENS_21__unordered_map_equalIS7_SC_SH_SF_Lb1EEENS5_ISC_EEE5eraseENS_21__hash_const_iteratorIPNS_11__hash_nodeISC_PvEEEE
FNA:25,2,_ZNSt3__112__hash_tableINS_17__hash_value_typeINS_12basic_stringIcNS_11char_traitsIcEENS_9allocatorIcEEEENS_10shared_ptrIN3p2p5relay14TurnAllocationEEEEENS_22__unordered_map_hasherIS7_SD_NS_4hashIS7_EENS_8equal_toIS7_EELb1EEENS_21__unordered_map_equalIS7_SD_SI_SG_Lb1EEENS5_ISD_EEE5eraseENS_21__hash_const_iteratorIPNS_11__hash_nodeISD_PvEEEE
FNA:25,4,_ZNSt3__112__hash_tableINS_17__hash_value_typeINS_12basic_stringIcNS_11char_traitsIcEENS_9allocatorIcEEEES7_EENS_22__unordered_map_hasherIS7_S8_NS_4hashIS7_EENS_8equal_toIS7_EELb1EEENS_21__unordered_map_equalIS7_S8_SD_SB_Lb1EEENS5_IS8_EEE5eraseENS_21__hash_const_iteratorIPNS_11__hash_nodeIS8_PvEEEE
FNL:26,1874
FNA:26,0,_ZNSt3__112__hash_tableINS_12basic_stringIcNS_11char_traitsIcEENS_9allocatorIcEEEENS_4hashIS6_EENS_8equal_toIS6_EENS4_IS6_EEE14__erase_uniqueIS6_EEmRKT_
FNA:26,1,_ZNSt3__112__hash_tableINS_17__hash_value_typeINS_12basic_stringIcNS_11char_traitsIcEENS_9allocatorIcEEEEN3p2p5relay14BandwidthStatsEEENS_22__unordered_map_hasherIS7_SB_NS_4hashIS7_EENS_8equal_toIS7_EELb1EEENS_21__unordered_map_equalIS7_SB_SG_SE_Lb1EEENS5_ISB_EEE14__erase_uniqueIS7_EEmRKT_
FNA:26,1,_ZNSt3__112__hash_tableINS_17__hash_value_typeINS_12basic_stringIcNS_11char_traitsIcEENS_9allocatorIcEEEEN3p2p5relay16BandwidthLimiter18AllocationLimitersEEENS_22__unordered_map_hasherIS7_SC_NS_4hashIS7_EENS_8equal_toIS7_EELb1EEENS_21__unordered_map_equalIS7_SC_SH_SF_Lb1EEENS5_ISC_EEE14__erase_uniqueIS7_EEmRKT_
FNA:26,2,_ZNSt3__112__hash_tableINS_17__hash_value_typeINS_12basic_stringIcNS_11char_traitsIcEENS_9allocatorIcEEEENS_10shared_ptrIN3p2p5relay14TurnAllocationEEEEENS_22__unordered_map_hasherIS7_SD_NS_4hashIS7_EENS_8equal_toIS7_EELb1EEENS_21__unordered_map_equalIS7_SD_SI_SG_Lb1EEENS5_ISD_EEE14__erase_uniqueIS7_EEmRKT_
FNA:26,4,_ZNSt3__112__hash_tableINS_17__hash_value_typeINS_12basic_stringIcNS_11char_traitsIcEENS_9allocatorIcEEEES7_EENS_22__unordered_map_hasherIS7_S8_NS_4hashIS7_EENS_8equal_toIS7_EELb1EEENS_21__unordered_map_equalIS7_S8_SD_SB_Lb1EEENS5_IS8_EEE14__erase_uniqueIS7_EEmRKT_
FNL:27,1900
FNA:27,0,_ZNSt3__112__hash_tableINS_12basic_stringIcNS_11char_traitsIcEENS_9allocatorIcEEEENS_4hashIS6_EENS_8equal_toIS6_EENS4_IS6_EEE6removeENS_21__hash_const_iteratorIPNS_11__hash_nodeIS6_PvEEEE
FNA:27,1,_ZNSt3__112__hash_tableINS_17__hash_value_typeINS_12basic_stringIcNS_11char_traitsIcEENS_9allocatorIcEEEEN3p2p5relay14BandwidthStatsEEENS_22__unordered_map_hasherIS7_SB_NS_4hashIS7_EENS_8equal_toIS7_EELb1EEENS_21__unordered_map_equalIS7_SB_SG_SE_Lb1EEENS5_ISB_EEE6removeENS_21__hash_const_iteratorIPNS_11__hash_nodeISB_PvEEEE
FNA:27,1,_ZNSt3__112__hash_tableINS_17__hash_value_typeINS_12basic_stringIcNS_11char_traitsIcEENS_9allocatorIcEEEEN3p2p5relay16BandwidthLimiter18AllocationLimitersEEENS_22__unordered_map_hasherIS7_SC_NS_4hashIS7_EENS_8equal_toIS7_EELb1EEENS_21__unordered_map_equalIS7_SC_SH_SF_Lb1EEENS5_ISC_EEE6removeENS_21__hash_const_iteratorIPNS_11__hash_nodeISC_PvEEEE
FNA:27,2,_ZNSt3__112__hash_tableINS_17__hash_value_typeINS_12basic_stringIcNS_11char_traitsIcEENS_9allocatorIcEEEENS_10shared_ptrIN3p2p5relay14TurnAllocationEEEEENS_22__unordered_map_hasherIS7_SD_NS_4hashIS7_EENS_8equal_toIS7_EELb1EEENS_21__unordered_map_equalIS7_SD_SI_SG_Lb1EEENS5_ISD_EEE6removeENS_21__hash_const_iteratorIPNS_11__hash_nodeISD_PvEEEE
FNA:27,4,_ZNSt3__112__hash_tableINS_17__hash_value_typeINS_12basic_stringIcNS_11char_traitsIcEENS_9allocatorIcEEEES7_EENS_22__unordered_map_hasherIS7_S8_NS_4hashIS7_EENS_8equal_toIS7_EELb1EEENS_21__unordered_map_equalIS7_S8_SD_SB_Lb1EEENS5_IS8_EEE6removeENS_21__hash_const_iteratorIPNS_11__hash_nodeIS8_PvEEEE
FNL:28,1932
FNA:28,2,_ZNKSt3__112__hash_tableINS_12basic_stringIcNS_11char_traitsIcEENS_9allocatorIcEEEENS_4hashIS6_EENS_8equal_toIS6_EENS4_IS6_EEE14__count_uniqueIS6_EEmRKT_
FNA:28,35,_ZNKSt3__112__hash_tableINS_17__hash_value_typeINS_12basic_stringIcNS_11char_traitsIcEENS_9allocatorIcEEEES7_EENS_22__unordered_map_hasherIS7_S8_NS_4hashIS7_EENS_8equal_toIS7_EELb1EEENS_21__unordered_map_equalIS7_S8_SD_SB_Lb1EEENS5_IS8_EEE14__count_uniqueIS7_EEmRKT_
FNL:29,204
FNA:29,26,_ZNSt3__122__hash_key_value_typesINS_17__hash_value_typeINS_12basic_stringIcNS_11char_traitsIcEENS_9allocatorIcEEEEN3p2p5relay14BandwidthStatsEEEE9__get_ptrB8ne200100ERSB_
FNA:29,26,_ZNSt3__122__hash_key_value_typesINS_17__hash_value_typeINS_12basic_stringIcNS_11char_traitsIcEENS_9allocatorIcEEEEN3p2p5relay16BandwidthLimiter18AllocationLimitersEEEE9__get_ptrB8ne200100ERSC_
FNA:29,68,_ZNSt3__122__hash_key_value_typesINS_17__hash_value_typeINS_12basic_stringIcNS_11char_traitsIcEENS_9allocatorIcEEEENS_10shared_ptrIN3p2p5relay14TurnAllocationEEEEEE9__get_ptrB8ne200100ERSD_
FNA:29,136,_ZNSt3__122__hash_key_value_typesINS_17__hash_value_typeINS_12basic_stringIcNS_11char_traitsIcEENS_9allocatorIcEEEES7_EEE9__get_ptrB8ne200100ERS8_
FNL:30,298
FNA:30,52,_ZNKSt3__115__hash_iteratorIPNS_11__hash_nodeINS_17__hash_value_typeINS_12basic_stringIcNS_11char_traitsIcEENS_9allocatorIcEEEEN3p2p5relay14BandwidthStatsEEEPvEEEptB8ne200100Ev
FNA:30,53,_ZNKSt3__115__hash_iteratorIPNS_11__hash_nodeINS_17__hash_value_typeINS_12basic_stringIcNS_11char_traitsIcEENS_9allocatorIcEEEEN3p2p5relay16BandwidthLimiter18AllocationLimitersEEEPvEEEptB8ne200100Ev
FNA:30,45,_ZNKSt3__115__hash_iteratorIPNS_11__hash_nodeINS_17__hash_value_typeINS_12basic_stringIcNS_11char_traitsIcEENS_9allocatorIcEEEENS_10shared_ptrIN3p2p5relay14TurnAllocationEEEEEPvEEEptB8ne200100Ev
FNA:30,71,_ZNKSt3__115__hash_iteratorIPNS_11__hash_nodeINS_17__hash_value_typeINS_12basic_stringIcNS_11char_traitsIcEENS_9allocatorIcEEEES8_EEPvEEEptB8ne200100Ev
FNL:31,304
FNA:31,0,_ZNSt3__115__hash_iteratorIPNS_11__hash_nodeINS_12basic_stringIcNS_11char_traitsIcEENS_9allocatorIcEEEEPvEEEppB8ne200100Ev
FNA:31,1,_ZNSt3__115__hash_iteratorIPNS_11__hash_nodeINS_17__hash_value_typeINS_12basic_stringIcNS_11char_traitsIcEENS_9allocatorIcEEEEN3p2p5relay14BandwidthStatsEEEPvEEEppB8ne200100Ev
FNA:31,1,_ZNSt3__115__hash_iteratorIPNS_11__hash_nodeINS_17__hash_value_typeINS_12basic_stringIcNS_11char_traitsIcEENS_9allocatorIcEEEEN3p2p5relay16BandwidthLimiter18AllocationLimitersEEEPvEEEppB8ne200100Ev
FNA:31,4,_ZNSt3__115__hash_iteratorIPNS_11__hash_nodeINS_17__hash_value_typeINS_12basic_stringIcNS_11char_traitsIcEENS_9allocatorIcEEEENS_10shared_ptrIN3p2p5relay14TurnAllocationEEEEEPvEEEppB8ne200100Ev
FNA:31,4,_ZNSt3__115__hash_iteratorIPNS_11__hash_nodeINS_17__hash_value_typeINS_12basic_stringIcNS_11char_traitsIcEENS_9allocatorIcEEEES8_EEPvEEEppB8ne200100Ev
FNL:32,317
FNA:32,0,_ZNSt3__1eqB8ne200100ERKNS_15__hash_iteratorIPNS_11__hash_nodeINS_12basic_stringIcNS_11char_traitsIcEENS_9allocatorIcEEEEPvEEEESD_
FNA:32,1,_ZNSt3__1eqB8ne200100ERKNS_15__hash_iteratorIPNS_11__hash_nodeINS_17__hash_value_typeINS_12basic_stringIcNS_11char_traitsIcEENS_9allocatorIcEEEEN3p2p5relay14BandwidthStatsEEEPvEEEESI_
FNA:32,1,_ZNSt3__1eqB8ne200100ERKNS_15__hash_iteratorIPNS_11__hash_nodeINS_17__hash_value_typeINS_12basic_stringIcNS_11char_traitsIcEENS_9allocatorIcEEEEN3p2p5relay16BandwidthLimiter18AllocationLimitersEEEPvEEEESJ_
FNA:32,12,_ZNSt3__1eqB8ne200100ERKNS_15__hash_iteratorIPNS_11__hash_nodeINS_17__hash_value_typeINS_12basic_stringIcNS_11char_traitsIcEENS_9allocatorIcEEEENS_10shared_ptrIN3p2p5relay14TurnAllocationEEEEEPvEEEESK_
FNA:32,8,_ZNSt3__1eqB8ne200100ERKNS_15__hash_iteratorIPNS_11__hash_nodeINS_17__hash_value_typeINS_12basic_stringIcNS_11char_traitsIcEENS_9allocatorIcEEEES8_EEPvEEEESF_
FNL:33,325
FNA:33,2,_ZNSt3__115__hash_iteratorIPNS_11__hash_nodeINS_12basic_stringIcNS_11char_traitsIcEENS_9allocatorIcEEEEPvEEEC1B8ne200100EPNS_16__hash_node_baseISA_EE
FNA:33,2,_ZNSt3__115__hash_iteratorIPNS_11__hash_nodeINS_12basic_stringIcNS_11char_traitsIcEENS_9allocatorIcEEEEPvEEEC2B8ne200100EPNS_16__hash_node_baseISA_EE
FNA:33,55,_ZNSt3__115__hash_iteratorIPNS_11__hash_nodeINS_17__hash_value_typeINS_12basic_stringIcNS_11char_traitsIcEENS_9allocatorIcEEEEN3p2p5relay14BandwidthStatsEEEPvEEEC1B8ne200100EPNS_16__hash_node_baseISF_EE
FNA:33,55,_ZNSt3__115__hash_iteratorIPNS_11__hash_nodeINS_17__hash_value_typeINS_12basic_stringIcNS_11char_traitsIcEENS_9allocatorIcEEEEN3p2p5relay14BandwidthStatsEEEPvEEEC2B8ne200100EPNS_16__hash_node_baseISF_EE
FNA:33,56,_ZNSt3__115__hash_iteratorIPNS_11__hash_nodeINS_17__hash_value_typeINS_12basic_stringIcNS_11char_traitsIcEENS_9allocatorIcEEEEN3p2p5relay16BandwidthLimiter18AllocationLimitersEEEPvEEEC1B8ne200100EPNS_16__hash_node_baseISG_EE
FNA:33,56,_ZNSt3__115__hash_iteratorIPNS_11__hash_nodeINS_17__hash_value_typeINS_12basic_stringIcNS_11char_traitsIcEENS_9allocatorIcEEEEN3p2p5relay16BandwidthLimiter18AllocationLimitersEEEPvEEEC2B8ne200100EPNS_16__hash_node_baseISG_EE
FNA:33,59,_ZNSt3__115__hash_iteratorIPNS_11__hash_nodeINS_17__hash_value_typeINS_12basic_stringIcNS_11char_traitsIcEENS_9allocatorIcEEEENS_10shared_ptrIN3p2p5relay14TurnAllocationEEEEEPvEEEC1B8ne200100EPNS_16__hash_node_baseISH_EE
FNA:33,59,_ZNSt3__115__hash_iteratorIPNS_11__hash_nodeINS_17__hash_value_typeINS_12basic_stringIcNS_11char_traitsIcEENS_9allocatorIcEEEENS_10shared_ptrIN3p2p5relay14TurnAllocationEEEEEPvEEEC2B8ne200100EPNS_16__hash_node_baseISH_EE
FNA:33,88,_ZNSt3__115__hash_iteratorIPNS_11__hash_nodeINS_17__hash_value_typeINS_12basic_stringIcNS_11char_traitsIcEENS_9allocatorIcEEEES8_EEPvEEEC1B8ne200100EPNS_16__hash_node_baseISC_EE
FNA:33,88,_ZNSt3__115__hash_iteratorIPNS_11__hash_nodeINS_17__hash_value_typeINS_12basic_stringIcNS_11char_traitsIcEENS_9allocatorIcEEEES8_EEPvEEEC2B8ne200100EPNS_16__hash_node_baseISC_EE
FNL:34,359
FNA:34,2,_ZNSt3__121__hash_const_iteratorIPNS_11__hash_nodeINS_12basic_stringIcNS_11char_traitsIcEENS_9allocatorIcEEEEPvEEEC1B8ne200100ERKNS_15__hash_iteratorISA_EE
FNA:34,2,_ZNSt3__121__hash_const_iteratorIPNS_11__hash_nodeINS_12basic_stringIcNS_11char_traitsIcEENS_9allocatorIcEEEEPvEEEC2B8ne200100ERKNS_15__hash_iteratorISA_EE
FNA:34,1,_ZNSt3__121__hash_const_iteratorIPNS_11__hash_nodeINS_17__hash_value_typeINS_12basic_stringIcNS_11char_traitsIcEENS_9allocatorIcEEEEN3p2p5relay14BandwidthStatsEEEPvEEEC1B8ne200100ERKNS_15__hash_iteratorISF_EE
FNA:34,1,_ZNSt3__121__hash_const_iteratorIPNS_11__hash_nodeINS_17__hash_value_typeINS_12basic_stringIcNS_11char_traitsIcEENS_9allocatorIcEEEEN3p2p5relay14BandwidthStatsEEEPvEEEC2B8ne200100ERKNS_15__hash_iteratorISF_EE
FNA:34,1,_ZNSt3__121__hash_const_iteratorIPNS_11__hash_nodeINS_17__hash_value_typeINS_12basic_stringIcNS_11char_traitsIcEENS_9allocatorIcEEEEN3p2p5relay16BandwidthLimiter18AllocationLimitersEEEPvEEEC1B8ne200100ERKNS_15__hash_iteratorISG_EE
FNA:34,1,_ZNSt3__121__hash_const_iteratorIPNS_11__hash_nodeINS_17__hash_value_typeINS_12basic_stringIcNS_11char_traitsIcEENS_9allocatorIcEEEEN3p2p5relay16BandwidthLimiter18AllocationLimitersEEEPvEEEC2B8ne200100ERKNS_15__hash_iteratorISG_EE
FNA:34,2,_ZNSt3__121__hash_const_iteratorIPNS_11__hash_nodeINS_17__hash_value_typeINS_12basic_stringIcNS_11char_traitsIcEENS_9allocatorIcEEEENS_10shared_ptrIN3p2p5relay14TurnAllocationEEEEEPvEEEC1B8ne200100ERKNS_15__hash_iteratorISH_EE
FNA:34,2,_ZNSt3__121__hash_const_iteratorIPNS_11__hash_nodeINS_17__hash_value_typeINS_12basic_stringIcNS_11char_traitsIcEENS_9allocatorIcEEEENS_10shared_ptrIN3p2p5relay14TurnAllocationEEEEEPvEEEC2B8ne200100ERKNS_15__hash_iteratorISH_EE
FNA:34,4,_ZNSt3__121__hash_const_iteratorIPNS_11__hash_nodeINS_17__hash_value_typeINS_12basic_stringIcNS_11char_traitsIcEENS_9allocatorIcEEEES8_EEPvEEEC1B8ne200100ERKNS_15__hash_iteratorISC_EE
FNA:34,4,_ZNSt3__121__hash_const_iteratorIPNS_11__hash_nodeINS_17__hash_value_typeINS_12basic_stringIcNS_11char_traitsIcEENS_9allocatorIcEEEES8_EEPvEEEC2B8ne200100ERKNS_15__hash_iteratorISC_EE
FNL:35,366
FNA:35,1,_ZNKSt3__121__hash_const_iteratorIPNS_11__hash_nodeINS_17__hash_value_typeINS_12basic_stringIcNS_11char_traitsIcEENS_9allocatorIcEEEEN3p2p5relay14BandwidthStatsEEEPvEEEptB8ne200100Ev
FNA:35,4,_ZNKSt3__121__hash_const_iteratorIPNS_11__hash_nodeINS_17__hash_value_typeINS_12basic_stringIcNS_11char_traitsIcEENS_9allocatorIcEEEENS_10shared_ptrIN3p2p5relay14TurnAllocationEEEEEPvEEEptB8ne200100Ev
FNL:36,372
FNA:36,4,_ZNSt3__121__hash_const_iteratorIPNS_11__hash_nodeINS_17__hash_value_typeINS_12basic_stringIcNS_11char_traitsIcEENS_9allocatorIcEEEENS_10shared_ptrIN3p2p5relay14TurnAllocationEEEEEPvEEEppB8ne200100Ev
FNL:37,385
FNA:37,2,_ZNSt3__1eqB8ne200100ERKNS_21__hash_const_iteratorIPNS_11__hash_nodeINS_12basic_stringIcNS_11char_traitsIcEENS_9allocatorIcEEEEPvEEEESD_
FNA:37,1,_ZNSt3__1eqB8ne200100ERKNS_21__hash_const_iteratorIPNS_11__hash_nodeINS_17__hash_value_typeINS_12basic_stringIcNS_11char_traitsIcEENS_9allocatorIcEEEEN3p2p5relay14BandwidthStatsEEEPvEEEESI_
FNA:37,6,_ZNSt3__1eqB8ne200100ERKNS_21__hash_const_iteratorIPNS_11__hash_nodeINS_17__hash_value_typeINS_12basic_stringIcNS_11char_traitsIcEENS_9allocatorIcEEEENS_10shared_ptrIN3p2p5relay14TurnAllocationEEEEEPvEEEESK_
FNA:37,35,_ZNSt3__1eqB8ne200100ERKNS_21__hash_const_iteratorIPNS_11__hash_nodeINS_17__hash_value_typeINS_12basic_stringIcNS_11char_traitsIcEENS_9allocatorIcEEEES8_EEPvEEEESF_
FNL:38,388
FNA:38,2,_ZNSt3__1neB8ne200100ERKNS_21__hash_const_iteratorIPNS_11__hash_nodeINS_12basic_stringIcNS_11char_traitsIcEENS_9allocatorIcEEEEPvEEEESD_
FNA:38,35,_ZNSt3__1neB8ne200100ERKNS_21__hash_const_iteratorIPNS_11__hash_nodeINS_17__hash_value_typeINS_12basic_stringIcNS_11char_traitsIcEENS_9allocatorIcEEEES8_EEPvEEEESF_
FNL:39,393
FNA:39,99,_ZNSt3__121__hash_const_iteratorIPNS_11__hash_nodeINS_12basic_stringIcNS_11char_traitsIcEENS_9allocatorIcEEEEPvEEEC1B8ne200100EPNS_16__hash_node_baseISA_EE
FNA:39,99,_ZNSt3__121__hash_const_iteratorIPNS_11__hash_nodeINS_12basic_stringIcNS_11char_traitsIcEENS_9allocatorIcEEEEPvEEEC2B8ne200100EPNS_16__hash_node_baseISA_EE
FNA:39,2,_ZNSt3__121__hash_const_iteratorIPNS_11__hash_nodeINS_17__hash_value_typeINS_12basic_stringIcNS_11char_traitsIcEENS_9allocatorIcEEEEN3p2p5relay14BandwidthStatsEEEPvEEEC1B8ne200100EPNS_16__hash_node_baseISF_EE
FNA:39,2,_ZNSt3__121__hash_const_iteratorIPNS_11__hash_nodeINS_17__hash_value_typeINS_12basic_stringIcNS_11char_traitsIcEENS_9allocatorIcEEEEN3p2p5relay14BandwidthStatsEEEPvEEEC2B8ne200100EPNS_16__hash_node_baseISF_EE
FNA:39,4,_ZNSt3__121__hash_const_iteratorIPNS_11__hash_nodeINS_17__hash_value_typeINS_12basic_stringIcNS_11char_traitsIcEENS_9allocatorIcEEEENS_10shared_ptrIN3p2p5relay14TurnAllocationEEEEEPvEEEC1B8ne200100EPNS_16__hash_node_baseISH_EE
FNA:39,4,_ZNSt3__121__hash_const_iteratorIPNS_11__hash_nodeINS_17__hash_value_typeINS_12basic_stringIcNS_11char_traitsIcEENS_9allocatorIcEEEENS_10shared_ptrIN3p2p5relay14TurnAllocationEEEEEPvEEEC2B8ne200100EPNS_16__hash_node_baseISH_EE
FNA:39,70,_ZNSt3__121__hash_const_iteratorIPNS_11__hash_nodeINS_17__hash_value_typeINS_12basic_stringIcNS_11char_traitsIcEENS_9allocatorIcEEEES8_EEPvEEEC1B8ne200100EPNS_16__hash_node_baseISC_EE
FNA:39,70,_ZNSt3__121__hash_const_iteratorIPNS_11__hash_nodeINS_17__hash_value_typeINS_12basic_stringIcNS_11char_traitsIcEENS_9allocatorIcEEEES8_EEPvEEEC2B8ne200100EPNS_16__hash_node_baseISC_EE
FNL:40,570
FNA:40,34,_ZNSt3__125__bucket_list_deallocatorINS_9allocatorIPNS_16__hash_node_baseIPNS_11__hash_nodeINS_12basic_stringIcNS_11char_traitsIcEENS1_IcEEEEPvEEEEEEEC1B8ne200100Ev
FNA:40,34,_ZNSt3__125__bucket_list_deallocatorINS_9allocatorIPNS_16__hash_node_baseIPNS_11__hash_nodeINS_12basic_stringIcNS_11char_traitsIcEENS1_IcEEEEPvEEEEEEEC2B8ne200100Ev
FNA:40,9,_ZNSt3__125__bucket_list_deallocatorINS_9allocatorIPNS_16__hash_node_baseIPNS_11__hash_nodeINS_17__hash_value_typeINS_12basic_stringIcNS_11char_traitsIcEENS1_IcEEEEN3p2p5relay14BandwidthStatsEEEPvEEEEEEEC1B8ne200100Ev
FNA:40,9,_ZNSt3__125__bucket_list_deallocatorINS_9allocatorIPNS_16__hash_node_baseIPNS_11__hash_nodeINS_17__hash_value_typeINS_12basic_stringIcNS_11char_traitsIcEENS1_IcEEEEN3p2p5relay14BandwidthStatsEEEPvEEEEEEEC2B8ne200100Ev
FNA:40,9,_ZNSt3__125__bucket_list_deallocatorINS_9allocatorIPNS_16__hash_node_baseIPNS_11__hash_nodeINS_17__hash_value_typeINS_12basic_stringIcNS_11char_traitsIcEENS1_IcEEEEN3p2p5relay16BandwidthLimiter18AllocationLimitersEEEPvEEEEEEEC1B8ne200100Ev
FNA:40,9,_ZNSt3__125__bucket_list_deallocatorINS_9allocatorIPNS_16__hash_node_baseIPNS_11__hash_nodeINS_17__hash_value_typeINS_12basic_stringIcNS_11char_traitsIcEENS1_IcEEEEN3p2p5relay16BandwidthLimiter18AllocationLimitersEEEPvEEEEEEEC2B8ne200100Ev
FNA:40,20,_ZNSt3__125__bucket_list_deallocatorINS_9allocatorIPNS_16__hash_node_baseIPNS_11__hash_nodeINS_17__hash_value_typeINS_12basic_stringIcNS_11char_traitsIcEENS1_IcEEEENS_10shared_ptrIN3p2p5relay14TurnAllocationEEEEEPvEEEEEEEC1B8ne200100Ev
FNA:40,20,_ZNSt3__125__bucket_list_deallocatorINS_9allocatorIPNS_16__hash_node_baseIPNS_11__hash_nodeINS_17__hash_value_typeINS_12basic_stringIcNS_11char_traitsIcEENS1_IcEEEENS_10shared_ptrIN3p2p5relay14TurnAllocationEEEEEPvEEEEEEEC2B8ne200100Ev
FNA:40,40,_ZNSt3__125__bucket_list_deallocatorINS_9allocatorIPNS_16__hash_node_baseIPNS_11__hash_nodeINS_17__hash_value_typeINS_12basic_stringIcNS_11char_traitsIcEENS1_IcEEEES9_EEPvEEEEEEEC1B8ne200100Ev
FNA:40,40,_ZNSt3__125__bucket_list_deallocatorINS_9allocatorIPNS_16__hash_node_baseIPNS_11__hash_nodeINS_17__hash_value_typeINS_12basic_stringIcNS_11char_traitsIcEENS1_IcEEEES9_EEPvEEEEEEEC2B8ne200100Ev
FNL:41,583
FNA:41,2,_ZNSt3__125__bucket_list_deallocatorINS_9allocatorIPNS_16__hash_node_baseIPNS_11__hash_nodeINS_12basic_stringIcNS_11char_traitsIcEENS1_IcEEEEPvEEEEEEE4sizeB8ne200100Ev
FNA:41,18,_ZNSt3__125__bucket_list_deallocatorINS_9allocatorIPNS_16__hash_node_baseIPNS_11__hash_nodeINS_17__hash_value_typeINS_12basic_stringIcNS_11char_traitsIcEENS1_IcEEEEN3p2p5relay14BandwidthStatsEEEPvEEEEEEE4sizeB8ne200100Ev
FNA:41,18,_ZNSt3__125__bucket_list_deallocatorINS_9allocatorIPNS_16__hash_node_baseIPNS_11__hash_nodeINS_17__hash_value_typeINS_12basic_stringIcNS_11char_traitsIcEENS1_IcEEEEN3p2p5relay16BandwidthLimiter18AllocationLimitersEEEPvEEEEEEE4sizeB8ne200100Ev
FNA:41,44,_ZNSt3__125__bucket_list_deallocatorINS_9allocatorIPNS_16__hash_node_baseIPNS_11__hash_nodeINS_17__hash_value_typeINS_12basic_stringIcNS_11char_traitsIcEENS1_IcEEEENS_10shared_ptrIN3p2p5relay14TurnAllocationEEEEEPvEEEEEEE4sizeB8ne200100Ev
FNA:41,88,_ZNSt3__125__bucket_list_deallocatorINS_9allocatorIPNS_16__hash_node_baseIPNS_11__hash_nodeINS_17__hash_value_typeINS_12basic_stringIcNS_11char_traitsIcEENS1_IcEEEES9_EEPvEEEEEEE4sizeB8ne200100Ev
FNL:42,584
FNA:42,101,_ZNKSt3__125__bucket_list_deallocatorINS_9allocatorIPNS_16__hash_node_baseIPNS_11__hash_nodeINS_12basic_stringIcNS_11char_traitsIcEENS1_IcEEEEPvEEEEEEE4sizeB8ne200100Ev
FNA:42,73,_ZNKSt3__125__bucket_list_deallocatorINS_9allocatorIPNS_16__hash_node_baseIPNS_11__hash_nodeINS_17__hash_value_typeINS_12basic_stringIcNS_11char_traitsIcEENS1_IcEEEEN3p2p5relay14BandwidthStatsEEEPvEEEEEEE4sizeB8ne200100Ev
FNA:42,73,_ZNKSt3__125__bucket_list_deallocatorINS_9allocatorIPNS_16__hash_node_baseIPNS_11__hash_nodeINS_17__hash_value_typeINS_12basic_stringIcNS_11char_traitsIcEENS1_IcEEEEN3p2p5relay16BandwidthLimiter18AllocationLimitersEEEPvEEEEEEE4sizeB8ne200100Ev
FNA:42,92,_ZNKSt3__125__bucket_list_deallocatorINS_9allocatorIPNS_16__hash_node_baseIPNS_11__hash_nodeINS_17__hash_value_typeINS_12basic_stringIcNS_11char_traitsIcEENS1_IcEEEENS_10shared_ptrIN3p2p5relay14TurnAllocationEEEEEPvEEEEEEE4sizeB8ne200100Ev
FNA:42,203,_ZNKSt3__125__bucket_list_deallocatorINS_9allocatorIPNS_16__hash_node_baseIPNS_11__hash_nodeINS_17__hash_value_typeINS_12basic_stringIcNS_11char_traitsIcEENS1_IcEEEES9_EEPvEEEEEEE4sizeB8ne200100Ev
FNL:43,586
FNA:43,2,_ZNSt3__125__bucket_list_deallocatorINS_9allocatorIPNS_16__hash_node_baseIPNS_11__hash_nodeINS_12basic_stringIcNS_11char_traitsIcEENS1_IcEEEEPvEEEEEEE7__allocB8ne200100Ev
FNA:43,18,_ZNSt3__125__bucket_list_deallocatorINS_9allocatorIPNS_16__hash_node_baseIPNS_11__hash_nodeINS_17__hash_value_typeINS_12basic_stringIcNS_11char_traitsIcEENS1_IcEEEEN3p2p5relay14BandwidthStatsEEEPvEEEEEEE7__allocB8ne200100Ev
FNA:43,18,_ZNSt3__125__bucket_list_deallocatorINS_9allocatorIPNS_16__hash_node_baseIPNS_11__hash_nodeINS_17__hash_value_typeINS_12basic_stringIcNS_11char_traitsIcEENS1_IcEEEEN3p2p5relay16BandwidthLimiter18AllocationLimitersEEEPvEEEEEEE7__allocB8ne200100Ev
FNA:43,44,_ZNSt3__125__bucket_list_deallocatorINS_9allocatorIPNS_16__hash_node_baseIPNS_11__hash_nodeINS_17__hash_value_typeINS_12basic_stringIcNS_11char_traitsIcEENS1_IcEEEENS_10shared_ptrIN3p2p5relay14TurnAllocationEEEEEPvEEEEEEE7__allocB8ne200100Ev
FNA:43,88,_ZNSt3__125__bucket_list_deallocatorINS_9allocatorIPNS_16__hash_node_baseIPNS_11__hash_nodeINS_17__hash_value_typeINS_12basic_stringIcNS_11char_traitsIcEENS1_IcEEEES9_EEPvEEEEEEE7__allocB8ne200100Ev
FNL:44,589
FNA:44,1,_ZNSt3__125__bucket_list_deallocatorINS_9allocatorIPNS_16__hash_node_baseIPNS_11__hash_nodeINS_12basic_stringIcNS_11char_traitsIcEENS1_IcEEEEPvEEEEEEEclB8ne200100EPSD_
FNA:44,9,_ZNSt3__125__bucket_list_deallocatorINS_9allocatorIPNS_16__hash_node_baseIPNS_11__hash_nodeINS_17__hash_value_typeINS_12basic_stringIcNS_11char_traitsIcEENS1_IcEEEEN3p2p5relay14BandwidthStatsEEEPvEEEEEEEclB8ne200100EPSI_
FNA:44,9,_ZNSt3__125__bucket_list_deallocatorINS_9allocatorIPNS_16__hash_node_baseIPNS_11__hash_nodeINS_17__hash_value_typeINS_12basic_stringIcNS_11char_traitsIcEENS1_IcEEEEN3p2p5relay16BandwidthLimiter18AllocationLimitersEEEPvEEEEEEEclB8ne200100EPSJ_
FNA:44,22,_ZNSt3__125__bucket_list_deallocatorINS_9allocatorIPNS_16__hash_node_baseIPNS_11__hash_nodeINS_17__hash_value_typeINS_12basic_stringIcNS_11char_traitsIcEENS1_IcEEEENS_10shared_ptrIN3p2p5relay14TurnAllocationEEEEEPvEEEEEEEclB8ne200100EPSK_
FNA:44,44,_ZNSt3__125__bucket_list_deallocatorINS_9allocatorIPNS_16__hash_node_baseIPNS_11__hash_nodeINS_17__hash_value_typeINS_12basic_stringIcNS_11char_traitsIcEENS1_IcEEEES9_EEPvEEEEEEEclB8ne200100EPSF_
FNL:45,614
FNA:45,1,_ZNSt3__122__hash_node_destructorINS_9allocatorINS_11__hash_nodeINS_12basic_stringIcNS_11char_traitsIcEENS1_IcEEEEPvEEEEEC1B8ne200100ERSA_b
FNA:45,1,_ZNSt3__122__hash_node_destructorINS_9allocatorINS_11__hash_nodeINS_12basic_stringIcNS_11char_traitsIcEENS1_IcEEEEPvEEEEEC2B8ne200100ERSA_b
FNA:45,14,_ZNSt3__122__hash_node_destructorINS_9allocatorINS_11__hash_nodeINS_17__hash_value_typeINS_12basic_stringIcNS_11char_traitsIcEENS1_IcEEEEN3p2p5relay14BandwidthStatsEEEPvEEEEEC1B8ne200100ERSF_b
FNA:45,14,_ZNSt3__122__hash_node_destructorINS_9allocatorINS_11__hash_nodeINS_17__hash_value_typeINS_12basic_stringIcNS_11char_traitsIcEENS1_IcEEEEN3p2p5relay14BandwidthStatsEEEPvEEEEEC2B8ne200100ERSF_b
FNA:45,14,_ZNSt3__122__hash_node_destructorINS_9allocatorINS_11__hash_nodeINS_17__hash_value_typeINS_12basic_stringIcNS_11char_traitsIcEENS1_IcEEEEN3p2p5relay16BandwidthLimiter18AllocationLimitersEEEPvEEEEEC1B8ne200100ERSG_b
FNA:45,14,_ZNSt3__122__hash_node_destructorINS_9allocatorINS_11__hash_nodeINS_17__hash_value_typeINS_12basic_stringIcNS_11char_traitsIcEENS1_IcEEEEN3p2p5relay16BandwidthLimiter18AllocationLimitersEEEPvEEEEEC2B8ne200100ERSG_b
FNA:45,36,_ZNSt3__122__hash_node_destructorINS_9allocatorINS_11__hash_nodeINS_17__hash_value_typeINS_12basic_stringIcNS_11char_traitsIcEENS1_IcEEEENS_10shared_ptrIN3p2p5relay14TurnAllocationEEEEEPvEEEEEC1B8ne200100ERSH_b
FNA:45,36,_ZNSt3__122__hash_node_destructorINS_9allocatorINS_11__hash_nodeINS_17__hash_value_typeINS_12basic_stringIcNS_11char_traitsIcEENS1_IcEEEENS_10shared_ptrIN3p2p5relay14TurnAllocationEEEEEPvEEEEEC2B8ne200100ERSH_b
FNA:45,72,_ZNSt3__122__hash_node_destructorINS_9allocatorINS_11__hash_nodeINS_17__hash_value_typeINS_12basic_stringIcNS_11char_traitsIcEENS1_IcEEEES8_EEPvEEEEEC1B8ne200100ERSC_b
FNA:45,72,_ZNSt3__122__hash_node_destructorINS_9allocatorINS_11__hash_nodeINS_17__hash_value_typeINS_12basic_stringIcNS_11char_traitsIcEENS1_IcEEEES8_EEPvEEEEEC2B8ne200100ERSC_b
FNL:46,618
FNA:46,0,_ZNSt3__122__hash_node_destructorINS_9allocatorINS_11__hash_nodeINS_12basic_stringIcNS_11char_traitsIcEENS1_IcEEEEPvEEEEEclB8ne200100EPS9_
FNA:46,1,_ZNSt3__122__hash_node_destructorINS_9allocatorINS_11__hash_nodeINS_17__hash_value_typeINS_12basic_stringIcNS_11char_traitsIcEENS1_IcEEEEN3p2p5relay14BandwidthStatsEEEPvEEEEEclB8ne200100EPSE_
FNA:46,1,_ZNSt3__122__hash_node_destructorINS_9allocatorINS_11__hash_nodeINS_17__hash_value_typeINS_12basic_stringIcNS_11char_traitsIcEENS1_IcEEEEN3p2p5relay16BandwidthLimiter18AllocationLimitersEEEPvEEEEEclB8ne200100EPSF_
FNA:46,2,_ZNSt3__122__hash_node_destructorINS_9allocatorINS_11__hash_nodeINS_17__hash_value_typeINS_12basic_stringIcNS_11char_traitsIcEENS1_IcEEEENS_10shared_ptrIN3p2p5relay14TurnAllocationEEEEEPvEEEEEclB8ne200100EPSG_
FNA:46,4,_ZNSt3__122__hash_node_destructorINS_9allocatorINS_11__hash_nodeINS_17__hash_value_typeINS_12basic_stringIcNS_11char_traitsIcEENS1_IcEEEES8_EEPvEEEEEclB8ne200100EPSB_
FNL:47,732
FNA:47,3,_ZNSt3__112__hash_tableINS_12basic_stringIcNS_11char_traitsIcEENS_9allocatorIcEEEENS_4hashIS6_EENS_8equal_toIS6_EENS4_IS6_EEE4sizeB8ne200100Ev
FNA:47,36,_ZNSt3__112__hash_tableINS_17__hash_value_typeINS_12basic_stringIcNS_11char_traitsIcEENS_9allocatorIcEEEEN3p2p5relay14BandwidthStatsEEENS_22__unordered_map_hasherIS7_SB_NS_4hashIS7_EENS_8equal_toIS7_EELb1EEENS_21__unordered_map_equalIS7_SB_SG_SE_Lb1EEENS5_ISB_EEE4sizeB8ne200100Ev
FNA:47,36,_ZNSt3__112__hash_tableINS_17__hash_value_typeINS_12basic_stringIcNS_11char_traitsIcEENS_9allocatorIcEEEEN3p2p5relay16BandwidthLimiter18AllocationLimitersEEENS_22__unordered_map_hasherIS7_SC_NS_4hashIS7_EENS_8equal_toIS7_EELb1EEENS_21__unordered_map_equalIS7_SC_SH_SF_Lb1EEENS5_ISC_EEE4sizeB8ne200100Ev
FNA:47,92,_ZNSt3__112__hash_tableINS_17__hash_value_typeINS_12basic_stringIcNS_11char_traitsIcEENS_9allocatorIcEEEENS_10shared_ptrIN3p2p5relay14TurnAllocationEEEEENS_22__unordered_map_hasherIS7_SD_NS_4hashIS7_EENS_8equal_toIS7_EELb1EEENS_21__unordered_map_equalIS7_SD_SI_SG_Lb1EEENS5_ISD_EEE4sizeB8ne200100Ev
FNA:47,184,_ZNSt3__112__hash_tableINS_17__hash_value_typeINS_12basic_stringIcNS_11char_traitsIcEENS_9allocatorIcEEEES7_EENS_22__unordered_map_hasherIS7_S8_NS_4hashIS7_EENS_8equal_toIS7_EELb1EEENS_21__unordered_map_equalIS7_S8_SD_SB_Lb1EEENS5_IS8_EEE4sizeB8ne200100Ev
FNL:48,735
FNA:48,3,_ZNKSt3__112__hash_tableINS_17__hash_value_typeINS_12basic_stringIcNS_11char_traitsIcEENS_9allocatorIcEEEEN3p2p5relay16BandwidthLimiter18AllocationLimitersEEENS_22__unordered_map_hasherIS7_SC_NS_4hashIS7_EENS_8equal_toIS7_EELb1EEENS_21__unordered_map_equalIS7_SC_SH_SF_Lb1EEENS5_ISC_EEE4sizeB8ne200100Ev
FNA:48,39,_ZNKSt3__112__hash_tableINS_17__hash_value_typeINS_12basic_stringIcNS_11char_traitsIcEENS_9allocatorIcEEEENS_10shared_ptrIN3p2p5relay14TurnAllocationEEEEENS_22__unordered_map_hasherIS7_SD_NS_4hashIS7_EENS_8equal_toIS7_EELb1EEENS_21__unordered_map_equalIS7_SD_SI_SG_Lb1EEENS5_ISD_EEE4sizeB8ne200100Ev
FNL:49,737
FNA:49,2,_ZNSt3__112__hash_tableINS_12basic_stringIcNS_11char_traitsIcEENS_9allocatorIcEEEENS_4hashIS6_EENS_8equal_toIS6_EENS4_IS6_EEE13hash_functionB8ne200100Ev
FNA:49,53,_ZNSt3__112__hash_tableINS_17__hash_value_typeINS_12basic_stringIcNS_11char_traitsIcEENS_9allocatorIcEEEEN3p2p5relay14BandwidthStatsEEENS_22__unordered_map_hasherIS7_SB_NS_4hashIS7_EENS_8equal_toIS7_EELb1EEENS_21__unordered_map_equalIS7_SB_SG_SE_Lb1EEENS5_ISB_EEE13hash_functionB8ne200100Ev
FNA:49,54,_ZNSt3__112__hash_tableINS_17__hash_value_typeINS_12basic_stringIcNS_11char_traitsIcEENS_9allocatorIcEEEEN3p2p5relay16BandwidthLimiter18AllocationLimitersEEENS_22__unordered_map_hasherIS7_SC_NS_4hashIS7_EENS_8equal_toIS7_EELb1EEENS_21__unordered_map_equalIS7_SC_SH_SF_Lb1EEENS5_ISC_EEE13hash_functionB8ne200100Ev
FNA:49,46,_ZNSt3__112__hash_tableINS_17__hash_value_typeINS_12basic_stringIcNS_11char_traitsIcEENS_9allocatorIcEEEENS_10shared_ptrIN3p2p5relay14TurnAllocationEEEEENS_22__unordered_map_hasherIS7_SD_NS_4hashIS7_EENS_8equal_toIS7_EELb1EEENS_21__unordered_map_equalIS7_SD_SI_SG_Lb1EEENS5_ISD_EEE13hash_functionB8ne200100Ev
FNA:49,76,_ZNSt3__112__hash_tableINS_17__hash_value_typeINS_12basic_stringIcNS_11char_traitsIcEENS_9allocatorIcEEEES7_EENS_22__unordered_map_hasherIS7_S8_NS_4hashIS7_EENS_8equal_toIS7_EELb1EEENS_21__unordered_map_equalIS7_S8_SD_SB_Lb1EEENS5_IS8_EEE13hash_functionB8ne200100Ev
FNL:50,738
FNA:50,97,_ZNKSt3__112__hash_tableINS_12basic_stringIcNS_11char_traitsIcEENS_9allocatorIcEEEENS_4hashIS6_EENS_8equal_toIS6_EENS4_IS6_EEE13hash_functionB8ne200100Ev
FNA:50,1,_ZNKSt3__112__hash_tableINS_17__hash_value_typeINS_12basic_stringIcNS_11char_traitsIcEENS_9allocatorIcEEEEN3p2p5relay14BandwidthStatsEEENS_22__unordered_map_hasherIS7_SB_NS_4hashIS7_EENS_8equal_toIS7_EELb1EEENS_21__unordered_map_equalIS7_SB_SG_SE_Lb1EEENS5_ISB_EEE13hash_functionB8ne200100Ev
FNA:50,35,_ZNKSt3__112__hash_tableINS_17__hash_value_typeINS_12basic_stringIcNS_11char_traitsIcEENS_9allocatorIcEEEES7_EENS_22__unordered_map_hasherIS7_S8_NS_4hashIS7_EENS_8equal_toIS7_EELb1EEENS_21__unordered_map_equalIS7_S8_SD_SB_Lb1EEENS5_IS8_EEE13hash_functionB8ne200100Ev
FNL:51,740
FNA:51,2,_ZNSt3__112__hash_tableINS_12basic_stringIcNS_11char_traitsIcEENS_9allocatorIcEEEENS_4hashIS6_EENS_8equal_toIS6_EENS4_IS6_EEE15max_load_factorB8ne200100Ev
FNA:51,22,_ZNSt3__112__hash_tableINS_17__hash_value_typeINS_12basic_stringIcNS_11char_traitsIcEENS_9allocatorIcEEEEN3p2p5relay14BandwidthStatsEEENS_22__unordered_map_hasherIS7_SB_NS_4hashIS7_EENS_8equal_toIS7_EELb1EEENS_21__unordered_map_equalIS7_SB_SG_SE_Lb1EEENS5_ISB_EEE15max_load_factorB8ne200100Ev
FNA:51,22,_ZNSt3__112__hash_tableINS_17__hash_value_typeINS_12basic_stringIcNS_11char_traitsIcEENS_9allocatorIcEEEEN3p2p5relay16BandwidthLimiter18AllocationLimitersEEENS_22__unordered_map_hasherIS7_SC_NS_4hashIS7_EENS_8equal_toIS7_EELb1EEENS_21__unordered_map_equalIS7_SC_SH_SF_Lb1EEENS5_ISC_EEE15max_load_factorB8ne200100Ev
FNA:51,56,_ZNSt3__112__hash_tableINS_17__hash_value_typeINS_12basic_stringIcNS_11char_traitsIcEENS_9allocatorIcEEEENS_10shared_ptrIN3p2p5relay14TurnAllocationEEEEENS_22__unordered_map_hasherIS7_SD_NS_4hashIS7_EENS_8equal_toIS7_EELb1EEENS_21__unordered_map_equalIS7_SD_SI_SG_Lb1EEENS5_ISD_EEE15max_load_factorB8ne200100Ev
FNA:51,112,_ZNSt3__112__hash_tableINS_17__hash_value_typeINS_12basic_stringIcNS_11char_traitsIcEENS_9allocatorIcEEEES7_EENS_22__unordered_map_hasherIS7_S8_NS_4hashIS7_EENS_8equal_toIS7_EELb1EEENS_21__unordered_map_equalIS7_S8_SD_SB_Lb1EEENS5_IS8_EEE15max_load_factorB8ne200100Ev
FNL:52,743
FNA:52,1,_ZNSt3__112__hash_tableINS_12basic_stringIcNS_11char_traitsIcEENS_9allocatorIcEEEENS_4hashIS6_EENS_8equal_toIS6_EENS4_IS6_EEE6key_eqB8ne200100Ev
FNA:52,40,_ZNSt3__112__hash_tableINS_17__hash_value_typeINS_12basic_stringIcNS_11char_traitsIcEENS_9allocatorIcEEEEN3p2p5relay14BandwidthStatsEEENS_22__unordered_map_hasherIS7_SB_NS_4hashIS7_EENS_8equal_toIS7_EELb1EEENS_21__unordered_map_equalIS7_SB_SG_SE_Lb1EEENS5_ISB_EEE6key_eqB8ne200100Ev
FNA:52,41,_ZNSt3__112__hash_tableINS_17__hash_value_typeINS_12basic_stringIcNS_11char_traitsIcEENS_9allocatorIcEEEEN3p2p5relay16BandwidthLimiter18AllocationLimitersEEENS_22__unordered_map_hasherIS7_SC_NS_4hashIS7_EENS_8equal_toIS7_EELb1EEENS_21__unordered_map_equalIS7_SC_SH_SF_Lb1EEENS5_ISC_EEE6key_eqB8ne200100Ev
FNA:52,11,_ZNSt3__112__hash_tableINS_17__hash_value_typeINS_12basic_stringIcNS_11char_traitsIcEENS_9allocatorIcEEEENS_10shared_ptrIN3p2p5relay14TurnAllocationEEEEENS_22__unordered_map_hasherIS7_SD_NS_4hashIS7_EENS_8equal_toIS7_EELb1EEENS_21__unordered_map_equalIS7_SD_SI_SG_Lb1EEENS5_ISD_EEE6key_eqB8ne200100Ev
FNA:52,7,_ZNSt3__112__hash_tableINS_17__hash_value_typeINS_12basic_stringIcNS_11char_traitsIcEENS_9allocatorIcEEEES7_EENS_22__unordered_map_hasherIS7_S8_NS_4hashIS7_EENS_8equal_toIS7_EELb1EEENS_21__unordered_map_equalIS7_S8_SD_SB_Lb1EEENS5_IS8_EEE6key_eqB8ne200100Ev
FNL:53,744
FNA:53,1,_ZNKSt3__112__hash_tableINS_12basic_stringIcNS_11char_traitsIcEENS_9allocatorIcEEEENS_4hashIS6_EENS_8equal_toIS6_EENS4_IS6_EEE6key_eqB8ne200100Ev
FNA:53,1,_ZNKSt3__112__hash_tableINS_17__hash_value_typeINS_12basic_stringIcNS_11char_traitsIcEENS_9allocatorIcEEEEN3p2p5relay14BandwidthStatsEEENS_22__unordered_map_hasherIS7_SB_NS_4hashIS7_EENS_8equal_toIS7_EELb1EEENS_21__unordered_map_equalIS7_SB_SG_SE_Lb1EEENS5_ISB_EEE6key_eqB8ne200100Ev
FNA:53,1,_ZNKSt3__112__hash_tableINS_17__hash_value_typeINS_12basic_stringIcNS_11char_traitsIcEENS_9allocatorIcEEEES7_EENS_22__unordered_map_hasherIS7_S8_NS_4hashIS7_EENS_8equal_toIS7_EELb1EEENS_21__unordered_map_equalIS7_S8_SD_SB_Lb1EEENS5_IS8_EEE6key_eqB8ne200100Ev
FNL:54,746
FNA:54,52,_ZNSt3__112__hash_tableINS_12basic_stringIcNS_11char_traitsIcEENS_9allocatorIcEEEENS_4hashIS6_EENS_8equal_toIS6_EENS4_IS6_EEE12__node_allocB8ne200100Ev
FNA:54,23,_ZNSt3__112__hash_tableINS_17__hash_value_typeINS_12basic_stringIcNS_11char_traitsIcEENS_9allocatorIcEEEEN3p2p5relay14BandwidthStatsEEENS_22__unordered_map_hasherIS7_SB_NS_4hashIS7_EENS_8equal_toIS7_EELb1EEENS_21__unordered_map_equalIS7_SB_SG_SE_Lb1EEENS5_ISB_EEE12__node_allocB8ne200100Ev
FNA:54,23,_ZNSt3__112__hash_tableINS_17__hash_value_typeINS_12basic_stringIcNS_11char_traitsIcEENS_9allocatorIcEEEEN3p2p5relay16BandwidthLimiter18AllocationLimitersEEENS_22__unordered_map_hasherIS7_SC_NS_4hashIS7_EENS_8equal_toIS7_EELb1EEENS_21__unordered_map_equalIS7_SC_SH_SF_Lb1EEENS5_ISC_EEE12__node_allocB8ne200100Ev
FNA:54,56,_ZNSt3__112__hash_tableINS_17__hash_value_typeINS_12basic_stringIcNS_11char_traitsIcEENS_9allocatorIcEEEENS_10shared_ptrIN3p2p5relay14TurnAllocationEEEEENS_22__unordered_map_hasherIS7_SD_NS_4hashIS7_EENS_8equal_toIS7_EELb1EEENS_21__unordered_map_equalIS7_SD_SI_SG_Lb1EEENS5_ISD_EEE12__node_allocB8ne200100Ev
FNA:54,112,_ZNSt3__112__hash_tableINS_17__hash_value_typeINS_12basic_stringIcNS_11char_traitsIcEENS_9allocatorIcEEEES7_EENS_22__unordered_map_hasherIS7_S8_NS_4hashIS7_EENS_8equal_toIS7_EELb1EEENS_21__unordered_map_equalIS7_S8_SD_SB_Lb1EEENS5_IS8_EEE12__node_allocB8ne200100Ev
FNL:55,838
FNA:55,2,_ZNSt3__112__hash_tableINS_12basic_stringIcNS_11char_traitsIcEENS_9allocatorIcEEEENS_4hashIS6_EENS_8equal_toIS6_EENS4_IS6_EEE15__insert_uniqueB8ne200100EOS6_
FNL:56,883
FNA:56,1,_ZNSt3__112__hash_tableINS_12basic_stringIcNS_11char_traitsIcEENS_9allocatorIcEEEENS_4hashIS6_EENS_8equal_toIS6_EENS4_IS6_EEE15__rehash_uniqueB8ne200100Em
FNA:56,9,_ZNSt3__112__hash_tableINS_17__hash_value_typeINS_12basic_stringIcNS_11char_traitsIcEENS_9allocatorIcEEEEN3p2p5relay14BandwidthStatsEEENS_22__unordered_map_hasherIS7_SB_NS_4hashIS7_EENS_8equal_toIS7_EELb1EEENS_21__unordered_map_equalIS7_SB_SG_SE_Lb1EEENS5_ISB_EEE15__rehash_uniqueB8ne200100Em
FNA:56,9,_ZNSt3__112__hash_tableINS_17__hash_value_typeINS_12basic_stringIcNS_11char_traitsIcEENS_9allocatorIcEEEEN3p2p5relay16BandwidthLimiter18AllocationLimitersEEENS_22__unordered_map_hasherIS7_SC_NS_4hashIS7_EENS_8equal_toIS7_EELb1EEENS_21__unordered_map_equalIS7_SC_SH_SF_Lb1EEENS5_ISC_EEE15__rehash_uniqueB8ne200100Em
FNA:56,22,_ZNSt3__112__hash_tableINS_17__hash_value_typeINS_12basic_stringIcNS_11char_traitsIcEENS_9allocatorIcEEEENS_10shared_ptrIN3p2p5relay14TurnAllocationEEEEENS_22__unordered_map_hasherIS7_SD_NS_4hashIS7_EENS_8equal_toIS7_EELb1EEENS_21__unordered_map_equalIS7_SD_SI_SG_Lb1EEENS5_ISD_EEE15__rehash_uniqueB8ne200100Em
FNA:56,44,_ZNSt3__112__hash_tableINS_17__hash_value_typeINS_12basic_stringIcNS_11char_traitsIcEENS_9allocatorIcEEEES7_EENS_22__unordered_map_hasherIS7_S8_NS_4hashIS7_EENS_8equal_toIS7_EELb1EEENS_21__unordered_map_equalIS7_S8_SD_SB_Lb1EEENS5_IS8_EEE15__rehash_uniqueB8ne200100Em
FNL:57,892
FNA:57,101,_ZNKSt3__112__hash_tableINS_12basic_stringIcNS_11char_traitsIcEENS_9allocatorIcEEEENS_4hashIS6_EENS_8equal_toIS6_EENS4_IS6_EEE12bucket_countB8ne200100Ev
FNA:57,73,_ZNKSt3__112__hash_tableINS_17__hash_value_typeINS_12basic_stringIcNS_11char_traitsIcEENS_9allocatorIcEEEEN3p2p5relay14BandwidthStatsEEENS_22__unordered_map_hasherIS7_SB_NS_4hashIS7_EENS_8equal_toIS7_EELb1EEENS_21__unordered_map_equalIS7_SB_SG_SE_Lb1EEENS5_ISB_EEE12bucket_countB8ne200100Ev
FNA:57,73,_ZNKSt3__112__hash_tableINS_17__hash_value_typeINS_12basic_stringIcNS_11char_traitsIcEENS_9allocatorIcEEEEN3p2p5relay16BandwidthLimiter18AllocationLimitersEEENS_22__unordered_map_hasherIS7_SC_NS_4hashIS7_EENS_8equal_toIS7_EELb1EEENS_21__unordered_map_equalIS7_SC_SH_SF_Lb1EEENS5_ISC_EEE12bucket_countB8ne200100Ev
FNA:57,92,_ZNKSt3__112__hash_tableINS_17__hash_value_typeINS_12basic_stringIcNS_11char_traitsIcEENS_9allocatorIcEEEENS_10shared_ptrIN3p2p5relay14TurnAllocationEEEEENS_22__unordered_map_hasherIS7_SD_NS_4hashIS7_EENS_8equal_toIS7_EELb1EEENS_21__unordered_map_equalIS7_SD_SI_SG_Lb1EEENS5_ISD_EEE12bucket_countB8ne200100Ev
FNA:57,203,_ZNKSt3__112__hash_tableINS_17__hash_value_typeINS_12basic_stringIcNS_11char_traitsIcEENS_9allocatorIcEEEES7_EENS_22__unordered_map_hasherIS7_S8_NS_4hashIS7_EENS_8equal_toIS7_EELb1EEENS_21__unordered_map_equalIS7_S8_SD_SB_Lb1EEENS5_IS8_EEE12bucket_countB8ne200100Ev
FNL:58,97
FNA:58,3,_ZNSt3__116__hash_node_baseIPNS_11__hash_nodeINS_12basic_stringIcNS_11char_traitsIcEENS_9allocatorIcEEEEPvEEE5__ptrB8ne200100Ev
FNA:58,35,_ZNSt3__116__hash_node_baseIPNS_11__hash_nodeINS_17__hash_value_typeINS_12basic_stringIcNS_11char_traitsIcEENS_9allocatorIcEEEEN3p2p5relay14BandwidthStatsEEEPvEEE5__ptrB8ne200100Ev
FNA:58,35,_ZNSt3__116__hash_node_baseIPNS_11__hash_nodeINS_17__hash_value_typeINS_12basic_stringIcNS_11char_traitsIcEENS_9allocatorIcEEEEN3p2p5relay16BandwidthLimiter18AllocationLimitersEEEPvEEE5__ptrB8ne200100Ev
FNA:58,90,_ZNSt3__116__hash_node_baseIPNS_11__hash_nodeINS_17__hash_value_typeINS_12basic_stringIcNS_11char_traitsIcEENS_9allocatorIcEEEENS_10shared_ptrIN3p2p5relay14TurnAllocationEEEEEPvEEE5__ptrB8ne200100Ev
FNA:58,165,_ZNSt3__116__hash_node_baseIPNS_11__hash_nodeINS_17__hash_value_typeINS_12basic_stringIcNS_11char_traitsIcEENS_9allocatorIcEEEES8_EEPvEEE5__ptrB8ne200100Ev
FNF:59
FNH:58
DA:97,328
DA:98,328
DA:101,458
DA:102,458
DA:105,629
DA:107,224
DA:108,129
DA:129,587
DA:139,258
DA:140,258
DA:143,85
DA:145,467
DA:146,467
DA:149,0
DA:150,0
DA:177,2
DA:179,2
DA:204,256
DA:205,256
DA:298,221
DA:301,221
DA:304,10
DA:307,10
DA:308,10
DA:317,22
DA:318,22
DA:325,520
DA:359,20
DA:366,5
DA:369,5
DA:372,4
DA:375,4
DA:376,4
DA:385,44
DA:386,44
DA:388,37
DA:389,37
DA:393,350
DA:570,336
DA:571,336
DA:583,170
DA:584,542
DA:586,170
DA:589,85
DA:614,274
DA:615,137
DA:616,274
DA:618,8
DA:619,8
DA:620,8
DA:621,8
DA:622,8
DA:623,8
DA:624,8
DA:625,8
DA:732,351
DA:735,42
DA:737,231
DA:738,133
DA:740,214
DA:743,100
DA:744,3
DA:746,266
DA:838,2
DA:839,2
DA:883,85
DA:892,542
DA:1029,448
DA:1033,448
DA:1125,241
DA:1131,129
DA:1132,241
DA:1158,129
DA:1159,129
DA:1160,250
DA:1161,121
DA:1162,121
DA:1163,121
DA:1164,121
DA:1165,121
DA:1166,121
DA:1168,129
DA:1314,1
DA:1315,1
DA:1320,22
DA:1321,22
DA:1326,2
DA:1327,2
DA:1332,170
DA:1333,170
DA:1528,212
DA:1529,212
DA:1530,212
DA:1531,212
DA:1534,212
DA:1535,143
DA:1536,143
DA:1537,143
DA:1538,410
DA:1539,205
DA:1540,91
DA:1541,174
DA:1542,83
DA:1543,91
DA:1544,31
DA:1545,60
DA:1547,129
DA:1548,129
DA:1549,85
DA:1550,85
DA:1551,85
DA:1552,85
DA:1553,85
DA:1555,129
DA:1556,129
DA:1557,102
DA:1558,102
DA:1559,102
DA:1561,102
DA:1562,102
DA:1563,31
DA:1564,102
DA:1565,27
DA:1566,27
DA:1568,129
DA:1570,129
DA:1571,129
DA:1572,129
DA:1574,212
DA:1575,0
DA:1708,85
DA:1709,85
DA:1710,69
DA:1711,16
DA:1712,16
DA:1713,85
DA:1714,85
DA:1715,85
DA:1716,0
DA:1717,0
DA:1719,0
DA:1720,0
DA:1721,0
DA:1722,0
DA:1723,0
DA:1724,85
DA:1728,85
DA:1729,85
DA:1730,85
DA:1731,85
DA:1732,85
DA:1733,321
DA:1734,236
DA:1735,85
DA:1736,85
DA:1737,85
DA:1738,16
DA:1739,16
DA:1740,16
DA:1741,41
DA:1742,25
DA:1743,25
DA:1744,10
DA:1746,15
DA:1747,13
DA:1748,13
DA:1749,13
DA:1750,13
DA:1751,2
DA:1758,2
DA:1759,2
DA:1760,2
DA:1763,25
DA:1764,16
DA:1765,85
DA:1766,85
DA:1771,19
DA:1772,19
DA:1773,19
DA:1774,19
DA:1775,19
DA:1776,19
DA:1777,19
DA:1778,34
DA:1779,17
DA:1780,0
DA:1781,17
DA:1782,17
DA:1783,0
DA:1784,0
DA:1785,2
DA:1786,2
DA:1787,19
DA:1792,133
DA:1793,133
DA:1794,133
DA:1795,133
DA:1796,19
DA:1797,19
DA:1798,19
DA:1799,44
DA:1800,22
DA:1801,10
DA:1802,13
DA:1803,3
DA:1804,10
DA:1805,9
DA:1806,16
DA:1807,130
DA:1808,133
DA:1837,129
DA:1839,129
DA:1840,129
DA:1841,129
DA:1842,129
DA:1843,129
DA:1844,129
DA:1845,129
DA:1846,129
DA:1850,8
DA:1851,8
DA:1854,8
DA:1855,8
DA:1856,8
DA:1857,8
DA:1874,8
DA:1875,8
DA:1876,8
DA:1877,0
DA:1878,8
DA:1879,8
DA:1880,8
DA:1900,8
DA:1902,8
DA:1903,8
DA:1904,8
DA:1906,8
DA:1907,8
DA:1912,8
DA:1913,8
DA:1914,8
DA:1915,8
DA:1917,8
DA:1918,0
DA:1919,0
DA:1920,0
DA:1921,0
DA:1923,8
DA:1924,8
DA:1925,8
DA:1926,8
DA:1932,37
DA:1933,37
LF:253
LH:235
end_of_record
TN:
SF:/Library/Developer/CommandLineTools/SDKs/MacOSX.sdk/usr/include/c++/v1/__iterator/access.h
FNL:0,40,41
FNA:0,18,_ZNSt3__15beginB8ne200100INS_12basic_stringIcNS_11char_traitsIcEENS_9allocatorIcEEEEEEDTcldtfp_5beginEERKT_
FNA:0,7,_ZNSt3__15beginB8ne200100INS_3mapINS_12basic_stringIcNS_11char_traitsIcEENS_9allocatorIcEEEES7_NS_4lessIS7_EENS5_INS_4pairIKS7_S7_EEEEEEEEDTcldtfp_5beginEERKT_
FNL:1,50,51
FNA:1,18,_ZNSt3__13endB8ne200100INS_12basic_stringIcNS_11char_traitsIcEENS_9allocatorIcEEEEEEDTcldtfp_3endEERKT_
FNA:1,7,_ZNSt3__13endB8ne200100INS_3mapINS_12basic_stringIcNS_11char_traitsIcEENS_9allocatorIcEEEES7_NS_4lessIS7_EENS5_INS_4pairIKS7_S7_EEEEEEEEDTcldtfp_3endEERKT_
FNF:2
FNH:2
DA:40,25
DA:41,25
DA:50,25
DA:51,25
LF:4
LH:4
end_of_record
TN:
SF:/Library/Developer/CommandLineTools/SDKs/MacOSX.sdk/usr/include/c++/v1/__iterator/advance.h
FNL:0,46,53
FNA:0,0,_ZNSt3__19__advanceB8ne200100INS_14__map_iteratorINS_15__tree_iteratorINS_12__value_typeINS_12basic_stringIcNS_11char_traitsIcEENS_9allocatorIcEEEEN8nlohmann16json_abi_v3_12_010basic_jsonINS_3mapENS_6vectorES9_bxydS7_NSB_14adl_serializerENSE_IhNS7_IhEEEEvEEEEPNS_11__tree_nodeISJ_PvEElEEEEEEvRT_NS_15iterator_traitsISQ_E15difference_typeENS_26bidirectional_iterator_tagE
FNA:0,26,_ZNSt3__19__advanceB8ne200100INS_20__map_const_iteratorINS_21__tree_const_iteratorINS_12__value_typeINS_12basic_stringIcNS_11char_traitsIcEENS_9allocatorIcEEEEN8nlohmann16json_abi_v3_12_010basic_jsonINS_3mapENS_6vectorES9_bxydS7_NSB_14adl_serializerENSE_IhNS7_IhEEEEvEEEEPNS_11__tree_nodeISJ_PvEElEEEEEEvRT_NS_15iterator_traitsISQ_E15difference_typeENS_26bidirectional_iterator_tagE
FNA:0,0,_ZNSt3__19__advanceB8ne200100INS_21__tree_const_iteratorINS_12__value_typeINS_12basic_stringIcNS_11char_traitsIcEENS_9allocatorIcEEEEN8nlohmann16json_abi_v3_12_010basic_jsonINS_3mapENS_6vectorES8_bxydS6_NSA_14adl_serializerENSD_IhNS6_IhEEEEvEEEEPNS_11__tree_nodeISI_PvEElEEEEvRT_NS_15iterator_traitsISO_E15difference_typeENS_26bidirectional_iterator_tagE
FNA:0,0,_ZNSt3__19__advanceB8ne200100INS_21__tree_const_iteratorINS_12__value_typeINS_12basic_stringIcNS_11char_traitsIcEENS_9allocatorIcEEEES8_EEPNS_11__tree_nodeIS9_PvEElEEEEvRT_NS_15iterator_traitsISF_E15difference_typeENS_26bidirectional_iterator_tagE
FNL:1,57,59
FNA:1,5297,_ZNSt3__19__advanceB8ne200100INS_11__wrap_iterIPKcEEEEvRT_NS_15iterator_traitsIS5_E15difference_typeENS_26random_access_iterator_tagE
FNA:1,5,_ZNSt3__19__advanceB8ne200100INS_11__wrap_iterIPKhEEEEvRT_NS_15iterator_traitsIS5_E15difference_typeENS_26random_access_iterator_tagE
FNA:1,0,_ZNSt3__19__advanceB8ne200100INS_11__wrap_iterIPN8nlohmann16json_abi_v3_12_010basic_jsonINS_3mapENS_6vectorENS_12basic_stringIcNS_11char_traitsIcEENS_9allocatorIcEEEEbxydSA_NS3_14adl_serializerENS6_IhNSA_IhEEEEvEEEEEEvRT_NS_15iterator_traitsISJ_E15difference_typeENS_26random_access_iterator_tagE
FNA:1,22,_ZNSt3__19__advanceB8ne200100INS_11__wrap_iterIPhEEEEvRT_NS_15iterator_traitsIS4_E15difference_typeENS_26random_access_iterator_tagE
FNA:1,8,_ZNSt3__19__advanceB8ne200100IPKhEEvRT_NS_15iterator_traitsIS3_E15difference_typeENS_26random_access_iterator_tagE
FNA:1,0,_ZNSt3__19__advanceB8ne200100IPhEEvRT_NS_15iterator_traitsIS2_E15difference_typeENS_26random_access_iterator_tagE
FNL:2,65,72
FNA:2,5297,_ZNSt3__17advanceB8ne200100INS_11__wrap_iterIPKcEEiiLi0EEEvRT_T0_
FNA:2,0,_ZNSt3__17advanceB8ne200100INS_11__wrap_iterIPKcEEllLi0EEEvRT_T0_
FNA:2,5,_ZNSt3__17advanceB8ne200100INS_11__wrap_iterIPKhEEllLi0EEEvRT_T0_
FNA:2,0,_ZNSt3__17advanceB8ne200100INS_11__wrap_iterIPN8nlohmann16json_abi_v3_12_010basic_jsonINS_3mapENS_6vectorENS_12basic_stringIcNS_11char_traitsIcEENS_9allocatorIcEEEEbxydSA_NS3_14adl_serializerENS6_IhNSA_IhEEEEvEEEEiiLi0EEEvRT_T0_
FNA:2,22,_ZNSt3__17advanceB8ne200100INS_11__wrap_iterIPhEEllLi0EEEvRT_T0_
FNA:2,0,_ZNSt3__17advanceB8ne200100INS_14__map_iteratorINS_15__tree_iteratorINS_12__value_typeINS_12basic_stringIcNS_11char_traitsIcEENS_9allocatorIcEEEEN8nlohmann16json_abi_v3_12_010basic_jsonINS_3mapENS_6vectorES9_bxydS7_NSB_14adl_serializerENSE_IhNS7_IhEEEEvEEEEPNS_11__tree_nodeISJ_PvEElEEEEiiLi0EEEvRT_T0_
FNA:2,26,_ZNSt3__17advanceB8ne200100INS_20__map_const_iteratorINS_21__tree_const_iteratorINS_12__value_typeINS_12basic_stringIcNS_11char_traitsIcEENS_9allocatorIcEEEEN8nlohmann16json_abi_v3_12_010basic_jsonINS_3mapENS_6vectorES9_bxydS7_NSB_14adl_serializerENSE_IhNS7_IhEEEEvEEEEPNS_11__tree_nodeISJ_PvEElEEEEllLi0EEEvRT_T0_
FNA:2,0,_ZNSt3__17advanceB8ne200100INS_21__tree_const_iteratorINS_12__value_typeINS_12basic_stringIcNS_11char_traitsIcEENS_9allocatorIcEEEEN8nlohmann16json_abi_v3_12_010basic_jsonINS_3mapENS_6vectorES8_bxydS6_NSA_14adl_serializerENSD_IhNS6_IhEEEEvEEEEPNS_11__tree_nodeISI_PvEElEEllLi0EEEvRT_T0_
FNA:2,0,_ZNSt3__17advanceB8ne200100INS_21__tree_const_iteratorINS_12__value_typeINS_12basic_stringIcNS_11char_traitsIcEENS_9allocatorIcEEEES8_EEPNS_11__tree_nodeIS9_PvEElEEllLi0EEEvRT_T0_
FNA:2,8,_ZNSt3__17advanceB8ne200100IPKhllLi0EEEvRT_T0_
FNA:2,0,_ZNSt3__17advanceB8ne200100IPhllLi0EEEvRT_T0_
FNF:3
FNH:3
DA:46,26
DA:47,26
DA:48,52
DA:49,52
DA:51,0
DA:52,0
DA:53,26
DA:57,5332
DA:58,5332
DA:59,5332
DA:65,5358
DA:67,5358
DA:71,5358
DA:72,5358
LF:14
LH:12
end_of_record
TN:
SF:/Library/Developer/CommandLineTools/SDKs/MacOSX.sdk/usr/include/c++/v1/__iterator/back_insert_iterator.h
FNL:0,53,54
FNA:0,0,_ZNSt3__120back_insert_iteratorINS_6vectorIN8nlohmann16json_abi_v3_12_010basic_jsonINS_3mapES1_NS_12basic_stringIcNS_11char_traitsIcEENS_9allocatorIcEEEEbxydS9_NS3_14adl_serializerENS1_IhNS9_IhEEEEvEENS9_ISF_EEEEEC1B8ne200100ERSH_
FNA:0,0,_ZNSt3__120back_insert_iteratorINS_6vectorIN8nlohmann16json_abi_v3_12_010basic_jsonINS_3mapES1_NS_12basic_stringIcNS_11char_traitsIcEENS_9allocatorIcEEEEbxydS9_NS3_14adl_serializerENS1_IhNS9_IhEEEEvEENS9_ISF_EEEEEC2B8ne200100ERSH_
FNL:1,62,64
FNA:1,0,_ZNSt3__120back_insert_iteratorINS_6vectorIN8nlohmann16json_abi_v3_12_010basic_jsonINS_3mapES1_NS_12basic_stringIcNS_11char_traitsIcEENS_9allocatorIcEEEEbxydS9_NS3_14adl_serializerENS1_IhNS9_IhEEEEvEENS9_ISF_EEEEEaSB8ne200100EOSF_
FNL:2,67,67
FNA:2,0,_ZNSt3__120back_insert_iteratorINS_6vectorIN8nlohmann16json_abi_v3_12_010basic_jsonINS_3mapES1_NS_12basic_stringIcNS_11char_traitsIcEENS_9allocatorIcEEEEbxydS9_NS3_14adl_serializerENS1_IhNS9_IhEEEEvEENS9_ISF_EEEEEdeB8ne200100Ev
FNL:3,68,68
FNA:3,0,_ZNSt3__120back_insert_iteratorINS_6vectorIN8nlohmann16json_abi_v3_12_010basic_jsonINS_3mapES1_NS_12basic_stringIcNS_11char_traitsIcEENS_9allocatorIcEEEEbxydS9_NS3_14adl_serializerENS1_IhNS9_IhEEEEvEENS9_ISF_EEEEEppB8ne200100Ev
FNL:4,77,78
FNA:4,0,_ZNSt3__113back_inserterB8ne200100INS_6vectorIN8nlohmann16json_abi_v3_12_010basic_jsonINS_3mapES1_NS_12basic_stringIcNS_11char_traitsIcEENS_9allocatorIcEEEEbxydS9_NS3_14adl_serializerENS1_IhNS9_IhEEEEvEENS9_ISF_EEEEEENS_20back_insert_iteratorIT_EERSJ_
FNF:5
FNH:0
DA:53,0
DA:54,0
DA:62,0
DA:63,0
DA:64,0
DA:67,0
DA:68,0
DA:77,0
DA:78,0
LF:9
LH:0
end_of_record
TN:
SF:/Library/Developer/CommandLineTools/SDKs/MacOSX.sdk/usr/include/c++/v1/__iterator/distance.h
FNL:0,40,41
FNA:0,4,_ZNSt3__110__distanceB8ne200100INS_11__wrap_iterIPKcEEEENS_15iterator_traitsIT_E15difference_typeES6_S6_NS_26random_access_iterator_tagE
FNA:0,59,_ZNSt3__110__distanceB8ne200100INS_11__wrap_iterIPKhEEEENS_15iterator_traitsIT_E15difference_typeES6_S6_NS_26random_access_iterator_tagE
FNA:0,19,_ZNSt3__110__distanceB8ne200100INS_11__wrap_iterIPcEEEENS_15iterator_traitsIT_E15difference_typeES5_S5_NS_26random_access_iterator_tagE
FNA:0,69,_ZNSt3__110__distanceB8ne200100INS_11__wrap_iterIPhEEEENS_15iterator_traitsIT_E15difference_typeES5_S5_NS_26random_access_iterator_tagE
FNA:0,0,_ZNSt3__110__distanceB8ne200100INS_13move_iteratorIPPNS_4pairINS_6chrono10time_pointINS3_12steady_clockENS3_8durationIxNS_5ratioILl1ELl1000000000EEEEEEEmEEEEEENS_15iterator_traitsIT_E15difference_typeESG_SG_NS_26random_access_iterator_tagE
FNA:0,208,_ZNSt3__110__distanceB8ne200100IPKhEENS_15iterator_traitsIT_E15difference_typeES4_S4_NS_26random_access_iterator_tagE
FNA:0,8,_ZNSt3__110__distanceB8ne200100IPhEENS_15iterator_traitsIT_E15difference_typeES3_S3_NS_26random_access_iterator_tagE
FNL:1,46,47
FNA:1,4,_ZNSt3__18distanceB8ne200100INS_11__wrap_iterIPKcEEEENS_15iterator_traitsIT_E15difference_typeES6_S6_
FNA:1,59,_ZNSt3__18distanceB8ne200100INS_11__wrap_iterIPKhEEEENS_15iterator_traitsIT_E15difference_typeES6_S6_
FNA:1,19,_ZNSt3__18distanceB8ne200100INS_11__wrap_iterIPcEEEENS_15iterator_traitsIT_E15difference_typeES5_S5_
FNA:1,69,_ZNSt3__18distanceB8ne200100INS_11__wrap_iterIPhEEEENS_15iterator_traitsIT_E15difference_typeES5_S5_
FNA:1,0,_ZNSt3__18distanceB8ne200100INS_13move_iteratorIPPNS_4pairINS_6chrono10time_pointINS3_12steady_clockENS3_8durationIxNS_5ratioILl1ELl1000000000EEEEEEEmEEEEEENS_15iterator_traitsIT_E15difference_typeESG_SG_
FNA:1,208,_ZNSt3__18distanceB8ne200100IPKhEENS_15iterator_traitsIT_E15difference_typeES4_S4_
FNA:1,8,_ZNSt3__18distanceB8ne200100IPhEENS_15iterator_traitsIT_E15difference_typeES3_S3_
FNF:2
FNH:2
DA:40,367
DA:41,367
DA:46,367
DA:47,367
LF:4
LH:4
end_of_record
TN:
SF:/Library/Developer/CommandLineTools/SDKs/MacOSX.sdk/usr/include/c++/v1/__iterator/insert_iterator.h
FNL:0,64,65
FNA:0,7,_ZNSt3__115insert_iteratorINS_3mapINS_12basic_stringIcNS_11char_traitsIcEENS_9allocatorIcEEEES7_NS_4lessIS7_EENS5_INS_4pairIKS7_S7_EEEEEEEC1B8ne200100ERSE_NS_14__map_iteratorINS_15__tree_iteratorINS_12__value_typeIS7_S7_EEPNS_11__tree_nodeISK_PvEElEEEE
FNA:0,7,_ZNSt3__115insert_iteratorINS_3mapINS_12basic_stringIcNS_11char_traitsIcEENS_9allocatorIcEEEES7_NS_4lessIS7_EENS5_INS_4pairIKS7_S7_EEEEEEEC2B8ne200100ERSE_NS_14__map_iteratorINS_15__tree_iteratorINS_12__value_typeIS7_S7_EEPNS_11__tree_nodeISK_PvEElEEEE
FNL:1,74,77
FNA:1,18,_ZNSt3__115insert_iteratorINS_3mapINS_12basic_stringIcNS_11char_traitsIcEENS_9allocatorIcEEEES7_NS_4lessIS7_EENS5_INS_4pairIKS7_S7_EEEEEEEaSB8ne200100EOSC_
FNL:2,80,80
FNA:2,18,_ZNSt3__115insert_iteratorINS_3mapINS_12basic_stringIcNS_11char_traitsIcEENS_9allocatorIcEEEES7_NS_4lessIS7_EENS5_INS_4pairIKS7_S7_EEEEEEEdeB8ne200100Ev
FNL:3,81,81
FNA:3,18,_ZNSt3__115insert_iteratorINS_3mapINS_12basic_stringIcNS_11char_traitsIcEENS_9allocatorIcEEEES7_NS_4lessIS7_EENS5_INS_4pairIKS7_S7_EEEEEEEppB8ne200100Ev
FNL:4,87,88
FNA:4,7,_ZNSt3__18inserterB8ne200100INS_3mapINS_12basic_stringIcNS_11char_traitsIcEENS_9allocatorIcEEEES7_NS_4lessIS7_EENS5_INS_4pairIKS7_S7_EEEEEEEENS_15insert_iteratorIT_EERSG_DTclL_ZNS_6ranges5__cpo5beginEEclsr3stdE7declvalISI_EEEE
FNF:5
FNH:5
DA:64,14
DA:65,14
DA:74,18
DA:75,18
DA:76,18
DA:77,18
DA:80,18
DA:81,18
DA:87,7
DA:88,7
LF:10
LH:10
end_of_record
TN:
SF:/Library/Developer/CommandLineTools/SDKs/MacOSX.sdk/usr/include/c++/v1/__iterator/iter_move.h
FNL:0,72,74
FNA:0,0,_ZNKSt3__16ranges11__iter_move4__fnclB8ne200100IRKPPNS_4pairINS_6chrono10time_pointINS5_12steady_clockENS5_8durationIxNS_5ratioILl1ELl1000000000EEEEEEEmEEEEDTclsr3stdE4movedeclsr3stdE7forwardIT_Efp_EEEOSI_
FNF:1
FNH:0
DA:72,0
DA:74,0
LF:2
LH:0
end_of_record
TN:
SF:/Library/Developer/CommandLineTools/SDKs/MacOSX.sdk/usr/include/c++/v1/__iterator/move_iterator.h
FNL:0,112,112
FNA:0,0,_ZNSt3__113move_iteratorIPPNS_4pairINS_6chrono10time_pointINS2_12steady_clockENS2_8durationIxNS_5ratioILl1ELl1000000000EEEEEEEmEEEC1B8ne200100ESC_
FNA:0,0,_ZNSt3__113move_iteratorIPPNS_4pairINS_6chrono10time_pointINS2_12steady_clockENS2_8durationIxNS_5ratioILl1ELl1000000000EEEEEEEmEEEC2B8ne200100ESC_
FNL:1,114,116
FNA:1,0,_ZNSt3__113move_iteratorIPPNS_4pairINS_6chrono10time_pointINS2_12steady_clockENS2_8durationIxNS_5ratioILl1ELl1000000000EEEEEEEmEEEppB8ne200100Ev
FNL:2,139,139
FNA:2,0,_ZNKRSt3__113move_iteratorIPPNS_4pairINS_6chrono10time_pointINS2_12steady_clockENS2_8durationIxNS_5ratioILl1ELl1000000000EEEEEEEmEEE4baseB8ne200100Ev
FNL:3,142,142
FNA:3,0,_ZNKSt3__113move_iteratorIPPNS_4pairINS_6chrono10time_pointINS2_12steady_clockENS2_8durationIxNS_5ratioILl1ELl1000000000EEEEEEEmEEEdeB8ne200100Ev
FNL:4,303,304
FNA:4,0,_ZNSt3__1miB8ne200100IPPNS_4pairINS_6chrono10time_pointINS2_12steady_clockENS2_8durationIxNS_5ratioILl1ELl1000000000EEEEEEEmEESC_EEDTmicldtfp_4baseEcldtfp0_4baseEERKNS_13move_iteratorIT_EERKNSE_IT0_EE
FNF:5
FNH:0
DA:112,0
DA:114,0
DA:115,0
DA:116,0
DA:139,0
DA:142,0
DA:303,0
DA:304,0
LF:8
LH:0
end_of_record
TN:
SF:/Library/Developer/CommandLineTools/SDKs/MacOSX.sdk/usr/include/c++/v1/__iterator/next.h
FNL:0,29,36
FNA:0,0,_ZNSt3__14nextB8ne200100INS_11__wrap_iterIPKcEELi0EEET_S5_NS_15iterator_traitsIS5_E15difference_typeE
FNA:0,5,_ZNSt3__14nextB8ne200100INS_11__wrap_iterIPKhEELi0EEET_S5_NS_15iterator_traitsIS5_E15difference_typeE
FNA:0,22,_ZNSt3__14nextB8ne200100INS_11__wrap_iterIPhEELi0EEET_S4_NS_15iterator_traitsIS4_E15difference_typeE
FNA:0,26,_ZNSt3__14nextB8ne200100INS_20__map_const_iteratorINS_21__tree_const_iteratorINS_12__value_typeINS_12basic_stringIcNS_11char_traitsIcEENS_9allocatorIcEEEEN8nlohmann16json_abi_v3_12_010basic_jsonINS_3mapENS_6vectorES9_bxydS7_NSB_14adl_serializerENSE_IhNS7_IhEEEEvEEEEPNS_11__tree_nodeISJ_PvEElEEEELi0EEET_SQ_NS_15iterator_traitsISQ_E15difference_typeE
FNA:0,0,_ZNSt3__14nextB8ne200100INS_21__tree_const_iteratorINS_12__value_typeINS_12basic_stringIcNS_11char_traitsIcEENS_9allocatorIcEEEEN8nlohmann16json_abi_v3_12_010basic_jsonINS_3mapENS_6vectorES8_bxydS6_NSA_14adl_serializerENSD_IhNS6_IhEEEEvEEEEPNS_11__tree_nodeISI_PvEElEELi0EEET_SO_NS_15iterator_traitsISO_E15difference_typeE
FNA:0,0,_ZNSt3__14nextB8ne200100INS_21__tree_const_iteratorINS_12__value_typeINS_12basic_stringIcNS_11char_traitsIcEENS_9allocatorIcEEEES8_EEPNS_11__tree_nodeIS9_PvEElEELi0EEET_SF_NS_15iterator_traitsISF_E15difference_typeE
FNA:0,8,_ZNSt3__14nextB8ne200100IPKhLi0EEET_S3_NS_15iterator_traitsIS3_E15difference_typeE
FNA:0,0,_ZNSt3__14nextB8ne200100IPhLi0EEET_S2_NS_15iterator_traitsIS2_E15difference_typeE
FNF:1
FNH:1
DA:29,61
DA:35,61
DA:36,61
LF:3
LH:3
end_of_record
TN:
SF:/Library/Developer/CommandLineTools/SDKs/MacOSX.sdk/usr/include/c++/v1/__iterator/ostreambuf_iterator.h
FNL:0,56,56
FNA:0,6990,_ZNSt3__119ostreambuf_iteratorIcNS_11char_traitsIcEEEC1B8ne200100ERNS_13basic_ostreamIcS2_EE
FNA:0,6990,_ZNSt3__119ostreambuf_iteratorIcNS_11char_traitsIcEEEC2B8ne200100ERNS_13basic_ostreamIcS2_EE
FNL:1,66,66
FNA:1,6990,_ZNKSt3__119ostreambuf_iteratorIcNS_11char_traitsIcEEE6failedB8ne200100Ev
FNF:2
FNH:2
DA:56,13980
DA:66,6990
LF:2
LH:2
end_of_record
TN:
SF:/Library/Developer/CommandLineTools/SDKs/MacOSX.sdk/usr/include/c++/v1/__iterator/reverse_iterator.h
FNL:0,129,129
FNA:0,0,_ZNKSt3__116reverse_iteratorIPN3p2p5relay13StunAttributeEE4baseB8ne200100Ev
FNA:0,0,_ZNKSt3__116reverse_iteratorIPN3p2p5relay7AddressEE4baseB8ne200100Ev
FNA:0,0,_ZNKSt3__116reverse_iteratorIPN3p2p8protocol13StunAttributeEE4baseB8ne200100Ev
FNA:0,0,_ZNKSt3__116reverse_iteratorIPN5boost4asio2ip20basic_resolver_entryINS3_3udpEEEE4baseB8ne200100Ev
FNA:0,0,_ZNKSt3__116reverse_iteratorIPN8nlohmann16json_abi_v3_12_010basic_jsonINS_3mapENS_6vectorENS_12basic_stringIcNS_11char_traitsIcEENS_9allocatorIcEEEEbxydS9_NS2_14adl_serializerENS5_IhNS9_IhEEEEvEEE4baseB8ne200100Ev
FNA:0,0,_ZNKSt3__116reverse_iteratorIPNS_6threadEE4baseB8ne200100Ev
FNA:0,0,_ZNKSt3__116reverse_iteratorIPhE4baseB8ne200100Ev
FNL:1,136,142
FNA:1,0,_ZNKSt3__116reverse_iteratorIPN3p2p5relay13StunAttributeEEptB8ne200100Ev
FNA:1,0,_ZNKSt3__116reverse_iteratorIPN3p2p5relay7AddressEEptB8ne200100Ev
FNA:1,0,_ZNKSt3__116reverse_iteratorIPN3p2p8protocol13StunAttributeEEptB8ne200100Ev
FNA:1,0,_ZNKSt3__116reverse_iteratorIPN5boost4asio2ip20basic_resolver_entryINS3_3udpEEEEptB8ne200100Ev
FNA:1,0,_ZNKSt3__116reverse_iteratorIPN8nlohmann16json_abi_v3_12_010basic_jsonINS_3mapENS_6vectorENS_12basic_stringIcNS_11char_traitsIcEENS_9allocatorIcEEEEbxydS9_NS2_14adl_serializerENS5_IhNS9_IhEEEEvEEEptB8ne200100Ev
FNA:1,0,_ZNKSt3__116reverse_iteratorIPNS_6threadEEptB8ne200100Ev
FNA:1,0,_ZNKSt3__116reverse_iteratorIPhEptB8ne200100Ev
FNL:2,151,153
FNA:2,0,_ZNSt3__116reverse_iteratorIPN3p2p5relay13StunAttributeEEppB8ne200100Ev
FNA:2,0,_ZNSt3__116reverse_iteratorIPN3p2p5relay7AddressEEppB8ne200100Ev
FNA:2,0,_ZNSt3__116reverse_iteratorIPN3p2p8protocol13StunAttributeEEppB8ne200100Ev
FNA:2,0,_ZNSt3__116reverse_iteratorIPN5boost4asio2ip20basic_resolver_entryINS3_3udpEEEEppB8ne200100Ev
FNA:2,0,_ZNSt3__116reverse_iteratorIPN8nlohmann16json_abi_v3_12_010basic_jsonINS_3mapENS_6vectorENS_12basic_stringIcNS_11char_traitsIcEENS_9allocatorIcEEEEbxydS9_NS2_14adl_serializerENS5_IhNS9_IhEEEEvEEEppB8ne200100Ev
FNA:2,0,_ZNSt3__116reverse_iteratorIPNS_6threadEEppB8ne200100Ev
FNA:2,0,_ZNSt3__116reverse_iteratorIPhEppB8ne200100Ev
FNL:3,232,239
FNA:3,0,_ZNSt3__1neB8ne200100IPN3p2p5relay13StunAttributeES4_EEbRKNS_16reverse_iteratorIT_EERKNS5_IT0_EE
FNA:3,0,_ZNSt3__1neB8ne200100IPN3p2p5relay7AddressES4_EEbRKNS_16reverse_iteratorIT_EERKNS5_IT0_EE
FNA:3,0,_ZNSt3__1neB8ne200100IPN3p2p8protocol13StunAttributeES4_EEbRKNS_16reverse_iteratorIT_EERKNS5_IT0_EE
FNA:3,0,_ZNSt3__1neB8ne200100IPN5boost4asio2ip20basic_resolver_entryINS3_3udpEEES7_EEbRKNS_16reverse_iteratorIT_EERKNS8_IT0_EE
FNA:3,0,_ZNSt3__1neB8ne200100IPN8nlohmann16json_abi_v3_12_010basic_jsonINS_3mapENS_6vectorENS_12basic_stringIcNS_11char_traitsIcEENS_9allocatorIcEEEEbxydS9_NS2_14adl_serializerENS5_IhNS9_IhEEEEvEESG_EEbRKNS_16reverse_iteratorIT_EERKNSH_IT0_EE
FNA:3,0,_ZNSt3__1neB8ne200100IPNS_6threadES2_EEbRKNS_16reverse_iteratorIT_EERKNS3_IT0_EE
FNA:3,0,_ZNSt3__1neB8ne200100IPhS1_EEbRKNS_16reverse_iteratorIT_EERKNS2_IT0_EE
FNL:4,97,97
FNA:4,0,_ZNSt3__116reverse_iteratorIPN3p2p5relay13StunAttributeEEC1B8ne200100ES4_
FNA:4,0,_ZNSt3__116reverse_iteratorIPN3p2p5relay13StunAttributeEEC2B8ne200100ES4_
FNA:4,0,_ZNSt3__116reverse_iteratorIPN3p2p5relay7AddressEEC1B8ne200100ES4_
FNA:4,0,_ZNSt3__116reverse_iteratorIPN3p2p5relay7AddressEEC2B8ne200100ES4_
FNA:4,0,_ZNSt3__116reverse_iteratorIPN3p2p8protocol13StunAttributeEEC1B8ne200100ES4_
FNA:4,0,_ZNSt3__116reverse_iteratorIPN3p2p8protocol13StunAttributeEEC2B8ne200100ES4_
FNA:4,0,_ZNSt3__116reverse_iteratorIPN5boost4asio2ip20basic_resolver_entryINS3_3udpEEEEC1B8ne200100ES7_
FNA:4,0,_ZNSt3__116reverse_iteratorIPN5boost4asio2ip20basic_resolver_entryINS3_3udpEEEEC2B8ne200100ES7_
FNA:4,0,_ZNSt3__116reverse_iteratorIPN8nlohmann16json_abi_v3_12_010basic_jsonINS_3mapENS_6vectorENS_12basic_stringIcNS_11char_traitsIcEENS_9allocatorIcEEEEbxydS9_NS2_14adl_serializerENS5_IhNS9_IhEEEEvEEEC1B8ne200100ESG_
FNA:4,0,_ZNSt3__116reverse_iteratorIPN8nlohmann16json_abi_v3_12_010basic_jsonINS_3mapENS_6vectorENS_12basic_stringIcNS_11char_traitsIcEENS_9allocatorIcEEEEbxydS9_NS2_14adl_serializerENS5_IhNS9_IhEEEEvEEEC2B8ne200100ESG_
FNA:4,0,_ZNSt3__116reverse_iteratorIPNS_6threadEEC1B8ne200100ES2_
FNA:4,0,_ZNSt3__116reverse_iteratorIPNS_6threadEEC2B8ne200100ES2_
FNA:4,0,_ZNSt3__116reverse_iteratorIPhEC1B8ne200100ES1_
FNA:4,0,_ZNSt3__116reverse_iteratorIPhEC2B8ne200100ES1_
FNF:5
FNH:0
DA:97,0
DA:129,0
DA:136,0
DA:139,0
DA:140,0
DA:142,0
DA:151,0
DA:152,0
DA:153,0
DA:232,0
DA:239,0
LF:11
LH:0
end_of_record
TN:
SF:/Library/Developer/CommandLineTools/SDKs/MacOSX.sdk/usr/include/c++/v1/__iterator/wrap_iter.h
FNL:0,103,103
FNA:0,16,_ZNKSt3__111__wrap_iterIPKN3p2p5relay13StunAttributeEE4baseB8ne200100Ev
FNA:0,120,_ZNKSt3__111__wrap_iterIPKN3p2p8protocol13StunAttributeEE4baseB8ne200100Ev
FNA:0,0,_ZNKSt3__111__wrap_iterIPKN8nlohmann16json_abi_v3_12_010basic_jsonINS_3mapENS_6vectorENS_12basic_stringIcNS_11char_traitsIcEENS_9allocatorIcEEEEbxydS9_NS2_14adl_serializerENS5_IhNS9_IhEEEEvEEE4baseB8ne200100Ev
FNA:0,10668,_ZNKSt3__111__wrap_iterIPKcE4baseB8ne200100Ev
FNA:0,11415,_ZNKSt3__111__wrap_iterIPKhE4baseB8ne200100Ev
FNA:0,10,_ZNKSt3__111__wrap_iterIPN3p2p5relay7AddressEE4baseB8ne200100Ev
FNA:0,0,_ZNKSt3__111__wrap_iterIPN8nlohmann16json_abi_v3_12_010basic_jsonINS_3mapENS_6vectorENS_12basic_stringIcNS_11char_traitsIcEENS_9allocatorIcEEEEbxydS9_NS2_14adl_serializerENS5_IhNS9_IhEEEEvEEE4baseB8ne200100Ev
FNA:0,22,_ZNKSt3__111__wrap_iterIPNS_10shared_ptrIN3p2p5relay14TurnAllocationEEEE4baseB8ne200100Ev
FNA:0,96,_ZNKSt3__111__wrap_iterIPNS_10unique_ptrIN3p2p7testing10TestClientENS_14default_deleteIS4_EEEEE4baseB8ne200100Ev
FNA:0,2,_ZNKSt3__111__wrap_iterIPNS_12basic_stringIcNS_11char_traitsIcEENS_9allocatorIcEEEEE4baseB8ne200100Ev
FNA:0,20,_ZNKSt3__111__wrap_iterIPNS_4pairIN3p2p9detection12DeviceVendorEdEEE4baseB8ne200100Ev
FNA:0,352,_ZNKSt3__111__wrap_iterIPNS_6threadEE4baseB8ne200100Ev
FNA:0,76,_ZNKSt3__111__wrap_iterIPcE4baseB8ne200100Ev
FNA:0,592,_ZNKSt3__111__wrap_iterIPhE4baseB8ne200100Ev
FNL:1,106,106
FNA:1,10,_ZNSt3__111__wrap_iterIPKN3p2p5relay13StunAttributeEEC1B8ne200100ES5_
FNA:1,10,_ZNSt3__111__wrap_iterIPKN3p2p5relay13StunAttributeEEC2B8ne200100ES5_
FNA:1,82,_ZNSt3__111__wrap_iterIPKN3p2p8protocol13StunAttributeEEC1B8ne200100ES5_
FNA:1,82,_ZNSt3__111__wrap_iterIPKN3p2p8protocol13StunAttributeEEC2B8ne200100ES5_
FNA:1,0,_ZNSt3__111__wrap_iterIPKN8nlohmann16json_abi_v3_12_010basic_jsonINS_3mapENS_6vectorENS_12basic_stringIcNS_11char_traitsIcEENS_9allocatorIcEEEEbxydS9_NS2_14adl_serializerENS5_IhNS9_IhEEEEvEEEC1B8ne200100ESH_
FNA:1,0,_ZNSt3__111__wrap_iterIPKN8nlohmann16json_abi_v3_12_010basic_jsonINS_3mapENS_6vectorENS_12basic_stringIcNS_11char_traitsIcEENS_9allocatorIcEEEEbxydS9_NS2_14adl_serializerENS5_IhNS9_IhEEEEvEEEC2B8ne200100ESH_
FNA:1,48,_ZNSt3__111__wrap_iterIPKcEC1B8ne200100ES2_
FNA:1,48,_ZNSt3__111__wrap_iterIPKcEC2B8ne200100ES2_
FNA:1,145,_ZNSt3__111__wrap_iterIPKhEC1B8ne200100ES2_
FNA:1,145,_ZNSt3__111__wrap_iterIPKhEC2B8ne200100ES2_
FNA:1,2,_ZNSt3__111__wrap_iterIPN3p2p5relay7AddressEEC1B8ne200100ES4_
FNA:1,2,_ZNSt3__111__wrap_iterIPN3p2p5relay7AddressEEC2B8ne200100ES4_
FNA:1,0,_ZNSt3__111__wrap_iterIPN8nlohmann16json_abi_v3_12_010basic_jsonINS_3mapENS_6vectorENS_12basic_stringIcNS_11char_traitsIcEENS_9allocatorIcEEEEbxydS9_NS2_14adl_serializerENS5_IhNS9_IhEEEEvEEEC1B8ne200100ESG_
FNA:1,0,_ZNSt3__111__wrap_iterIPN8nlohmann16json_abi_v3_12_010basic_jsonINS_3mapENS_6vectorENS_12basic_stringIcNS_11char_traitsIcEENS_9allocatorIcEEEEbxydS9_NS2_14adl_serializerENS5_IhNS9_IhEEEEvEEEC2B8ne200100ESG_
FNA:1,2,_ZNSt3__111__wrap_iterIPNS_10shared_ptrIN3p2p5relay14TurnAllocationEEEEC1B8ne200100ES6_
FNA:1,2,_ZNSt3__111__wrap_iterIPNS_10shared_ptrIN3p2p5relay14TurnAllocationEEEEC2B8ne200100ES6_
FNA:1,6,_ZNSt3__111__wrap_iterIPNS_10unique_ptrIN3p2p7testing10TestClientENS_14default_deleteIS4_EEEEEC1B8ne200100ES8_
FNA:1,6,_ZNSt3__111__wrap_iterIPNS_10unique_ptrIN3p2p7testing10TestClientENS_14default_deleteIS4_EEEEEC2B8ne200100ES8_
FNA:1,2,_ZNSt3__111__wrap_iterIPNS_12basic_stringIcNS_11char_traitsIcEENS_9allocatorIcEEEEEC1B8ne200100ES7_
FNA:1,2,_ZNSt3__111__wrap_iterIPNS_12basic_stringIcNS_11char_traitsIcEENS_9allocatorIcEEEEEC2B8ne200100ES7_
FNA:1,10,_ZNSt3__111__wrap_iterIPNS_4pairIN3p2p9detection12DeviceVendorEdEEEC1B8ne200100ES6_
FNA:1,10,_ZNSt3__111__wrap_iterIPNS_4pairIN3p2p9detection12DeviceVendorEdEEEC2B8ne200100ES6_
FNA:1,14,_ZNSt3__111__wrap_iterIPNS_6threadEEC1B8ne200100ES2_
FNA:1,14,_ZNSt3__111__wrap_iterIPNS_6threadEEC2B8ne200100ES2_
FNA:1,38,_ZNSt3__111__wrap_iterIPcEC1B8ne200100ES1_
FNA:1,38,_ZNSt3__111__wrap_iterIPcEC2B8ne200100ES1_
FNA:1,1061,_ZNSt3__111__wrap_iterIPhEC1B8ne200100ES1_
FNA:1,1061,_ZNSt3__111__wrap_iterIPhEC2B8ne200100ES1_
FNL:2,124,125
FNA:2,8,_ZNSt3__1eqB8ne200100IPKN3p2p5relay13StunAttributeEEEbRKNS_11__wrap_iterIT_EESA_
FNA:2,60,_ZNSt3__1eqB8ne200100IPKN3p2p8protocol13StunAttributeEEEbRKNS_11__wrap_iterIT_EESA_
FNA:2,0,_ZNSt3__1eqB8ne200100IPKN8nlohmann16json_abi_v3_12_010basic_jsonINS_3mapENS_6vectorENS_12basic_stringIcNS_11char_traitsIcEENS_9allocatorIcEEEEbxydS9_NS2_14adl_serializerENS5_IhNS9_IhEEEEvEEEEbRKNS_11__wrap_iterIT_EESM_
FNA:2,5330,_ZNSt3__1eqB8ne200100IPKcEEbRKNS_11__wrap_iterIT_EES7_
FNA:2,5473,_ZNSt3__1eqB8ne200100IPKhEEbRKNS_11__wrap_iterIT_EES7_
FNA:2,5,_ZNSt3__1eqB8ne200100IPN3p2p5relay7AddressEEEbRKNS_11__wrap_iterIT_EES9_
FNA:2,0,_ZNSt3__1eqB8ne200100IPN8nlohmann16json_abi_v3_12_010basic_jsonINS_3mapENS_6vectorENS_12basic_stringIcNS_11char_traitsIcEENS_9allocatorIcEEEEbxydS9_NS2_14adl_serializerENS5_IhNS9_IhEEEEvEEEEbRKNS_11__wrap_iterIT_EESL_
FNA:2,11,_ZNSt3__1eqB8ne200100IPNS_10shared_ptrIN3p2p5relay14TurnAllocationEEEEEbRKNS_11__wrap_iterIT_EESB_
FNA:2,48,_ZNSt3__1eqB8ne200100IPNS_10unique_ptrIN3p2p7testing10TestClientENS_14default_deleteIS4_EEEEEEbRKNS_11__wrap_iterIT_EESD_
FNA:2,1,_ZNSt3__1eqB8ne200100IPNS_12basic_stringIcNS_11char_traitsIcEENS_9allocatorIcEEEEEEbRKNS_11__wrap_iterIT_EESC_
FNA:2,176,_ZNSt3__1eqB8ne200100IPNS_6threadEEEbRKNS_11__wrap_iterIT_EES7_
FNA:2,39,_ZNSt3__1eqB8ne200100IPhEEbRKNS_11__wrap_iterIT_EES6_
FNL:3,216,223
FNA:3,0,_ZNSt3__1miB8ne200100IPKN8nlohmann16json_abi_v3_12_010basic_jsonINS_3mapENS_6vectorENS_12basic_stringIcNS_11char_traitsIcEENS_9allocatorIcEEEEbxydS9_NS2_14adl_serializerENS5_IhNS9_IhEEEEvEESH_EEDTmicldtfp_4baseEcldtfp0_4baseEERKNS_11__wrap_iterIT_EERKNSJ_IT0_EE
FNA:3,4,_ZNSt3__1miB8ne200100IPKcS2_EEDTmicldtfp_4baseEcldtfp0_4baseEERKNS_11__wrap_iterIT_EERKNS4_IT0_EE
FNA:3,306,_ZNSt3__1miB8ne200100IPKhPhEEDTmicldtfp_4baseEcldtfp0_4baseEERKNS_11__wrap_iterIT_EERKNS5_IT0_EE
FNA:3,59,_ZNSt3__1miB8ne200100IPKhS2_EEDTmicldtfp_4baseEcldtfp0_4baseEERKNS_11__wrap_iterIT_EERKNS4_IT0_EE
FNA:3,19,_ZNSt3__1miB8ne200100IPcS1_EEDTmicldtfp_4baseEcldtfp0_4baseEERKNS_11__wrap_iterIT_EERKNS3_IT0_EE
FNA:3,69,_ZNSt3__1miB8ne200100IPhS1_EEDTmicldtfp_4baseEcldtfp0_4baseEERKNS_11__wrap_iterIT_EERKNS3_IT0_EE
FNL:4,244,245
FNA:4,0,_ZNSt3__114pointer_traitsINS_11__wrap_iterIPKcEEE10to_addressB8ne200100ES4_
FNA:4,45,_ZNSt3__114pointer_traitsINS_11__wrap_iterIPKhEEE10to_addressB8ne200100ES4_
FNA:4,0,_ZNSt3__114pointer_traitsINS_11__wrap_iterIPN8nlohmann16json_abi_v3_12_010basic_jsonINS_3mapENS_6vectorENS_12basic_stringIcNS_11char_traitsIcEENS_9allocatorIcEEEEbxydSA_NS3_14adl_serializerENS6_IhNSA_IhEEEEvEEEEE10to_addressB8ne200100ESI_
FNA:4,20,_ZNSt3__114pointer_traitsINS_11__wrap_iterIPNS_4pairIN3p2p9detection12DeviceVendorEdEEEEE10to_addressB8ne200100ES8_
FNA:4,38,_ZNSt3__114pointer_traitsINS_11__wrap_iterIPcEEE10to_addressB8ne200100ES3_
FNA:4,70,_ZNSt3__114pointer_traitsINS_11__wrap_iterIPhEEE10to_addressB8ne200100ES3_
FNL:5,51,51
FNA:5,0,_ZNSt3__111__wrap_iterIPN8nlohmann16json_abi_v3_12_010basic_jsonINS_3mapENS_6vectorENS_12basic_stringIcNS_11char_traitsIcEENS_9allocatorIcEEEEbxydS9_NS2_14adl_serializerENS5_IhNS9_IhEEEEvEEEC1B8ne200100Ev
FNA:5,0,_ZNSt3__111__wrap_iterIPN8nlohmann16json_abi_v3_12_010basic_jsonINS_3mapENS_6vectorENS_12basic_stringIcNS_11char_traitsIcEENS_9allocatorIcEEEEbxydS9_NS2_14adl_serializerENS5_IhNS9_IhEEEEvEEEC2B8ne200100Ev
FNL:6,58,59
FNA:6,0,_ZNSt3__111__wrap_iterIPKN8nlohmann16json_abi_v3_12_010basic_jsonINS_3mapENS_6vectorENS_12basic_stringIcNS_11char_traitsIcEENS_9allocatorIcEEEEbxydS9_NS2_14adl_serializerENS5_IhNS9_IhEEEEvEEEC1B8ne200100IPSF_Li0EEERKNS0_IT_EE
FNA:6,0,_ZNSt3__111__wrap_iterIPKN8nlohmann16json_abi_v3_12_010basic_jsonINS_3mapENS_6vectorENS_12basic_stringIcNS_11char_traitsIcEENS_9allocatorIcEEEEbxydS9_NS2_14adl_serializerENS5_IhNS9_IhEEEEvEEEC2B8ne200100IPSF_Li0EEERKNS0_IT_EE
FNA:6,305,_ZNSt3__111__wrap_iterIPKhEC1B8ne200100IPhLi0EEERKNS0_IT_EE
FNA:6,305,_ZNSt3__111__wrap_iterIPKhEC2B8ne200100IPhLi0EEERKNS0_IT_EE
FNL:7,60,60
FNA:7,6,_ZNKSt3__111__wrap_iterIPKN3p2p5relay13StunAttributeEEdeB8ne200100Ev
FNA:7,28,_ZNKSt3__111__wrap_iterIPKN3p2p8protocol13StunAttributeEEdeB8ne200100Ev
FNA:7,0,_ZNKSt3__111__wrap_iterIPKN8nlohmann16json_abi_v3_12_010basic_jsonINS_3mapENS_6vectorENS_12basic_stringIcNS_11char_traitsIcEENS_9allocatorIcEEEEbxydS9_NS2_14adl_serializerENS5_IhNS9_IhEEEEvEEEdeB8ne200100Ev
FNA:7,5391,_ZNKSt3__111__wrap_iterIPKcEdeB8ne200100Ev
FNA:7,5686,_ZNKSt3__111__wrap_iterIPKhEdeB8ne200100Ev
FNA:7,4,_ZNKSt3__111__wrap_iterIPN3p2p5relay7AddressEEdeB8ne200100Ev
FNA:7,0,_ZNKSt3__111__wrap_iterIPN8nlohmann16json_abi_v3_12_010basic_jsonINS_3mapENS_6vectorENS_12basic_stringIcNS_11char_traitsIcEENS_9allocatorIcEEEEbxydS9_NS2_14adl_serializerENS5_IhNS9_IhEEEEvEEEdeB8ne200100Ev
FNA:7,10,_ZNKSt3__111__wrap_iterIPNS_10shared_ptrIN3p2p5relay14TurnAllocationEEEEdeB8ne200100Ev
FNA:7,45,_ZNKSt3__111__wrap_iterIPNS_10unique_ptrIN3p2p7testing10TestClientENS_14default_deleteIS4_EEEEEdeB8ne200100Ev
FNA:7,0,_ZNKSt3__111__wrap_iterIPNS_12basic_stringIcNS_11char_traitsIcEENS_9allocatorIcEEEEEdeB8ne200100Ev
FNA:7,169,_ZNKSt3__111__wrap_iterIPNS_6threadEEdeB8ne200100Ev
FNA:7,376,_ZNKSt3__111__wrap_iterIPhEdeB8ne200100Ev
FNL:8,64,66
FNA:8,3,_ZNSt3__111__wrap_iterIPKN3p2p5relay13StunAttributeEEppB8ne200100Ev
FNA:8,19,_ZNSt3__111__wrap_iterIPKN3p2p8protocol13StunAttributeEEppB8ne200100Ev
FNA:8,0,_ZNSt3__111__wrap_iterIPKN8nlohmann16json_abi_v3_12_010basic_jsonINS_3mapENS_6vectorENS_12basic_stringIcNS_11char_traitsIcEENS_9allocatorIcEEEEbxydS9_NS2_14adl_serializerENS5_IhNS9_IhEEEEvEEEppB8ne200100Ev
FNA:8,94,_ZNSt3__111__wrap_iterIPKcEppB8ne200100Ev
FNA:8,5686,_ZNSt3__111__wrap_iterIPKhEppB8ne200100Ev
FNA:8,4,_ZNSt3__111__wrap_iterIPN3p2p5relay7AddressEEppB8ne200100Ev
FNA:8,10,_ZNSt3__111__wrap_iterIPNS_10shared_ptrIN3p2p5relay14TurnAllocationEEEEppB8ne200100Ev
FNA:8,45,_ZNSt3__111__wrap_iterIPNS_10unique_ptrIN3p2p7testing10TestClientENS_14default_deleteIS4_EEEEEppB8ne200100Ev
FNA:8,0,_ZNSt3__111__wrap_iterIPNS_12basic_stringIcNS_11char_traitsIcEENS_9allocatorIcEEEEEppB8ne200100Ev
FNA:8,169,_ZNSt3__111__wrap_iterIPNS_6threadEEppB8ne200100Ev
FNA:8,376,_ZNSt3__111__wrap_iterIPhEppB8ne200100Ev
FNL:9,83,86
FNA:9,0,_ZNKSt3__111__wrap_iterIPKN8nlohmann16json_abi_v3_12_010basic_jsonINS_3mapENS_6vectorENS_12basic_stringIcNS_11char_traitsIcEENS_9allocatorIcEEEEbxydS9_NS2_14adl_serializerENS5_IhNS9_IhEEEEvEEEplB8ne200100El
FNA:9,0,_ZNKSt3__111__wrap_iterIPKcEplB8ne200100El
FNA:9,62,_ZNKSt3__111__wrap_iterIPKhEplB8ne200100El
FNA:9,0,_ZNKSt3__111__wrap_iterIPN8nlohmann16json_abi_v3_12_010basic_jsonINS_3mapENS_6vectorENS_12basic_stringIcNS_11char_traitsIcEENS_9allocatorIcEEEEbxydS9_NS2_14adl_serializerENS5_IhNS9_IhEEEEvEEEplB8ne200100El
FNA:9,13,_ZNKSt3__111__wrap_iterIPhEplB8ne200100El
FNL:10,88,90
FNA:10,0,_ZNSt3__111__wrap_iterIPKN8nlohmann16json_abi_v3_12_010basic_jsonINS_3mapENS_6vectorENS_12basic_stringIcNS_11char_traitsIcEENS_9allocatorIcEEEEbxydS9_NS2_14adl_serializerENS5_IhNS9_IhEEEEvEEEpLB8ne200100El
FNA:10,5297,_ZNSt3__111__wrap_iterIPKcEpLB8ne200100El
FNA:10,67,_ZNSt3__111__wrap_iterIPKhEpLB8ne200100El
FNA:10,0,_ZNSt3__111__wrap_iterIPN8nlohmann16json_abi_v3_12_010basic_jsonINS_3mapENS_6vectorENS_12basic_stringIcNS_11char_traitsIcEENS_9allocatorIcEEEEbxydS9_NS2_14adl_serializerENS5_IhNS9_IhEEEEvEEEpLB8ne200100El
FNA:10,35,_ZNSt3__111__wrap_iterIPhEpLB8ne200100El
FNL:11,92,93
FNA:11,0,_ZNKSt3__111__wrap_iterIPKN8nlohmann16json_abi_v3_12_010basic_jsonINS_3mapENS_6vectorENS_12basic_stringIcNS_11char_traitsIcEENS_9allocatorIcEEEEbxydS9_NS2_14adl_serializerENS5_IhNS9_IhEEEEvEEEmiB8ne200100El
FNA:11,0,_ZNKSt3__111__wrap_iterIPKhEmiB8ne200100El
FNF:12
FNH:10
DA:51,0
DA:58,610
DA:59,610
DA:60,11715
DA:64,6406
DA:65,6406
DA:66,6406
DA:83,75
DA:84,75
DA:85,75
DA:86,75
DA:88,5399
DA:89,5399
DA:90,5399
DA:92,0
DA:93,0
DA:103,23389
DA:106,2840
DA:124,11151
DA:125,11151
DA:216,457
DA:223,457
DA:244,173
DA:245,173
LF:24
LH:21
end_of_record
TN:
SF:/Library/Developer/CommandLineTools/SDKs/MacOSX.sdk/usr/include/c++/v1/__locale
FNL:0,171
FNA:0,721,_ZNSt3__19use_facetB8ne200100INS_5ctypeIcEEEERKT_RKNS_6localeE
FNL:1,571
FNA:1,721,_ZNKSt3__15ctypeIcE5widenB8ne200100Ec
FNF:2
FNH:2
DA:171,721
DA:172,721
DA:571,721
LF:3
LH:3
end_of_record
TN:
SF:/Library/Developer/CommandLineTools/SDKs/MacOSX.sdk/usr/include/c++/v1/__locale_dir/pad_and_output.h
FNL:0,44,82
FNA:0,6990,_ZNSt3__116__pad_and_outputB8ne200100IcNS_11char_traitsIcEEEENS_19ostreambuf_iteratorIT_T0_EES6_PKS4_S8_S8_RNS_8ios_baseES4_
FNF:1
FNH:1
DA:44,6990
DA:51,6990
DA:52,0
DA:53,6990
DA:54,6990
DA:55,6990
DA:56,0
DA:58,6990
DA:59,6990
DA:60,6990
DA:61,0
DA:62,0
DA:63,0
DA:65,0
DA:66,6990
DA:67,0
DA:68,0
DA:69,0
DA:70,0
DA:72,0
DA:73,6990
DA:74,6990
DA:75,6990
DA:76,0
DA:77,0
DA:79,6990
DA:80,6990
DA:81,6990
DA:82,6990
LF:29
LH:16
end_of_record
TN:
SF:/Library/Developer/CommandLineTools/SDKs/MacOSX.sdk/usr/include/c++/v1/__math/rounding_functions.h
FNL:0,29,29
FNA:0,85,_ZNSt3__16__math4ceilB8ne200100Ef
FNF:1
FNH:1
DA:29,85
LF:1
LH:1
end_of_record
TN:
SF:/Library/Developer/CommandLineTools/SDKs/MacOSX.sdk/usr/include/c++/v1/__math/traits.h
FNL:0,45,46
FNA:0,0,_ZNSt3__16__math7signbitB8ne200100IvEEbd
FNL:1,75,76
FNA:1,0,_ZNSt3__16__math8isfiniteB8ne200100Ed
FNF:2
FNH:0
DA:45,0
DA:46,0
DA:75,0
DA:76,0
LF:4
LH:0
end_of_record
TN:
SF:/Library/Developer/CommandLineTools/SDKs/MacOSX.sdk/usr/include/c++/v1/__memory/allocate_at_least.h
FNL:0,40,41
FNA:0,3,_ZNSt3__119__allocate_at_leastB8ne200100INS_9allocatorIN3p2p5relay13StunAttributeEEEEENS_19__allocation_resultINS_16allocator_traitsIT_E7pointerEEERS8_m
FNA:0,1,_ZNSt3__119__allocate_at_leastB8ne200100INS_9allocatorIN3p2p5relay7AddressEEEEENS_19__allocation_resultINS_16allocator_traitsIT_E7pointerEEERS8_m
FNA:0,37,_ZNSt3__119__allocate_at_leastB8ne200100INS_9allocatorIN3p2p8protocol13StunAttributeEEEEENS_19__allocation_resultINS_16allocator_traitsIT_E7pointerEEERS8_m
FNA:0,0,_ZNSt3__119__allocate_at_leastB8ne200100INS_9allocatorIN5boost4asio2ip20basic_resolver_entryINS4_3udpEEEEEEENS_19__allocation_resultINS_16allocator_traitsIT_E7pointerEEERSB_m
FNA:0,36,_ZNSt3__119__allocate_at_leastB8ne200100INS_9allocatorIN8nlohmann16json_abi_v3_12_010basic_jsonINS_3mapENS_6vectorENS_12basic_stringIcNS_11char_traitsIcEENS1_IcEEEEbxydS1_NS3_14adl_serializerENS6_IhNS1_IhEEEEvEEEEEENS_19__allocation_resultINS_16allocator_traitsIT_E7pointerEEERSJ_m
FNA:0,1,_ZNSt3__119__allocate_at_leastB8ne200100INS_9allocatorINS_10shared_ptrIN3p2p5relay14TurnAllocationEEEEEEENS_19__allocation_resultINS_16allocator_traitsIT_E7pointerEEERSA_m
FNA:0,20,_ZNSt3__119__allocate_at_leastB8ne200100INS_9allocatorINS_10unique_ptrIN3p2p7testing10TestClientENS_14default_deleteIS5_EEEEEEEENS_19__allocation_resultINS_16allocator_traitsIT_E7pointerEEERSC_m
FNA:0,35,_ZNSt3__119__allocate_at_leastB8ne200100INS_9allocatorINS_12basic_stringIcNS_11char_traitsIcEENS1_IcEEEEEEEENS_19__allocation_resultINS_16allocator_traitsIT_E7pointerEEERSA_m
FNA:0,28,_ZNSt3__119__allocate_at_leastB8ne200100INS_9allocatorINS_4pairIN3p2p9detection12DeviceVendorEdEEEEEENS_19__allocation_resultINS_16allocator_traitsIT_E7pointerEEERSA_m
FNA:0,5,_ZNSt3__119__allocate_at_leastB8ne200100INS_9allocatorINS_5arrayIhLm12EEEEEEENS_19__allocation_resultINS_16allocator_traitsIT_E7pointerEEERS7_m
FNA:0,37,_ZNSt3__119__allocate_at_leastB8ne200100INS_9allocatorINS_6threadEEEEENS_19__allocation_resultINS_16allocator_traitsIT_E7pointerEEERS6_m
FNA:0,25,_ZNSt3__119__allocate_at_leastB8ne200100INS_9allocatorIPN8nlohmann16json_abi_v3_12_010basic_jsonINS_3mapENS_6vectorENS_12basic_stringIcNS_11char_traitsIcEENS1_IcEEEEbxydS1_NS3_14adl_serializerENS6_IhNS1_IhEEEEvEEEEEENS_19__allocation_resultINS_16allocator_traitsIT_E7pointerEEERSK_m
FNA:0,5,_ZNSt3__119__allocate_at_leastB8ne200100INS_9allocatorIPNS_4pairINS_6chrono10time_pointINS3_12steady_clockENS3_8durationIxNS_5ratioILl1ELl1000000000EEEEEEEmEEEEEENS_19__allocation_resultINS_16allocator_traitsIT_E7pointerEEERSG_m
FNA:0,145,_ZNSt3__119__allocate_at_leastB8ne200100INS_9allocatorIcEEEENS_19__allocation_resultINS_16allocator_traitsIT_E7pointerEEERS5_m
FNA:0,467,_ZNSt3__119__allocate_at_leastB8ne200100INS_9allocatorIhEEEENS_19__allocation_resultINS_16allocator_traitsIT_E7pointerEEERS5_m
FNA:0,17,_ZNSt3__119__allocate_at_leastB8ne200100INS_9allocatorImEEEENS_19__allocation_resultINS_16allocator_traitsIT_E7pointerEEERS5_m
FNA:0,4,_ZNSt3__119__allocate_at_leastB8ne200100INS_9allocatorItEEEENS_19__allocation_resultINS_16allocator_traitsIT_E7pointerEEERS5_m
FNF:1
FNH:1
DA:40,866
DA:41,866
LF:2
LH:2
end_of_record
TN:
SF:/Library/Developer/CommandLineTools/SDKs/MacOSX.sdk/usr/include/c++/v1/__memory/allocation_guard.h
FNL:0,52,56
FNA:0,0,_ZNSt3__118__allocation_guardINS_9allocatorINS_20__shared_ptr_emplaceIN3p2p3nat10STUNClientENS1_IS5_EEEEEEEC1B8ne200100IS6_EET_m
FNA:0,0,_ZNSt3__118__allocation_guardINS_9allocatorINS_20__shared_ptr_emplaceIN3p2p3nat10STUNClientENS1_IS5_EEEEEEEC2B8ne200100IS6_EET_m
FNA:0,34,_ZNSt3__118__allocation_guardINS_9allocatorINS_20__shared_ptr_emplaceIN3p2p5relay14TurnAllocationENS1_IS5_EEEEEEEC1B8ne200100IS6_EET_m
FNA:0,34,_ZNSt3__118__allocation_guardINS_9allocatorINS_20__shared_ptr_emplaceIN3p2p5relay14TurnAllocationENS1_IS5_EEEEEEEC2B8ne200100IS6_EET_m
FNA:0,14,_ZNSt3__118__allocation_guardINS_9allocatorINS_20__shared_ptr_emplaceIN3p2p9transport12UDPTransportENS1_IS5_EEEEEEEC1B8ne200100IS6_EET_m
FNA:0,14,_ZNSt3__118__allocation_guardINS_9allocatorINS_20__shared_ptr_emplaceIN3p2p9transport12UDPTransportENS1_IS5_EEEEEEEC2B8ne200100IS6_EET_m
FNA:0,7,_ZNSt3__118__allocation_guardINS_9allocatorINS_20__shared_ptr_emplaceIN5boost4asio19basic_stream_socketINS4_2ip3tcpENS4_15any_io_executorEEENS1_IS9_EEEEEEEC1B8ne200100ISA_EET_m
FNA:0,7,_ZNSt3__118__allocation_guardINS_9allocatorINS_20__shared_ptr_emplaceIN5boost4asio19basic_stream_socketINS4_2ip3tcpENS4_15any_io_executorEEENS1_IS9_EEEEEEEC2B8ne200100ISA_EET_m
FNA:0,0,_ZNSt3__118__allocation_guardINS_9allocatorINS_20__shared_ptr_emplaceIN5boost4asio21basic_datagram_socketINS4_2ip3udpENS4_15any_io_executorEEENS1_IS9_EEEEEEEC1B8ne200100ISA_EET_m
FNA:0,0,_ZNSt3__118__allocation_guardINS_9allocatorINS_20__shared_ptr_emplaceIN5boost4asio21basic_datagram_socketINS4_2ip3udpENS4_15any_io_executorEEENS1_IS9_EEEEEEEC2B8ne200100ISA_EET_m
FNA:0,0,_ZNSt3__118__allocation_guardINS_9allocatorINS_20__shared_ptr_emplaceIN5boost4asio2ip14basic_endpointINS5_3udpEEENS1_IS8_EEEEEEEC1B8ne200100IS9_EET_m
FNA:0,0,_ZNSt3__118__allocation_guardINS_9allocatorINS_20__shared_ptr_emplaceIN5boost4asio2ip14basic_endpointINS5_3udpEEENS1_IS8_EEEEEEEC2B8ne200100IS9_EET_m
FNA:0,0,_ZNSt3__118__allocation_guardINS_9allocatorINS_20__shared_ptr_emplaceIN5boost4asio2ip14basic_resolverINS5_3udpENS4_15any_io_executorEEENS1_IS9_EEEEEEEC1B8ne200100ISA_EET_m
FNA:0,0,_ZNSt3__118__allocation_guardINS_9allocatorINS_20__shared_ptr_emplaceIN5boost4asio2ip14basic_resolverINS5_3udpENS4_15any_io_executorEEENS1_IS9_EEEEEEEC2B8ne200100ISA_EET_m
FNA:0,19,_ZNSt3__118__allocation_guardINS_9allocatorINS_20__shared_ptr_emplaceIN8nlohmann16json_abi_v3_12_06detail21output_string_adapterIcNS_12basic_stringIcNS_11char_traitsIcEENS1_IcEEEEEENS1_ISC_EEEEEEEC1B8ne200100ISD_EET_m
FNA:0,19,_ZNSt3__118__allocation_guardINS_9allocatorINS_20__shared_ptr_emplaceIN8nlohmann16json_abi_v3_12_06detail21output_string_adapterIcNS_12basic_stringIcNS_11char_traitsIcEENS1_IcEEEEEENS1_ISC_EEEEEEEC2B8ne200100ISD_EET_m
FNA:0,13,_ZNSt3__118__allocation_guardINS_9allocatorINS_20__shared_ptr_emplaceINS_6vectorIhNS1_IhEEEENS1_IS5_EEEEEEEC1B8ne200100IS6_EET_m
FNA:0,13,_ZNSt3__118__allocation_guardINS_9allocatorINS_20__shared_ptr_emplaceINS_6vectorIhNS1_IhEEEENS1_IS5_EEEEEEEC2B8ne200100IS6_EET_m
FNL:1,58,58
FNA:1,0,_ZNSt3__118__allocation_guardINS_9allocatorINS_20__shared_ptr_emplaceIN3p2p3nat10STUNClientENS1_IS5_EEEEEEED1B8ne200100Ev
FNA:1,0,_ZNSt3__118__allocation_guardINS_9allocatorINS_20__shared_ptr_emplaceIN3p2p3nat10STUNClientENS1_IS5_EEEEEEED2B8ne200100Ev
FNA:1,34,_ZNSt3__118__allocation_guardINS_9allocatorINS_20__shared_ptr_emplaceIN3p2p5relay14TurnAllocationENS1_IS5_EEEEEEED1B8ne200100Ev
FNA:1,34,_ZNSt3__118__allocation_guardINS_9allocatorINS_20__shared_ptr_emplaceIN3p2p5relay14TurnAllocationENS1_IS5_EEEEEEED2B8ne200100Ev
FNA:1,14,_ZNSt3__118__allocation_guardINS_9allocatorINS_20__shared_ptr_emplaceIN3p2p9transport12UDPTransportENS1_IS5_EEEEEEED1B8ne200100Ev
FNA:1,14,_ZNSt3__118__allocation_guardINS_9allocatorINS_20__shared_ptr_emplaceIN3p2p9transport12UDPTransportENS1_IS5_EEEEEEED2B8ne200100Ev
FNA:1,7,_ZNSt3__118__allocation_guardINS_9allocatorINS_20__shared_ptr_emplaceIN5boost4asio19basic_stream_socketINS4_2ip3tcpENS4_15any_io_executorEEENS1_IS9_EEEEEEED1B8ne200100Ev
FNA:1,7,_ZNSt3__118__allocation_guardINS_9allocatorINS_20__shared_ptr_emplaceIN5boost4asio19basic_stream_socketINS4_2ip3tcpENS4_15any_io_executorEEENS1_IS9_EEEEEEED2B8ne200100Ev
FNA:1,0,_ZNSt3__118__allocation_guardINS_9allocatorINS_20__shared_ptr_emplaceIN5boost4asio21basic_datagram_socketINS4_2ip3udpENS4_15any_io_executorEEENS1_IS9_EEEEEEED1B8ne200100Ev
FNA:1,0,_ZNSt3__118__allocation_guardINS_9allocatorINS_20__shared_ptr_emplaceIN5boost4asio21basic_datagram_socketINS4_2ip3udpENS4_15any_io_executorEEENS1_IS9_EEEEEEED2B8ne200100Ev
FNA:1,0,_ZNSt3__118__allocation_guardINS_9allocatorINS_20__shared_ptr_emplaceIN5boost4asio2ip14basic_endpointINS5_3udpEEENS1_IS8_EEEEEEED1B8ne200100Ev
FNA:1,0,_ZNSt3__118__allocation_guardINS_9allocatorINS_20__shared_ptr_emplaceIN5boost4asio2ip14basic_endpointINS5_3udpEEENS1_IS8_EEEEEEED2B8ne200100Ev
FNA:1,0,_ZNSt3__118__allocation_guardINS_9allocatorINS_20__shared_ptr_emplaceIN5boost4asio2ip14basic_resolverINS5_3udpENS4_15any_io_executorEEENS1_IS9_EEEEEEED1B8ne200100Ev
FNA:1,0,_ZNSt3__118__allocation_guardINS_9allocatorINS_20__shared_ptr_emplaceIN5boost4asio2ip14basic_resolverINS5_3udpENS4_15any_io_executorEEENS1_IS9_EEEEEEED2B8ne200100Ev
FNA:1,19,_ZNSt3__118__allocation_guardINS_9allocatorINS_20__shared_ptr_emplaceIN8nlohmann16json_abi_v3_12_06detail21output_string_adapterIcNS_12basic_stringIcNS_11char_traitsIcEENS1_IcEEEEEENS1_ISC_EEEEEEED1B8ne200100Ev
FNA:1,19,_ZNSt3__118__allocation_guardINS_9allocatorINS_20__shared_ptr_emplaceIN8nlohmann16json_abi_v3_12_06detail21output_string_adapterIcNS_12basic_stringIcNS_11char_traitsIcEENS1_IcEEEEEENS1_ISC_EEEEEEED2B8ne200100Ev
FNA:1,13,_ZNSt3__118__allocation_guardINS_9allocatorINS_20__shared_ptr_emplaceINS_6vectorIhNS1_IhEEEENS1_IS5_EEEEEEED1B8ne200100Ev
FNA:1,13,_ZNSt3__118__allocation_guardINS_9allocatorINS_20__shared_ptr_emplaceINS_6vectorIhNS1_IhEEEENS1_IS5_EEEEEEED2B8ne200100Ev
FNL:2,83,86
FNA:2,0,_ZNSt3__118__allocation_guardINS_9allocatorINS_20__shared_ptr_emplaceIN3p2p3nat10STUNClientENS1_IS5_EEEEEEE13__release_ptrB8ne200100Ev
FNA:2,34,_ZNSt3__118__allocation_guardINS_9allocatorINS_20__shared_ptr_emplaceIN3p2p5relay14TurnAllocationENS1_IS5_EEEEEEE13__release_ptrB8ne200100Ev
FNA:2,14,_ZNSt3__118__allocation_guardINS_9allocatorINS_20__shared_ptr_emplaceIN3p2p9transport12UDPTransportENS1_IS5_EEEEEEE13__release_ptrB8ne200100Ev
FNA:2,7,_ZNSt3__118__allocation_guardINS_9allocatorINS_20__shared_ptr_emplaceIN5boost4asio19basic_stream_socketINS4_2ip3tcpENS4_15any_io_executorEEENS1_IS9_EEEEEEE13__release_ptrB8ne200100Ev
FNA:2,0,_ZNSt3__118__allocation_guardINS_9allocatorINS_20__shared_ptr_emplaceIN5boost4asio21basic_datagram_socketINS4_2ip3udpENS4_15any_io_executorEEENS1_IS9_EEEEEEE13__release_ptrB8ne200100Ev
FNA:2,0,_ZNSt3__118__allocation_guardINS_9allocatorINS_20__shared_ptr_emplaceIN5boost4asio2ip14basic_endpointINS5_3udpEEENS1_IS8_EEEEEEE13__release_ptrB8ne200100Ev
FNA:2,0,_ZNSt3__118__allocation_guardINS_9allocatorINS_20__shared_ptr_emplaceIN5boost4asio2ip14basic_resolverINS5_3udpENS4_15any_io_executorEEENS1_IS9_EEEEEEE13__release_ptrB8ne200100Ev
FNA:2,19,_ZNSt3__118__allocation_guardINS_9allocatorINS_20__shared_ptr_emplaceIN8nlohmann16json_abi_v3_12_06detail21output_string_adapterIcNS_12basic_stringIcNS_11char_traitsIcEENS1_IcEEEEEENS1_ISC_EEEEEEE13__release_ptrB8ne200100Ev
FNA:2,13,_ZNSt3__118__allocation_guardINS_9allocatorINS_20__shared_ptr_emplaceINS_6vectorIhNS1_IhEEEENS1_IS5_EEEEEEE13__release_ptrB8ne200100Ev
FNL:3,89,89
FNA:3,0,_ZNKSt3__118__allocation_guardINS_9allocatorINS_20__shared_ptr_emplaceIN3p2p3nat10STUNClientENS1_IS5_EEEEEEE5__getB8ne200100Ev
FNA:3,34,_ZNKSt3__118__allocation_guardINS_9allocatorINS_20__shared_ptr_emplaceIN3p2p5relay14TurnAllocationENS1_IS5_EEEEEEE5__getB8ne200100Ev
FNA:3,14,_ZNKSt3__118__allocation_guardINS_9allocatorINS_20__shared_ptr_emplaceIN3p2p9transport12UDPTransportENS1_IS5_EEEEEEE5__getB8ne200100Ev
FNA:3,7,_ZNKSt3__118__allocation_guardINS_9allocatorINS_20__shared_ptr_emplaceIN5boost4asio19basic_stream_socketINS4_2ip3tcpENS4_15any_io_executorEEENS1_IS9_EEEEEEE5__getB8ne200100Ev
FNA:3,0,_ZNKSt3__118__allocation_guardINS_9allocatorINS_20__shared_ptr_emplaceIN5boost4asio21basic_datagram_socketINS4_2ip3udpENS4_15any_io_executorEEENS1_IS9_EEEEEEE5__getB8ne200100Ev
FNA:3,0,_ZNKSt3__118__allocation_guardINS_9allocatorINS_20__shared_ptr_emplaceIN5boost4asio2ip14basic_endpointINS5_3udpEEENS1_IS8_EEEEEEE5__getB8ne200100Ev
FNA:3,0,_ZNKSt3__118__allocation_guardINS_9allocatorINS_20__shared_ptr_emplaceIN5boost4asio2ip14basic_resolverINS5_3udpENS4_15any_io_executorEEENS1_IS9_EEEEEEE5__getB8ne200100Ev
FNA:3,19,_ZNKSt3__118__allocation_guardINS_9allocatorINS_20__shared_ptr_emplaceIN8nlohmann16json_abi_v3_12_06detail21output_string_adapterIcNS_12basic_stringIcNS_11char_traitsIcEENS1_IcEEEEEENS1_ISC_EEEEEEE5__getB8ne200100Ev
FNA:3,13,_ZNKSt3__118__allocation_guardINS_9allocatorINS_20__shared_ptr_emplaceINS_6vectorIhNS1_IhEEEENS1_IS5_EEEEEEE5__getB8ne200100Ev
FNL:4,92,96
FNA:4,0,_ZNSt3__118__allocation_guardINS_9allocatorINS_20__shared_ptr_emplaceIN3p2p3nat10STUNClientENS1_IS5_EEEEEEE9__destroyB8ne200100Ev
FNA:4,34,_ZNSt3__118__allocation_guardINS_9allocatorINS_20__shared_ptr_emplaceIN3p2p5relay14TurnAllocationENS1_IS5_EEEEEEE9__destroyB8ne200100Ev
FNA:4,14,_ZNSt3__118__allocation_guardINS_9allocatorINS_20__shared_ptr_emplaceIN3p2p9transport12UDPTransportENS1_IS5_EEEEEEE9__destroyB8ne200100Ev
FNA:4,7,_ZNSt3__118__allocation_guardINS_9allocatorINS_20__shared_ptr_emplaceIN5boost4asio19basic_stream_socketINS4_2ip3tcpENS4_15any_io_executorEEENS1_IS9_EEEEEEE9__destroyB8ne200100Ev
FNA:4,0,_ZNSt3__118__allocation_guardINS_9allocatorINS_20__shared_ptr_emplaceIN5boost4asio21basic_datagram_socketINS4_2ip3udpENS4_15any_io_executorEEENS1_IS9_EEEEEEE9__destroyB8ne200100Ev
FNA:4,0,_ZNSt3__118__allocation_guardINS_9allocatorINS_20__shared_ptr_emplaceIN5boost4asio2ip14basic_endpointINS5_3udpEEENS1_IS8_EEEEEEE9__destroyB8ne200100Ev
FNA:4,0,_ZNSt3__118__allocation_guardINS_9allocatorINS_20__shared_ptr_emplaceIN5boost4asio2ip14basic_resolverINS5_3udpENS4_15any_io_executorEEENS1_IS9_EEEEEEE9__destroyB8ne200100Ev
FNA:4,19,_ZNSt3__118__allocation_guardINS_9allocatorINS_20__shared_ptr_emplaceIN8nlohmann16json_abi_v3_12_06detail21output_string_adapterIcNS_12basic_stringIcNS_11char_traitsIcEENS1_IcEEEEEENS1_ISC_EEEEEEE9__destroyB8ne200100Ev
FNA:4,13,_ZNSt3__118__allocation_guardINS_9allocatorINS_20__shared_ptr_emplaceINS_6vectorIhNS1_IhEEEENS1_IS5_EEEEEEE9__destroyB8ne200100Ev
FNF:5
FNH:5
DA:52,174
DA:53,87
DA:54,87
DA:55,87
DA:56,174
DA:58,174
DA:83,87
DA:84,87
DA:85,87
DA:86,87
DA:89,87
DA:92,87
DA:93,87
DA:94,0
DA:95,0
DA:96,87
LF:16
LH:14
end_of_record
TN:
SF:/Library/Developer/CommandLineTools/SDKs/MacOSX.sdk/usr/include/c++/v1/__memory/allocator.h
FNL:0,116,122
FNA:0,3,_ZNSt3__19allocatorIN3p2p5relay13StunAttributeEE10deallocateB8ne200100EPS3_m
FNA:0,1,_ZNSt3__19allocatorIN3p2p5relay7AddressEE10deallocateB8ne200100EPS3_m
FNA:0,37,_ZNSt3__19allocatorIN3p2p8protocol13StunAttributeEE10deallocateB8ne200100EPS3_m
FNA:0,31,_ZNSt3__19allocatorIN5boost4asio17execution_context14allocator_implINS0_IvEEEEE10deallocateB8ne200100EPS6_m
FNA:0,0,_ZNSt3__19allocatorIN5boost4asio2ip20basic_resolver_entryINS3_3udpEEEE10deallocateB8ne200100EPS6_m
FNA:0,0,_ZNSt3__19allocatorIN5boost4asio6detail12posix_thread4funcINS3_9scheduler15thread_functionENS0_IvEEEEE10deallocateB8ne200100EPS9_m
FNA:0,0,_ZNSt3__19allocatorIN5boost4asio6detail12thread_groupINS0_IvEEE4itemEE10deallocateB8ne200100EPS7_m
FNA:0,36,_ZNSt3__19allocatorIN8nlohmann16json_abi_v3_12_010basic_jsonINS_3mapENS_6vectorENS_12basic_stringIcNS_11char_traitsIcEENS0_IcEEEEbxydS0_NS2_14adl_serializerENS5_IhNS0_IhEEEEvEEE10deallocateB8ne200100EPSE_m
FNA:0,0,_ZNSt3__19allocatorIN8nlohmann16json_abi_v3_12_027byte_container_with_subtypeINS_6vectorIhNS0_IhEEEEEEE10deallocateB8ne200100EPS7_m
FNA:0,0,_ZNSt3__19allocatorINS_10__function6__funcIZN33UDPTransportTest_LargePacket_Test8TestBodyEvE3$_0NS0_IS4_EEFvRKNS_6vectorIhNS0_IhEEEERKN5boost4asio2ip14basic_endpointINSD_3udpEEEEEEE10deallocateB8ne200100EPSK_m
FNA:0,0,_ZNSt3__19allocatorINS_10__function6__funcIZN33UDPTransportTest_LargePacket_Test8TestBodyEvE3$_1NS0_IS4_EEFvRKNS_10error_codeEEEEE10deallocateB8ne200100EPSA_m
FNA:0,2,_ZNSt3__19allocatorINS_10__function6__funcIZN33UDPTransportTest_SendReceive_Test8TestBodyEvE3$_0NS0_IS4_EEFvRKNS_6vectorIhNS0_IhEEEERKN5boost4asio2ip14basic_endpointINSD_3udpEEEEEEE10deallocateB8ne200100EPSK_m
FNA:0,0,_ZNSt3__19allocatorINS_10__function6__funcIZN33UDPTransportTest_SendReceive_Test8TestBodyEvE3$_1NS0_IS4_EEFvRKNS_10error_codeEEEEE10deallocateB8ne200100EPSA_m
FNA:0,0,_ZNSt3__19allocatorINS_10__function6__funcIZN34UDPTransportTest_SendWithPeer_Test8TestBodyEvE3$_0NS0_IS4_EEFvRKNS_6vectorIhNS0_IhEEEERKN5boost4asio2ip14basic_endpointINSD_3udpEEEEEEE10deallocateB8ne200100EPSK_m
FNA:0,0,_ZNSt3__19allocatorINS_10__function6__funcIZN34UDPTransportTest_SendWithPeer_Test8TestBodyEvE3$_1NS0_IS4_EEFvRKNS_10error_codeEEEEE10deallocateB8ne200100EPSA_m
FNA:0,0,_ZNSt3__19allocatorINS_10__function6__funcIZN35UDPTransportTest_SendAfterStop_Test8TestBodyEvE3$_0NS0_IS4_EEFvRKNS_10error_codeEEEEE10deallocateB8ne200100EPSA_m
FNA:0,0,_ZNSt3__19allocatorINS_10__function6__funcIZN37UDPTransportTest_SendWithoutPeer_Test8TestBodyEvE3$_0NS0_IS4_EEFvRKNS_10error_codeEEEEE10deallocateB8ne200100EPSA_m
FNA:0,0,_ZNSt3__19allocatorINS_10__function6__funcIZN38UDPTransportTest_MultipleMessages_Test8TestBodyEvE3$_0NS0_IS4_EEFvRKNS_6vectorIhNS0_IhEEEERKN5boost4asio2ip14basic_endpointINSD_3udpEEEEEEE10deallocateB8ne200100EPSK_m
FNA:0,0,_ZNSt3__19allocatorINS_10__function6__funcIZN38UDPTransportTest_MultipleMessages_Test8TestBodyEvE3$_1NS0_IS4_EEFvRKNS_10error_codeEEEEE10deallocateB8ne200100EPSA_m
FNA:0,0,_ZNSt3__19allocatorINS_10__function6__funcIZN3p2p3nat15detect_nat_typeERN5boost4asio10io_contextERKNS_12basic_stringIcNS_11char_traitsIcEENS0_IcEEEEtNS_8functionIFvRKNS4_18NATDetectionResultEEEEE3$_0NS0_ISM_EEFvNS_8optionalISD_EENSO_ItEEEEEE10deallocateB8ne200100EPSS_m
FNA:0,1,_ZNSt3__19allocatorINS_10shared_ptrIN3p2p5relay14TurnAllocationEEEE10deallocateB8ne200100EPS5_m
FNA:0,20,_ZNSt3__19allocatorINS_10unique_ptrIN3p2p7testing10TestClientENS_14default_deleteIS4_EEEEE10deallocateB8ne200100EPS7_m
FNA:0,1,_ZNSt3__19allocatorINS_11__hash_nodeINS_12basic_stringIcNS_11char_traitsIcEENS0_IcEEEEPvEEE10deallocateB8ne200100EPS8_m
FNA:0,13,_ZNSt3__19allocatorINS_11__hash_nodeINS_17__hash_value_typeINS_12basic_stringIcNS_11char_traitsIcEENS0_IcEEEEN3p2p5relay14BandwidthStatsEEEPvEEE10deallocateB8ne200100EPSD_m
FNA:0,13,_ZNSt3__19allocatorINS_11__hash_nodeINS_17__hash_value_typeINS_12basic_stringIcNS_11char_traitsIcEENS0_IcEEEEN3p2p5relay16BandwidthLimiter18AllocationLimitersEEEPvEEE10deallocateB8ne200100EPSE_m
FNA:0,34,_ZNSt3__19allocatorINS_11__hash_nodeINS_17__hash_value_typeINS_12basic_stringIcNS_11char_traitsIcEENS0_IcEEEENS_10shared_ptrIN3p2p5relay14TurnAllocationEEEEEPvEEE10deallocateB8ne200100EPSF_m
FNA:0,68,_ZNSt3__19allocatorINS_11__hash_nodeINS_17__hash_value_typeINS_12basic_stringIcNS_11char_traitsIcEENS0_IcEEEES7_EEPvEEE10deallocateB8ne200100EPSA_m
FNA:0,180,_ZNSt3__19allocatorINS_11__tree_nodeINS_12__value_typeIN3p2p9detection12DeviceVendorENS4_13DeviceProfileEEEPvEEE10deallocateB8ne200100EPS9_m
FNA:0,266,_ZNSt3__19allocatorINS_11__tree_nodeINS_12__value_typeINS_12basic_stringIcNS_11char_traitsIcEENS0_IcEEEEN8nlohmann16json_abi_v3_12_010basic_jsonINS_3mapENS_6vectorES7_bxydS0_NS9_14adl_serializerENSC_IhNS0_IhEEEEvEEEEPvEEE10deallocateB8ne200100EPSJ_m
FNA:0,36,_ZNSt3__19allocatorINS_11__tree_nodeINS_12__value_typeINS_12basic_stringIcNS_11char_traitsIcEENS0_IcEEEES7_EEPvEEE10deallocateB8ne200100EPSA_m
FNA:0,177,_ZNSt3__19allocatorINS_12basic_stringIcNS_11char_traitsIcEENS0_IcEEEEE10deallocateB8ne200100EPS5_m
FNA:0,0,_ZNSt3__19allocatorINS_20__shared_ptr_emplaceIN3p2p3nat10STUNClientENS0_IS4_EEEEE10deallocateB8ne200100EPS6_m
FNA:0,34,_ZNSt3__19allocatorINS_20__shared_ptr_emplaceIN3p2p5relay14TurnAllocationENS0_IS4_EEEEE10deallocateB8ne200100EPS6_m
FNA:0,14,_ZNSt3__19allocatorINS_20__shared_ptr_emplaceIN3p2p9transport12UDPTransportENS0_IS4_EEEEE10deallocateB8ne200100EPS6_m
FNA:0,7,_ZNSt3__19allocatorINS_20__shared_ptr_emplaceIN5boost4asio19basic_stream_socketINS3_2ip3tcpENS3_15any_io_executorEEENS0_IS8_EEEEE10deallocateB8ne200100EPSA_m
FNA:0,0,_ZNSt3__19allocatorINS_20__shared_ptr_emplaceIN5boost4asio21basic_datagram_socketINS3_2ip3udpENS3_15any_io_executorEEENS0_IS8_EEEEE10deallocateB8ne200100EPSA_m
FNA:0,0,_ZNSt3__19allocatorINS_20__shared_ptr_emplaceIN5boost4asio2ip14basic_endpointINS4_3udpEEENS0_IS7_EEEEE10deallocateB8ne200100EPS9_m
FNA:0,0,_ZNSt3__19allocatorINS_20__shared_ptr_emplaceIN5boost4asio2ip14basic_resolverINS4_3udpENS3_15any_io_executorEEENS0_IS8_EEEEE10deallocateB8ne200100EPSA_m
FNA:0,19,_ZNSt3__19allocatorINS_20__shared_ptr_emplaceIN8nlohmann16json_abi_v3_12_06detail21output_string_adapterIcNS_12basic_stringIcNS_11char_traitsIcEENS0_IcEEEEEENS0_ISB_EEEEE10deallocateB8ne200100EPSD_m
FNA:0,13,_ZNSt3__19allocatorINS_20__shared_ptr_emplaceINS_6vectorIhNS0_IhEEEENS0_IS4_EEEEE10deallocateB8ne200100EPS6_m
FNA:0,0,_ZNSt3__19allocatorINS_20__shared_ptr_pointerIPNS_6vectorIN5boost4asio2ip20basic_resolver_entryINS5_3udpEEENS0_IS8_EEEENS_10shared_ptrISA_E27__shared_ptr_default_deleteISA_SA_EENS0_ISA_EEEEE10deallocateB8ne200100EPSH_m
FNA:0,0,_ZNSt3__19allocatorINS_20__shared_ptr_pointerIPvN5boost4asio6detail10socket_ops12noop_deleterENS0_IvEEEEE10deallocateB8ne200100EPS9_m
FNA:0,51,_ZNSt3__19allocatorINS_3mapINS_12basic_stringIcNS_11char_traitsIcEENS0_IcEEEEN8nlohmann16json_abi_v3_12_010basic_jsonIS1_NS_6vectorES6_bxydS0_NS8_14adl_serializerENSA_IhNS0_IhEEEEvEENS_4lessIvEENS0_INS_4pairIKS6_SE_EEEEEEE10deallocateB8ne200100EPSL_m
FNA:0,28,_ZNSt3__19allocatorINS_4pairIN3p2p9detection12DeviceVendorEdEEE10deallocateB8ne200100EPS5_m
FNA:0,5,_ZNSt3__19allocatorINS_4pairINS_6chrono10time_pointINS2_12steady_clockENS2_8durationIxNS_5ratioILl1ELl1000000000EEEEEEEmEEE10deallocateB8ne200100EPSA_m
FNA:0,5,_ZNSt3__19allocatorINS_5arrayIhLm12EEEE10deallocateB8ne200100EPS2_m
FNA:0,37,_ZNSt3__19allocatorINS_6threadEE10deallocateB8ne200100EPS1_m
FNA:0,0,_ZNSt3__19allocatorINS_6vectorIN8nlohmann16json_abi_v3_12_010basic_jsonINS_3mapES1_NS_12basic_stringIcNS_11char_traitsIcEENS0_IcEEEEbxydS0_NS3_14adl_serializerENS1_IhNS0_IhEEEEvEENS0_ISE_EEEEE10deallocateB8ne200100EPSG_m
FNA:0,25,_ZNSt3__19allocatorIPN8nlohmann16json_abi_v3_12_010basic_jsonINS_3mapENS_6vectorENS_12basic_stringIcNS_11char_traitsIcEENS0_IcEEEEbxydS0_NS2_14adl_serializerENS5_IhNS0_IhEEEEvEEE10deallocateB8ne200100EPSF_m
FNA:0,1,_ZNSt3__19allocatorIPNS_16__hash_node_baseIPNS_11__hash_nodeINS_12basic_stringIcNS_11char_traitsIcEENS0_IcEEEEPvEEEEE10deallocateB8ne200100EPSC_m
FNA:0,9,_ZNSt3__19allocatorIPNS_16__hash_node_baseIPNS_11__hash_nodeINS_17__hash_value_typeINS_12basic_stringIcNS_11char_traitsIcEENS0_IcEEEEN3p2p5relay14BandwidthStatsEEEPvEEEEE10deallocateB8ne200100EPSH_m
FNA:0,9,_ZNSt3__19allocatorIPNS_16__hash_node_baseIPNS_11__hash_nodeINS_17__hash_value_typeINS_12basic_stringIcNS_11char_traitsIcEENS0_IcEEEEN3p2p5relay16BandwidthLimiter18AllocationLimitersEEEPvEEEEE10deallocateB8ne200100EPSI_m
FNA:0,22,_ZNSt3__19allocatorIPNS_16__hash_node_baseIPNS_11__hash_nodeINS_17__hash_value_typeINS_12basic_stringIcNS_11char_traitsIcEENS0_IcEEEENS_10shared_ptrIN3p2p5relay14TurnAllocationEEEEEPvEEEEE10deallocateB8ne200100EPSJ_m
FNA:0,44,_ZNSt3__19allocatorIPNS_16__hash_node_baseIPNS_11__hash_nodeINS_17__hash_value_typeINS_12basic_stringIcNS_11char_traitsIcEENS0_IcEEEES8_EEPvEEEEE10deallocateB8ne200100EPSE_m
FNA:0,5,_ZNSt3__19allocatorIPNS_4pairINS_6chrono10time_pointINS2_12steady_clockENS2_8durationIxNS_5ratioILl1ELl1000000000EEEEEEEmEEE10deallocateB8ne200100EPSB_m
FNA:0,144,_ZNSt3__19allocatorIcE10deallocateB8ne200100EPcm
FNA:0,641,_ZNSt3__19allocatorIhE10deallocateB8ne200100EPhm
FNA:0,17,_ZNSt3__19allocatorImE10deallocateB8ne200100EPmm
FNA:0,4,_ZNSt3__19allocatorItE10deallocateB8ne200100EPtm
FNL:1,162,163
FNA:1,0,_ZNSt3__1eqB8ne200100IvvEEbRKNS_9allocatorIT_EERKNS1_IT0_EE
FNL:2,71,71
FNA:2,0,_ZNSt3__116__non_trivial_ifILb1ENS_9allocatorIN3p2p3nat10STUNClientEEEEC2B8ne200100Ev
FNA:2,13,_ZNSt3__116__non_trivial_ifILb1ENS_9allocatorIN3p2p5relay13StunAttributeEEEEC2B8ne200100Ev
FNA:2,34,_ZNSt3__116__non_trivial_ifILb1ENS_9allocatorIN3p2p5relay14TurnAllocationEEEEC2B8ne200100Ev
FNA:2,1,_ZNSt3__116__non_trivial_ifILb1ENS_9allocatorIN3p2p5relay7AddressEEEEC2B8ne200100Ev
FNA:2,67,_ZNSt3__116__non_trivial_ifILb1ENS_9allocatorIN3p2p8protocol13StunAttributeEEEEC2B8ne200100Ev
FNA:2,14,_ZNSt3__116__non_trivial_ifILb1ENS_9allocatorIN3p2p9transport12UDPTransportEEEEC2B8ne200100Ev
FNA:2,62,_ZNSt3__116__non_trivial_ifILb1ENS_9allocatorIN5boost4asio17execution_context14allocator_implINS1_IvEEEEEEEC2B8ne200100Ev
FNA:2,7,_ZNSt3__116__non_trivial_ifILb1ENS_9allocatorIN5boost4asio19basic_stream_socketINS3_2ip3tcpENS3_15any_io_executorEEEEEEC2B8ne200100Ev
FNA:2,0,_ZNSt3__116__non_trivial_ifILb1ENS_9allocatorIN5boost4asio21basic_datagram_socketINS3_2ip3udpENS3_15any_io_executorEEEEEEC2B8ne200100Ev
FNA:2,0,_ZNSt3__116__non_trivial_ifILb1ENS_9allocatorIN5boost4asio2ip14basic_endpointINS4_3udpEEEEEEC2B8ne200100Ev
FNA:2,0,_ZNSt3__116__non_trivial_ifILb1ENS_9allocatorIN5boost4asio2ip14basic_resolverINS4_3udpENS3_15any_io_executorEEEEEEC2B8ne200100Ev
FNA:2,0,_ZNSt3__116__non_trivial_ifILb1ENS_9allocatorIN5boost4asio2ip20basic_resolver_entryINS4_3udpEEEEEEC2B8ne200100Ev
FNA:2,0,_ZNSt3__116__non_trivial_ifILb1ENS_9allocatorIN5boost4asio6detail12posix_thread4funcINS4_9scheduler15thread_functionENS1_IvEEEEEEEC2B8ne200100Ev
FNA:2,0,_ZNSt3__116__non_trivial_ifILb1ENS_9allocatorIN5boost4asio6detail12thread_groupINS1_IvEEE4itemEEEEC2B8ne200100Ev
FNA:2,51,_ZNSt3__116__non_trivial_ifILb1ENS_9allocatorIN8nlohmann16json_abi_v3_12_010basic_jsonINS_3mapENS_6vectorENS_12basic_stringIcNS_11char_traitsIcEENS1_IcEEEEbxydS1_NS3_14adl_serializerENS6_IhNS1_IhEEEEvEEEEEC2B8ne200100Ev
FNA:2,0,_ZNSt3__116__non_trivial_ifILb1ENS_9allocatorIN8nlohmann16json_abi_v3_12_027byte_container_with_subtypeINS_6vectorIhNS1_IhEEEEEEEEEC2B8ne200100Ev
FNA:2,19,_ZNSt3__116__non_trivial_ifILb1ENS_9allocatorIN8nlohmann16json_abi_v3_12_06detail21output_string_adapterIcNS_12basic_stringIcNS_11char_traitsIcEENS1_IcEEEEEEEEEC2B8ne200100Ev
FNA:2,1,_ZNSt3__116__non_trivial_ifILb1ENS_9allocatorINS_10__function6__funcIZN33UDPTransportTest_LargePacket_Test8TestBodyEvE3$_0NS1_IS5_EEFvRKNS_6vectorIhNS1_IhEEEERKN5boost4asio2ip14basic_endpointINSE_3udpEEEEEEEEEC2B8ne200100Ev
FNA:2,1,_ZNSt3__116__non_trivial_ifILb1ENS_9allocatorINS_10__function6__funcIZN33UDPTransportTest_LargePacket_Test8TestBodyEvE3$_1NS1_IS5_EEFvRKNS_10error_codeEEEEEEEC2B8ne200100Ev
FNA:2,4,_ZNSt3__116__non_trivial_ifILb1ENS_9allocatorINS_10__function6__funcIZN33UDPTransportTest_SendReceive_Test8TestBodyEvE3$_0NS1_IS5_EEFvRKNS_6vectorIhNS1_IhEEEERKN5boost4asio2ip14basic_endpointINSE_3udpEEEEEEEEEC2B8ne200100Ev
FNA:2,1,_ZNSt3__116__non_trivial_ifILb1ENS_9allocatorINS_10__function6__funcIZN33UDPTransportTest_SendReceive_Test8TestBodyEvE3$_1NS1_IS5_EEFvRKNS_10error_codeEEEEEEEC2B8ne200100Ev
FNA:2,1,_ZNSt3__116__non_trivial_ifILb1ENS_9allocatorINS_10__function6__funcIZN34UDPTransportTest_SendWithPeer_Test8TestBodyEvE3$_0NS1_IS5_EEFvRKNS_6vectorIhNS1_IhEEEERKN5boost4asio2ip14basic_endpointINSE_3udpEEEEEEEEEC2B8ne200100Ev
FNA:2,1,_ZNSt3__116__non_trivial_ifILb1ENS_9allocatorINS_10__function6__funcIZN34UDPTransportTest_SendWithPeer_Test8TestBodyEvE3$_1NS1_IS5_EEFvRKNS_10error_codeEEEEEEEC2B8ne200100Ev
FNA:2,1,_ZNSt3__116__non_trivial_ifILb1ENS_9allocatorINS_10__function6__funcIZN35UDPTransportTest_SendAfterStop_Test8TestBodyEvE3$_0NS1_IS5_EEFvRKNS_10error_codeEEEEEEEC2B8ne200100Ev
FNA:2,1,_ZNSt3__116__non_trivial_ifILb1ENS_9allocatorINS_10__function6__funcIZN37UDPTransportTest_SendWithoutPeer_Test8TestBodyEvE3$_0NS1_IS5_EEFvRKNS_10error_codeEEEEEEEC2B8ne200100Ev
FNA:2,1,_ZNSt3__116__non_trivial_ifILb1ENS_9allocatorINS_10__function6__funcIZN38UDPTransportTest_MultipleMessages_Test8TestBodyEvE3$_0NS1_IS5_EEFvRKNS_6vectorIhNS1_IhEEEERKN5boost4asio2ip14basic_endpointINSE_3udpEEEEEEEEEC2B8ne200100Ev
FNA:2,10,_ZNSt3__116__non_trivial_ifILb1ENS_9allocatorINS_10__function6__funcIZN38UDPTransportTest_MultipleMessages_Test8TestBodyEvE3$_1NS1_IS5_EEFvRKNS_10error_codeEEEEEEEC2B8ne200100Ev
FNA:2,0,_ZNSt3__116__non_trivial_ifILb1ENS_9allocatorINS_10__function6__funcIZN3p2p3nat15detect_nat_typeERN5boost4asio10io_contextERKNS_12basic_stringIcNS_11char_traitsIcEENS1_IcEEEEtNS_8functionIFvRKNS5_18NATDetectionResultEEEEE3$_0NS1_ISN_EEFvNS_8optionalISE_EENSP_ItEEEEEEEEC2B8ne200100Ev
FNA:2,1,_ZNSt3__116__non_trivial_ifILb1ENS_9allocatorINS_10shared_ptrIN3p2p5relay14TurnAllocationEEEEEEC2B8ne200100Ev
FNA:2,4,_ZNSt3__116__non_trivial_ifILb1ENS_9allocatorINS_10unique_ptrIN3p2p7testing10TestClientENS_14default_deleteIS5_EEEEEEEC2B8ne200100Ev
FNA:2,34,_ZNSt3__116__non_trivial_ifILb1ENS_9allocatorINS_11__hash_nodeINS_12basic_stringIcNS_11char_traitsIcEENS1_IcEEEEPvEEEEEC2B8ne200100Ev
FNA:2,9,_ZNSt3__116__non_trivial_ifILb1ENS_9allocatorINS_11__hash_nodeINS_17__hash_value_typeINS_12basic_stringIcNS_11char_traitsIcEENS1_IcEEEEN3p2p5relay14BandwidthStatsEEEPvEEEEEC2B8ne200100Ev
FNA:2,9,_ZNSt3__116__non_trivial_ifILb1ENS_9allocatorINS_11__hash_nodeINS_17__hash_value_typeINS_12basic_stringIcNS_11char_traitsIcEENS1_IcEEEEN3p2p5relay16BandwidthLimiter18AllocationLimitersEEEPvEEEEEC2B8ne200100Ev
FNA:2,20,_ZNSt3__116__non_trivial_ifILb1ENS_9allocatorINS_11__hash_nodeINS_17__hash_value_typeINS_12basic_stringIcNS_11char_traitsIcEENS1_IcEEEENS_10shared_ptrIN3p2p5relay14TurnAllocationEEEEEPvEEEEEC2B8ne200100Ev
FNA:2,40,_ZNSt3__116__non_trivial_ifILb1ENS_9allocatorINS_11__hash_nodeINS_17__hash_value_typeINS_12basic_stringIcNS_11char_traitsIcEENS1_IcEEEES8_EEPvEEEEEC2B8ne200100Ev
FNA:2,10,_ZNSt3__116__non_trivial_ifILb1ENS_9allocatorINS_11__tree_nodeINS_12__value_typeIN3p2p9detection12DeviceVendorENS5_13DeviceProfileEEEPvEEEEEC2B8ne200100Ev
FNA:2,51,_ZNSt3__116__non_trivial_ifILb1ENS_9allocatorINS_11__tree_nodeINS_12__value_typeINS_12basic_stringIcNS_11char_traitsIcEENS1_IcEEEEN8nlohmann16json_abi_v3_12_010basic_jsonINS_3mapENS_6vectorES8_bxydS1_NSA_14adl_serializerENSD_IhNS1_IhEEEEvEEEEPvEEEEEC2B8ne200100Ev
FNA:2,53,_ZNSt3__116__non_trivial_ifILb1ENS_9allocatorINS_11__tree_nodeINS_12__value_typeINS_12basic_stringIcNS_11char_traitsIcEENS1_IcEEEES8_EEPvEEEEEC2B8ne200100Ev
FNA:2,289,_ZNSt3__116__non_trivial_ifILb1ENS_9allocatorINS_12basic_stringIcNS_11char_traitsIcEENS1_IcEEEEEEEC2B8ne200100Ev
FNA:2,0,_ZNSt3__116__non_trivial_ifILb1ENS_9allocatorINS_20__shared_ptr_emplaceIN3p2p3nat10STUNClientENS1_IS5_EEEEEEEC2B8ne200100Ev
FNA:2,68,_ZNSt3__116__non_trivial_ifILb1ENS_9allocatorINS_20__shared_ptr_emplaceIN3p2p5relay14TurnAllocationENS1_IS5_EEEEEEEC2B8ne200100Ev
FNA:2,28,_ZNSt3__116__non_trivial_ifILb1ENS_9allocatorINS_20__shared_ptr_emplaceIN3p2p9transport12UDPTransportENS1_IS5_EEEEEEEC2B8ne200100Ev
FNA:2,14,_ZNSt3__116__non_trivial_ifILb1ENS_9allocatorINS_20__shared_ptr_emplaceIN5boost4asio19basic_stream_socketINS4_2ip3tcpENS4_15any_io_executorEEENS1_IS9_EEEEEEEC2B8ne200100Ev
FNA:2,0,_ZNSt3__116__non_trivial_ifILb1ENS_9allocatorINS_20__shared_ptr_emplaceIN5boost4asio21basic_datagram_socketINS4_2ip3udpENS4_15any_io_executorEEENS1_IS9_EEEEEEEC2B8ne200100Ev
FNA:2,0,_ZNSt3__116__non_trivial_ifILb1ENS_9allocatorINS_20__shared_ptr_emplaceIN5boost4asio2ip14basic_endpointINS5_3udpEEENS1_IS8_EEEEEEEC2B8ne200100Ev
FNA:2,0,_ZNSt3__116__non_trivial_ifILb1ENS_9allocatorINS_20__shared_ptr_emplaceIN5boost4asio2ip14basic_resolverINS5_3udpENS4_15any_io_executorEEENS1_IS9_EEEEEEEC2B8ne200100Ev
FNA:2,38,_ZNSt3__116__non_trivial_ifILb1ENS_9allocatorINS_20__shared_ptr_emplaceIN8nlohmann16json_abi_v3_12_06detail21output_string_adapterIcNS_12basic_stringIcNS_11char_traitsIcEENS1_IcEEEEEENS1_ISC_EEEEEEEC2B8ne200100Ev
FNA:2,26,_ZNSt3__116__non_trivial_ifILb1ENS_9allocatorINS_20__shared_ptr_emplaceINS_6vectorIhNS1_IhEEEENS1_IS5_EEEEEEEC2B8ne200100Ev
FNA:2,0,_ZNSt3__116__non_trivial_ifILb1ENS_9allocatorINS_20__shared_ptr_pointerIPNS_6vectorIN5boost4asio2ip20basic_resolver_entryINS6_3udpEEENS1_IS9_EEEENS_10shared_ptrISB_E27__shared_ptr_default_deleteISB_SB_EENS1_ISB_EEEEEEEC2B8ne200100Ev
FNA:2,0,_ZNSt3__116__non_trivial_ifILb1ENS_9allocatorINS_20__shared_ptr_pointerIPvN5boost4asio6detail10socket_ops12noop_deleterENS1_IvEEEEEEEC2B8ne200100Ev
FNA:2,102,_ZNSt3__116__non_trivial_ifILb1ENS_9allocatorINS_3mapINS_12basic_stringIcNS_11char_traitsIcEENS1_IcEEEEN8nlohmann16json_abi_v3_12_010basic_jsonIS2_NS_6vectorES7_bxydS1_NS9_14adl_serializerENSB_IhNS1_IhEEEEvEENS_4lessIvEENS1_INS_4pairIKS7_SF_EEEEEEEEEC2B8ne200100Ev
FNA:2,5,_ZNSt3__116__non_trivial_ifILb1ENS_9allocatorINS_4pairIN3p2p9detection12DeviceVendorEdEEEEEC2B8ne200100Ev
FNA:2,10,_ZNSt3__116__non_trivial_ifILb1ENS_9allocatorINS_4pairINS_6chrono10time_pointINS3_12steady_clockENS3_8durationIxNS_5ratioILl1ELl1000000000EEEEEEEmEEEEEC2B8ne200100Ev
FNA:2,1,_ZNSt3__116__non_trivial_ifILb1ENS_9allocatorINS_5arrayIhLm12EEEEEEC2B8ne200100Ev
FNA:2,7,_ZNSt3__116__non_trivial_ifILb1ENS_9allocatorINS_6threadEEEEC2B8ne200100Ev
FNA:2,0,_ZNSt3__116__non_trivial_ifILb1ENS_9allocatorINS_6vectorIN5boost4asio2ip20basic_resolver_entryINS5_3udpEEENS1_IS8_EEEEEEEC2B8ne200100Ev
FNA:2,0,_ZNSt3__116__non_trivial_ifILb1ENS_9allocatorINS_6vectorIN8nlohmann16json_abi_v3_12_010basic_jsonINS_3mapES2_NS_12basic_stringIcNS_11char_traitsIcEENS1_IcEEEEbxydS1_NS4_14adl_serializerENS2_IhNS1_IhEEEEvEENS1_ISF_EEEEEEEC2B8ne200100Ev
FNA:2,13,_ZNSt3__116__non_trivial_ifILb1ENS_9allocatorINS_6vectorIhNS1_IhEEEEEEEC2B8ne200100Ev
FNA:2,18,_ZNSt3__116__non_trivial_ifILb1ENS_9allocatorIPN8nlohmann16json_abi_v3_12_010basic_jsonINS_3mapENS_6vectorENS_12basic_stringIcNS_11char_traitsIcEENS1_IcEEEEbxydS1_NS3_14adl_serializerENS6_IhNS1_IhEEEEvEEEEEC2B8ne200100Ev
FNA:2,34,_ZNSt3__116__non_trivial_ifILb1ENS_9allocatorIPNS_16__hash_node_baseIPNS_11__hash_nodeINS_12basic_stringIcNS_11char_traitsIcEENS1_IcEEEEPvEEEEEEEC2B8ne200100Ev
FNA:2,9,_ZNSt3__116__non_trivial_ifILb1ENS_9allocatorIPNS_16__hash_node_baseIPNS_11__hash_nodeINS_17__hash_value_typeINS_12basic_stringIcNS_11char_traitsIcEENS1_IcEEEEN3p2p5relay14BandwidthStatsEEEPvEEEEEEEC2B8ne200100Ev
FNA:2,9,_ZNSt3__116__non_trivial_ifILb1ENS_9allocatorIPNS_16__hash_node_baseIPNS_11__hash_nodeINS_17__hash_value_typeINS_12basic_stringIcNS_11char_traitsIcEENS1_IcEEEEN3p2p5relay16BandwidthLimiter18AllocationLimitersEEEPvEEEEEEEC2B8ne200100Ev
FNA:2,20,_ZNSt3__116__non_trivial_ifILb1ENS_9allocatorIPNS_16__hash_node_baseIPNS_11__hash_nodeINS_17__hash_value_typeINS_12basic_stringIcNS_11char_traitsIcEENS1_IcEEEENS_10shared_ptrIN3p2p5relay14TurnAllocationEEEEEPvEEEEEEEC2B8ne200100Ev
FNA:2,40,_ZNSt3__116__non_trivial_ifILb1ENS_9allocatorIPNS_16__hash_node_baseIPNS_11__hash_nodeINS_17__hash_value_typeINS_12basic_stringIcNS_11char_traitsIcEENS1_IcEEEES9_EEPvEEEEEEEC2B8ne200100Ev
FNA:2,10,_ZNSt3__116__non_trivial_ifILb1ENS_9allocatorIPNS_4pairINS_6chrono10time_pointINS3_12steady_clockENS3_8durationIxNS_5ratioILl1ELl1000000000EEEEEEEmEEEEEC2B8ne200100Ev
FNA:2,2,_ZNSt3__116__non_trivial_ifILb1ENS_9allocatorIZN33UDPTransportTest_LargePacket_Test8TestBodyEvE3$_0EEEC2B8ne200100Ev
FNA:2,2,_ZNSt3__116__non_trivial_ifILb1ENS_9allocatorIZN33UDPTransportTest_LargePacket_Test8TestBodyEvE3$_1EEEC2B8ne200100Ev
FNA:2,2,_ZNSt3__116__non_trivial_ifILb1ENS_9allocatorIZN33UDPTransportTest_SendReceive_Test8TestBodyEvE3$_0EEEC2B8ne200100Ev
FNA:2,2,_ZNSt3__116__non_trivial_ifILb1ENS_9allocatorIZN33UDPTransportTest_SendReceive_Test8TestBodyEvE3$_1EEEC2B8ne200100Ev
FNA:2,2,_ZNSt3__116__non_trivial_ifILb1ENS_9allocatorIZN34UDPTransportTest_SendWithPeer_Test8TestBodyEvE3$_0EEEC2B8ne200100Ev
FNA:2,2,_ZNSt3__116__non_trivial_ifILb1ENS_9allocatorIZN34UDPTransportTest_SendWithPeer_Test8TestBodyEvE3$_1EEEC2B8ne200100Ev
FNA:2,2,_ZNSt3__116__non_trivial_ifILb1ENS_9allocatorIZN35UDPTransportTest_SendAfterStop_Test8TestBodyEvE3$_0EEEC2B8ne200100Ev
FNA:2,2,_ZNSt3__116__non_trivial_ifILb1ENS_9allocatorIZN37UDPTransportTest_SendWithoutPeer_Test8TestBodyEvE3$_0EEEC2B8ne200100Ev
FNA:2,2,_ZNSt3__116__non_trivial_ifILb1ENS_9allocatorIZN38UDPTransportTest_MultipleMessages_Test8TestBodyEvE3$_0EEEC2B8ne200100Ev
FNA:2,20,_ZNSt3__116__non_trivial_ifILb1ENS_9allocatorIZN38UDPTransportTest_MultipleMessages_Test8TestBodyEvE3$_1EEEC2B8ne200100Ev
FNA:2,0,_ZNSt3__116__non_trivial_ifILb1ENS_9allocatorIZN3p2p3nat15detect_nat_typeERN5boost4asio10io_contextERKNS_12basic_stringIcNS_11char_traitsIcEENS1_IcEEEEtNS_8functionIFvRKNS3_18NATDetectionResultEEEEE3$_0EEEC2B8ne200100Ev
FNA:2,17,_ZNSt3__116__non_trivial_ifILb1ENS_9allocatorIbEEEC2B8ne200100Ev
FNA:2,3352,_ZNSt3__116__non_trivial_ifILb1ENS_9allocatorIcEEEC2B8ne200100Ev
FNA:2,602,_ZNSt3__116__non_trivial_ifILb1ENS_9allocatorIhEEEC2B8ne200100Ev
FNA:2,35,_ZNSt3__116__non_trivial_ifILb1ENS_9allocatorImEEEC2B8ne200100Ev
FNA:2,1,_ZNSt3__116__non_trivial_ifILb1ENS_9allocatorItEEEC2B8ne200100Ev
FNL:3,93,93
FNA:3,0,_ZNSt3__19allocatorIN3p2p3nat10STUNClientEEC1B8ne200100Ev
FNA:3,0,_ZNSt3__19allocatorIN3p2p3nat10STUNClientEEC2B8ne200100Ev
FNA:3,13,_ZNSt3__19allocatorIN3p2p5relay13StunAttributeEEC1B8ne200100Ev
FNA:3,13,_ZNSt3__19allocatorIN3p2p5relay13StunAttributeEEC2B8ne200100Ev
FNA:3,34,_ZNSt3__19allocatorIN3p2p5relay14TurnAllocationEEC1B8ne200100Ev
FNA:3,34,_ZNSt3__19allocatorIN3p2p5relay14TurnAllocationEEC2B8ne200100Ev
FNA:3,1,_ZNSt3__19allocatorIN3p2p5relay7AddressEEC1B8ne200100Ev
FNA:3,1,_ZNSt3__19allocatorIN3p2p5relay7AddressEEC2B8ne200100Ev
FNA:3,67,_ZNSt3__19allocatorIN3p2p8protocol13StunAttributeEEC1B8ne200100Ev
FNA:3,67,_ZNSt3__19allocatorIN3p2p8protocol13StunAttributeEEC2B8ne200100Ev
FNA:3,14,_ZNSt3__19allocatorIN3p2p9transport12UDPTransportEEC1B8ne200100Ev
FNA:3,14,_ZNSt3__19allocatorIN3p2p9transport12UDPTransportEEC2B8ne200100Ev
FNA:3,7,_ZNSt3__19allocatorIN5boost4asio19basic_stream_socketINS2_2ip3tcpENS2_15any_io_executorEEEEC1B8ne200100Ev
FNA:3,7,_ZNSt3__19allocatorIN5boost4asio19basic_stream_socketINS2_2ip3tcpENS2_15any_io_executorEEEEC2B8ne200100Ev
FNA:3,0,_ZNSt3__19allocatorIN5boost4asio21basic_datagram_socketINS2_2ip3udpENS2_15any_io_executorEEEEC1B8ne200100Ev
FNA:3,0,_ZNSt3__19allocatorIN5boost4asio21basic_datagram_socketINS2_2ip3udpENS2_15any_io_executorEEEEC2B8ne200100Ev
FNA:3,0,_ZNSt3__19allocatorIN5boost4asio2ip14basic_endpointINS3_3udpEEEEC1B8ne200100Ev
FNA:3,0,_ZNSt3__19allocatorIN5boost4asio2ip14basic_endpointINS3_3udpEEEEC2B8ne200100Ev
FNA:3,0,_ZNSt3__19allocatorIN5boost4asio2ip14basic_resolverINS3_3udpENS2_15any_io_executorEEEEC1B8ne200100Ev
FNA:3,0,_ZNSt3__19allocatorIN5boost4asio2ip14basic_resolverINS3_3udpENS2_15any_io_executorEEEEC2B8ne200100Ev
FNA:3,0,_ZNSt3__19allocatorIN5boost4asio2ip20basic_resolver_entryINS3_3udpEEEEC1B8ne200100Ev
FNA:3,0,_ZNSt3__19allocatorIN5boost4asio2ip20basic_resolver_entryINS3_3udpEEEEC2B8ne200100Ev
FNA:3,51,_ZNSt3__19allocatorIN8nlohmann16json_abi_v3_12_010basic_jsonINS_3mapENS_6vectorENS_12basic_stringIcNS_11char_traitsIcEENS0_IcEEEEbxydS0_NS2_14adl_serializerENS5_IhNS0_IhEEEEvEEEC1B8ne200100Ev
FNA:3,51,_ZNSt3__19allocatorIN8nlohmann16json_abi_v3_12_010basic_jsonINS_3mapENS_6vectorENS_12basic_stringIcNS_11char_traitsIcEENS0_IcEEEEbxydS0_NS2_14adl_serializerENS5_IhNS0_IhEEEEvEEEC2B8ne200100Ev
FNA:3,0,_ZNSt3__19allocatorIN8nlohmann16json_abi_v3_12_027byte_container_with_subtypeINS_6vectorIhNS0_IhEEEEEEEC1B8ne200100Ev
FNA:3,0,_ZNSt3__19allocatorIN8nlohmann16json_abi_v3_12_027byte_container_with_subtypeINS_6vectorIhNS0_IhEEEEEEEC2B8ne200100Ev
FNA:3,19,_ZNSt3__19allocatorIN8nlohmann16json_abi_v3_12_06detail21output_string_adapterIcNS_12basic_stringIcNS_11char_traitsIcEENS0_IcEEEEEEEC1B8ne200100Ev
FNA:3,19,_ZNSt3__19allocatorIN8nlohmann16json_abi_v3_12_06detail21output_string_adapterIcNS_12basic_stringIcNS_11char_traitsIcEENS0_IcEEEEEEEC2B8ne200100Ev
FNA:3,1,_ZNSt3__19allocatorINS_10shared_ptrIN3p2p5relay14TurnAllocationEEEEC1B8ne200100Ev
FNA:3,1,_ZNSt3__19allocatorINS_10shared_ptrIN3p2p5relay14TurnAllocationEEEEC2B8ne200100Ev
FNA:3,4,_ZNSt3__19allocatorINS_10unique_ptrIN3p2p7testing10TestClientENS_14default_deleteIS4_EEEEEC1B8ne200100Ev
FNA:3,4,_ZNSt3__19allocatorINS_10unique_ptrIN3p2p7testing10TestClientENS_14default_deleteIS4_EEEEEC2B8ne200100Ev
FNA:3,34,_ZNSt3__19allocatorINS_11__hash_nodeINS_12basic_stringIcNS_11char_traitsIcEENS0_IcEEEEPvEEEC1B8ne200100Ev
FNA:3,34,_ZNSt3__19allocatorINS_11__hash_nodeINS_12basic_stringIcNS_11char_traitsIcEENS0_IcEEEEPvEEEC2B8ne200100Ev
FNA:3,9,_ZNSt3__19allocatorINS_11__hash_nodeINS_17__hash_value_typeINS_12basic_stringIcNS_11char_traitsIcEENS0_IcEEEEN3p2p5relay14BandwidthStatsEEEPvEEEC1B8ne200100Ev
FNA:3,9,_ZNSt3__19allocatorINS_11__hash_nodeINS_17__hash_value_typeINS_12basic_stringIcNS_11char_traitsIcEENS0_IcEEEEN3p2p5relay14BandwidthStatsEEEPvEEEC2B8ne200100Ev
FNA:3,9,_ZNSt3__19allocatorINS_11__hash_nodeINS_17__hash_value_typeINS_12basic_stringIcNS_11char_traitsIcEENS0_IcEEEEN3p2p5relay16BandwidthLimiter18AllocationLimitersEEEPvEEEC1B8ne200100Ev
FNA:3,9,_ZNSt3__19allocatorINS_11__hash_nodeINS_17__hash_value_typeINS_12basic_stringIcNS_11char_traitsIcEENS0_IcEEEEN3p2p5relay16BandwidthLimiter18AllocationLimitersEEEPvEEEC2B8ne200100Ev
FNA:3,20,_ZNSt3__19allocatorINS_11__hash_nodeINS_17__hash_value_typeINS_12basic_stringIcNS_11char_traitsIcEENS0_IcEEEENS_10shared_ptrIN3p2p5relay14TurnAllocationEEEEEPvEEEC1B8ne200100Ev
FNA:3,20,_ZNSt3__19allocatorINS_11__hash_nodeINS_17__hash_value_typeINS_12basic_stringIcNS_11char_traitsIcEENS0_IcEEEENS_10shared_ptrIN3p2p5relay14TurnAllocationEEEEEPvEEEC2B8ne200100Ev
FNA:3,40,_ZNSt3__19allocatorINS_11__hash_nodeINS_17__hash_value_typeINS_12basic_stringIcNS_11char_traitsIcEENS0_IcEEEES7_EEPvEEEC1B8ne200100Ev
FNA:3,40,_ZNSt3__19allocatorINS_11__hash_nodeINS_17__hash_value_typeINS_12basic_stringIcNS_11char_traitsIcEENS0_IcEEEES7_EEPvEEEC2B8ne200100Ev
FNA:3,10,_ZNSt3__19allocatorINS_11__tree_nodeINS_12__value_typeIN3p2p9detection12DeviceVendorENS4_13DeviceProfileEEEPvEEEC1B8ne200100Ev
FNA:3,10,_ZNSt3__19allocatorINS_11__tree_nodeINS_12__value_typeIN3p2p9detection12DeviceVendorENS4_13DeviceProfileEEEPvEEEC2B8ne200100Ev
FNA:3,51,_ZNSt3__19allocatorINS_11__tree_nodeINS_12__value_typeINS_12basic_stringIcNS_11char_traitsIcEENS0_IcEEEEN8nlohmann16json_abi_v3_12_010basic_jsonINS_3mapENS_6vectorES7_bxydS0_NS9_14adl_serializerENSC_IhNS0_IhEEEEvEEEEPvEEEC1B8ne200100Ev
FNA:3,51,_ZNSt3__19allocatorINS_11__tree_nodeINS_12__value_typeINS_12basic_stringIcNS_11char_traitsIcEENS0_IcEEEEN8nlohmann16json_abi_v3_12_010basic_jsonINS_3mapENS_6vectorES7_bxydS0_NS9_14adl_serializerENSC_IhNS0_IhEEEEvEEEEPvEEEC2B8ne200100Ev
FNA:3,53,_ZNSt3__19allocatorINS_11__tree_nodeINS_12__value_typeINS_12basic_stringIcNS_11char_traitsIcEENS0_IcEEEES7_EEPvEEEC1B8ne200100Ev
FNA:3,53,_ZNSt3__19allocatorINS_11__tree_nodeINS_12__value_typeINS_12basic_stringIcNS_11char_traitsIcEENS0_IcEEEES7_EEPvEEEC2B8ne200100Ev
FNA:3,289,_ZNSt3__19allocatorINS_12basic_stringIcNS_11char_traitsIcEENS0_IcEEEEEC1B8ne200100Ev
FNA:3,289,_ZNSt3__19allocatorINS_12basic_stringIcNS_11char_traitsIcEENS0_IcEEEEEC2B8ne200100Ev
FNA:3,102,_ZNSt3__19allocatorINS_3mapINS_12basic_stringIcNS_11char_traitsIcEENS0_IcEEEEN8nlohmann16json_abi_v3_12_010basic_jsonIS1_NS_6vectorES6_bxydS0_NS8_14adl_serializerENSA_IhNS0_IhEEEEvEENS_4lessIvEENS0_INS_4pairIKS6_SE_EEEEEEEC1B8ne200100Ev
FNA:3,102,_ZNSt3__19allocatorINS_3mapINS_12basic_stringIcNS_11char_traitsIcEENS0_IcEEEEN8nlohmann16json_abi_v3_12_010basic_jsonIS1_NS_6vectorES6_bxydS0_NS8_14adl_serializerENSA_IhNS0_IhEEEEvEENS_4lessIvEENS0_INS_4pairIKS6_SE_EEEEEEEC2B8ne200100Ev
FNA:3,5,_ZNSt3__19allocatorINS_4pairIN3p2p9detection12DeviceVendorEdEEEC1B8ne200100Ev
FNA:3,5,_ZNSt3__19allocatorINS_4pairIN3p2p9detection12DeviceVendorEdEEEC2B8ne200100Ev
FNA:3,10,_ZNSt3__19allocatorINS_4pairINS_6chrono10time_pointINS2_12steady_clockENS2_8durationIxNS_5ratioILl1ELl1000000000EEEEEEEmEEEC1B8ne200100Ev
FNA:3,10,_ZNSt3__19allocatorINS_4pairINS_6chrono10time_pointINS2_12steady_clockENS2_8durationIxNS_5ratioILl1ELl1000000000EEEEEEEmEEEC2B8ne200100Ev
FNA:3,1,_ZNSt3__19allocatorINS_5arrayIhLm12EEEEC1B8ne200100Ev
FNA:3,1,_ZNSt3__19allocatorINS_5arrayIhLm12EEEEC2B8ne200100Ev
FNA:3,7,_ZNSt3__19allocatorINS_6threadEEC1B8ne200100Ev
FNA:3,7,_ZNSt3__19allocatorINS_6threadEEC2B8ne200100Ev
FNA:3,0,_ZNSt3__19allocatorINS_6vectorIN5boost4asio2ip20basic_resolver_entryINS4_3udpEEENS0_IS7_EEEEEC1B8ne200100Ev
FNA:3,0,_ZNSt3__19allocatorINS_6vectorIN5boost4asio2ip20basic_resolver_entryINS4_3udpEEENS0_IS7_EEEEEC2B8ne200100Ev
FNA:3,0,_ZNSt3__19allocatorINS_6vectorIN8nlohmann16json_abi_v3_12_010basic_jsonINS_3mapES1_NS_12basic_stringIcNS_11char_traitsIcEENS0_IcEEEEbxydS0_NS3_14adl_serializerENS1_IhNS0_IhEEEEvEENS0_ISE_EEEEEC1B8ne200100Ev
FNA:3,0,_ZNSt3__19allocatorINS_6vectorIN8nlohmann16json_abi_v3_12_010basic_jsonINS_3mapES1_NS_12basic_stringIcNS_11char_traitsIcEENS0_IcEEEEbxydS0_NS3_14adl_serializerENS1_IhNS0_IhEEEEvEENS0_ISE_EEEEEC2B8ne200100Ev
FNA:3,13,_ZNSt3__19allocatorINS_6vectorIhNS0_IhEEEEEC1B8ne200100Ev
FNA:3,13,_ZNSt3__19allocatorINS_6vectorIhNS0_IhEEEEEC2B8ne200100Ev
FNA:3,18,_ZNSt3__19allocatorIPN8nlohmann16json_abi_v3_12_010basic_jsonINS_3mapENS_6vectorENS_12basic_stringIcNS_11char_traitsIcEENS0_IcEEEEbxydS0_NS2_14adl_serializerENS5_IhNS0_IhEEEEvEEEC1B8ne200100Ev
FNA:3,18,_ZNSt3__19allocatorIPN8nlohmann16json_abi_v3_12_010basic_jsonINS_3mapENS_6vectorENS_12basic_stringIcNS_11char_traitsIcEENS0_IcEEEEbxydS0_NS2_14adl_serializerENS5_IhNS0_IhEEEEvEEEC2B8ne200100Ev
FNA:3,34,_ZNSt3__19allocatorIPNS_16__hash_node_baseIPNS_11__hash_nodeINS_12basic_stringIcNS_11char_traitsIcEENS0_IcEEEEPvEEEEEC1B8ne200100Ev
FNA:3,34,_ZNSt3__19allocatorIPNS_16__hash_node_baseIPNS_11__hash_nodeINS_12basic_stringIcNS_11char_traitsIcEENS0_IcEEEEPvEEEEEC2B8ne200100Ev
FNA:3,9,_ZNSt3__19allocatorIPNS_16__hash_node_baseIPNS_11__hash_nodeINS_17__hash_value_typeINS_12basic_stringIcNS_11char_traitsIcEENS0_IcEEEEN3p2p5relay14BandwidthStatsEEEPvEEEEEC1B8ne200100Ev
FNA:3,9,_ZNSt3__19allocatorIPNS_16__hash_node_baseIPNS_11__hash_nodeINS_17__hash_value_typeINS_12basic_stringIcNS_11char_traitsIcEENS0_IcEEEEN3p2p5relay14BandwidthStatsEEEPvEEEEEC2B8ne200100Ev
FNA:3,9,_ZNSt3__19allocatorIPNS_16__hash_node_baseIPNS_11__hash_nodeINS_17__hash_value_typeINS_12basic_stringIcNS_11char_traitsIcEENS0_IcEEEEN3p2p5relay16BandwidthLimiter18AllocationLimitersEEEPvEEEEEC1B8ne200100Ev
FNA:3,9,_ZNSt3__19allocatorIPNS_16__hash_node_baseIPNS_11__hash_nodeINS_17__hash_value_typeINS_12basic_stringIcNS_11char_traitsIcEENS0_IcEEEEN3p2p5relay16BandwidthLimiter18AllocationLimitersEEEPvEEEEEC2B8ne200100Ev
FNA:3,20,_ZNSt3__19allocatorIPNS_16__hash_node_baseIPNS_11__hash_nodeINS_17__hash_value_typeINS_12basic_stringIcNS_11char_traitsIcEENS0_IcEEEENS_10shared_ptrIN3p2p5relay14TurnAllocationEEEEEPvEEEEEC1B8ne200100Ev
FNA:3,20,_ZNSt3__19allocatorIPNS_16__hash_node_baseIPNS_11__hash_nodeINS_17__hash_value_typeINS_12basic_stringIcNS_11char_traitsIcEENS0_IcEEEENS_10shared_ptrIN3p2p5relay14TurnAllocationEEEEEPvEEEEEC2B8ne200100Ev
FNA:3,40,_ZNSt3__19allocatorIPNS_16__hash_node_baseIPNS_11__hash_nodeINS_17__hash_value_typeINS_12basic_stringIcNS_11char_traitsIcEENS0_IcEEEES8_EEPvEEEEEC1B8ne200100Ev
FNA:3,40,_ZNSt3__19allocatorIPNS_16__hash_node_baseIPNS_11__hash_nodeINS_17__hash_value_typeINS_12basic_stringIcNS_11char_traitsIcEENS0_IcEEEES8_EEPvEEEEEC2B8ne200100Ev
FNA:3,10,_ZNSt3__19allocatorIPNS_4pairINS_6chrono10time_pointINS2_12steady_clockENS2_8durationIxNS_5ratioILl1ELl1000000000EEEEEEEmEEEC1B8ne200100Ev
FNA:3,10,_ZNSt3__19allocatorIPNS_4pairINS_6chrono10time_pointINS2_12steady_clockENS2_8durationIxNS_5ratioILl1ELl1000000000EEEEEEEmEEEC2B8ne200100Ev
FNA:3,1,_ZNSt3__19allocatorIZN33UDPTransportTest_LargePacket_Test8TestBodyEvE3$_0EC1B8ne200100Ev
FNA:3,1,_ZNSt3__19allocatorIZN33UDPTransportTest_LargePacket_Test8TestBodyEvE3$_0EC2B8ne200100Ev
FNA:3,1,_ZNSt3__19allocatorIZN33UDPTransportTest_LargePacket_Test8TestBodyEvE3$_1EC1B8ne200100Ev
FNA:3,1,_ZNSt3__19allocatorIZN33UDPTransportTest_LargePacket_Test8TestBodyEvE3$_1EC2B8ne200100Ev
FNA:3,1,_ZNSt3__19allocatorIZN33UDPTransportTest_SendReceive_Test8TestBodyEvE3$_0EC1B8ne200100Ev
FNA:3,1,_ZNSt3__19allocatorIZN33UDPTransportTest_SendReceive_Test8TestBodyEvE3$_0EC2B8ne200100Ev
FNA:3,1,_ZNSt3__19allocatorIZN33UDPTransportTest_SendReceive_Test8TestBodyEvE3$_1EC1B8ne200100Ev
FNA:3,1,_ZNSt3__19allocatorIZN33UDPTransportTest_SendReceive_Test8TestBodyEvE3$_1EC2B8ne200100Ev
FNA:3,1,_ZNSt3__19allocatorIZN34UDPTransportTest_SendWithPeer_Test8TestBodyEvE3$_0EC1B8ne200100Ev
FNA:3,1,_ZNSt3__19allocatorIZN34UDPTransportTest_SendWithPeer_Test8TestBodyEvE3$_0EC2B8ne200100Ev
FNA:3,1,_ZNSt3__19allocatorIZN34UDPTransportTest_SendWithPeer_Test8TestBodyEvE3$_1EC1B8ne200100Ev
FNA:3,1,_ZNSt3__19allocatorIZN34UDPTransportTest_SendWithPeer_Test8TestBodyEvE3$_1EC2B8ne200100Ev
FNA:3,1,_ZNSt3__19allocatorIZN35UDPTransportTest_SendAfterStop_Test8TestBodyEvE3$_0EC1B8ne200100Ev
FNA:3,1,_ZNSt3__19allocatorIZN35UDPTransportTest_SendAfterStop_Test8TestBodyEvE3$_0EC2B8ne200100Ev
FNA:3,1,_ZNSt3__19allocatorIZN37UDPTransportTest_SendWithoutPeer_Test8TestBodyEvE3$_0EC1B8ne200100Ev
FNA:3,1,_ZNSt3__19allocatorIZN37UDPTransportTest_SendWithoutPeer_Test8TestBodyEvE3$_0EC2B8ne200100Ev
FNA:3,1,_ZNSt3__19allocatorIZN38UDPTransportTest_MultipleMessages_Test8TestBodyEvE3$_0EC1B8ne200100Ev
FNA:3,1,_ZNSt3__19allocatorIZN38UDPTransportTest_MultipleMessages_Test8TestBodyEvE3$_0EC2B8ne200100Ev
FNA:3,10,_ZNSt3__19allocatorIZN38UDPTransportTest_MultipleMessages_Test8TestBodyEvE3$_1EC1B8ne200100Ev
FNA:3,10,_ZNSt3__19allocatorIZN38UDPTransportTest_MultipleMessages_Test8TestBodyEvE3$_1EC2B8ne200100Ev
FNA:3,0,_ZNSt3__19allocatorIZN3p2p3nat15detect_nat_typeERN5boost4asio10io_contextERKNS_12basic_stringIcNS_11char_traitsIcEENS0_IcEEEEtNS_8functionIFvRKNS2_18NATDetectionResultEEEEE3$_0EC1B8ne200100Ev
FNA:3,0,_ZNSt3__19allocatorIZN3p2p3nat15detect_nat_typeERN5boost4asio10io_contextERKNS_12basic_stringIcNS_11char_traitsIcEENS0_IcEEEEtNS_8functionIFvRKNS2_18NATDetectionResultEEEEE3$_0EC2B8ne200100Ev
FNA:3,3352,_ZNSt3__19allocatorIcEC1B8ne200100Ev
FNA:3,3352,_ZNSt3__19allocatorIcEC2B8ne200100Ev
FNA:3,256,_ZNSt3__19allocatorIhEC1B8ne200100Ev
FNA:3,256,_ZNSt3__19allocatorIhEC2B8ne200100Ev
FNA:3,18,_ZNSt3__19allocatorImEC1B8ne200100Ev
FNA:3,18,_ZNSt3__19allocatorImEC2B8ne200100Ev
FNA:3,1,_ZNSt3__19allocatorItEC1B8ne200100Ev
FNA:3,1,_ZNSt3__19allocatorItEC2B8ne200100Ev
FNL:4,96,96
FNA:4,62,_ZNSt3__19allocatorIN5boost4asio17execution_context14allocator_implINS0_IvEEEEEC1B8ne200100IvEERKNS0_IT_EE
FNA:4,62,_ZNSt3__19allocatorIN5boost4asio17execution_context14allocator_implINS0_IvEEEEEC2B8ne200100IvEERKNS0_IT_EE
FNA:4,0,_ZNSt3__19allocatorIN5boost4asio6detail12posix_thread4funcINS3_9scheduler15thread_functionENS0_IvEEEEEC1B8ne200100IvEERKNS0_IT_EE
FNA:4,0,_ZNSt3__19allocatorIN5boost4asio6detail12posix_thread4funcINS3_9scheduler15thread_functionENS0_IvEEEEEC2B8ne200100IvEERKNS0_IT_EE
FNA:4,0,_ZNSt3__19allocatorIN5boost4asio6detail12thread_groupINS0_IvEEE4itemEEC1B8ne200100IvEERKNS0_IT_EE
FNA:4,0,_ZNSt3__19allocatorIN5boost4asio6detail12thread_groupINS0_IvEEE4itemEEC2B8ne200100IvEERKNS0_IT_EE
FNA:4,1,_ZNSt3__19allocatorINS_10__function6__funcIZN33UDPTransportTest_LargePacket_Test8TestBodyEvE3$_0NS0_IS4_EEFvRKNS_6vectorIhNS0_IhEEEERKN5boost4asio2ip14basic_endpointINSD_3udpEEEEEEEC1B8ne200100IS4_EERKNS0_IT_EE
FNA:4,1,_ZNSt3__19allocatorINS_10__function6__funcIZN33UDPTransportTest_LargePacket_Test8TestBodyEvE3$_0NS0_IS4_EEFvRKNS_6vectorIhNS0_IhEEEERKN5boost4asio2ip14basic_endpointINSD_3udpEEEEEEEC2B8ne200100IS4_EERKNS0_IT_EE
FNA:4,1,_ZNSt3__19allocatorINS_10__function6__funcIZN33UDPTransportTest_LargePacket_Test8TestBodyEvE3$_1NS0_IS4_EEFvRKNS_10error_codeEEEEEC1B8ne200100IS4_EERKNS0_IT_EE
FNA:4,1,_ZNSt3__19allocatorINS_10__function6__funcIZN33UDPTransportTest_LargePacket_Test8TestBodyEvE3$_1NS0_IS4_EEFvRKNS_10error_codeEEEEEC2B8ne200100IS4_EERKNS0_IT_EE
FNA:4,4,_ZNSt3__19allocatorINS_10__function6__funcIZN33UDPTransportTest_SendReceive_Test8TestBodyEvE3$_0NS0_IS4_EEFvRKNS_6vectorIhNS0_IhEEEERKN5boost4asio2ip14basic_endpointINSD_3udpEEEEEEEC1B8ne200100IS4_EERKNS0_IT_EE
FNA:4,4,_ZNSt3__19allocatorINS_10__function6__funcIZN33UDPTransportTest_SendReceive_Test8TestBodyEvE3$_0NS0_IS4_EEFvRKNS_6vectorIhNS0_IhEEEERKN5boost4asio2ip14basic_endpointINSD_3udpEEEEEEEC2B8ne200100IS4_EERKNS0_IT_EE
FNA:4,1,_ZNSt3__19allocatorINS_10__function6__funcIZN33UDPTransportTest_SendReceive_Test8TestBodyEvE3$_1NS0_IS4_EEFvRKNS_10error_codeEEEEEC1B8ne200100IS4_EERKNS0_IT_EE
FNA:4,1,_ZNSt3__19allocatorINS_10__function6__funcIZN33UDPTransportTest_SendReceive_Test8TestBodyEvE3$_1NS0_IS4_EEFvRKNS_10error_codeEEEEEC2B8ne200100IS4_EERKNS0_IT_EE
FNA:4,1,_ZNSt3__19allocatorINS_10__function6__funcIZN34UDPTransportTest_SendWithPeer_Test8TestBodyEvE3$_0NS0_IS4_EEFvRKNS_6vectorIhNS0_IhEEEERKN5boost4asio2ip14basic_endpointINSD_3udpEEEEEEEC1B8ne200100IS4_EERKNS0_IT_EE
FNA:4,1,_ZNSt3__19allocatorINS_10__function6__funcIZN34UDPTransportTest_SendWithPeer_Test8TestBodyEvE3$_0NS0_IS4_EEFvRKNS_6vectorIhNS0_IhEEEERKN5boost4asio2ip14basic_endpointINSD_3udpEEEEEEEC2B8ne200100IS4_EERKNS0_IT_EE
FNA:4,1,_ZNSt3__19allocatorINS_10__function6__funcIZN34UDPTransportTest_SendWithPeer_Test8TestBodyEvE3$_1NS0_IS4_EEFvRKNS_10error_codeEEEEEC1B8ne200100IS4_EERKNS0_IT_EE
FNA:4,1,_ZNSt3__19allocatorINS_10__function6__funcIZN34UDPTransportTest_SendWithPeer_Test8TestBodyEvE3$_1NS0_IS4_EEFvRKNS_10error_codeEEEEEC2B8ne200100IS4_EERKNS0_IT_EE
FNA:4,1,_ZNSt3__19allocatorINS_10__function6__funcIZN35UDPTransportTest_SendAfterStop_Test8TestBodyEvE3$_0NS0_IS4_EEFvRKNS_10error_codeEEEEEC1B8ne200100IS4_EERKNS0_IT_EE
FNA:4,1,_ZNSt3__19allocatorINS_10__function6__funcIZN35UDPTransportTest_SendAfterStop_Test8TestBodyEvE3$_0NS0_IS4_EEFvRKNS_10error_codeEEEEEC2B8ne200100IS4_EERKNS0_IT_EE
FNA:4,1,_ZNSt3__19allocatorINS_10__function6__funcIZN37UDPTransportTest_SendWithoutPeer_Test8TestBodyEvE3$_0NS0_IS4_EEFvRKNS_10error_codeEEEEEC1B8ne200100IS4_EERKNS0_IT_EE
FNA:4,1,_ZNSt3__19allocatorINS_10__function6__funcIZN37UDPTransportTest_SendWithoutPeer_Test8TestBodyEvE3$_0NS0_IS4_EEFvRKNS_10error_codeEEEEEC2B8ne200100IS4_EERKNS0_IT_EE
FNA:4,1,_ZNSt3__19allocatorINS_10__function6__funcIZN38UDPTransportTest_MultipleMessages_Test8TestBodyEvE3$_0NS0_IS4_EEFvRKNS_6vectorIhNS0_IhEEEERKN5boost4asio2ip14basic_endpointINSD_3udpEEEEEEEC1B8ne200100IS4_EERKNS0_IT_EE
FNA:4,1,_ZNSt3__19allocatorINS_10__function6__funcIZN38UDPTransportTest_MultipleMessages_Test8TestBodyEvE3$_0NS0_IS4_EEFvRKNS_6vectorIhNS0_IhEEEERKN5boost4asio2ip14basic_endpointINSD_3udpEEEEEEEC2B8ne200100IS4_EERKNS0_IT_EE
FNA:4,10,_ZNSt3__19allocatorINS_10__function6__funcIZN38UDPTransportTest_MultipleMessages_Test8TestBodyEvE3$_1NS0_IS4_EEFvRKNS_10error_codeEEEEEC1B8ne200100IS4_EERKNS0_IT_EE
FNA:4,10,_ZNSt3__19allocatorINS_10__function6__funcIZN38UDPTransportTest_MultipleMessages_Test8TestBodyEvE3$_1NS0_IS4_EEFvRKNS_10error_codeEEEEEC2B8ne200100IS4_EERKNS0_IT_EE
FNA:4,0,_ZNSt3__19allocatorINS_10__function6__funcIZN3p2p3nat15detect_nat_typeERN5boost4asio10io_contextERKNS_12basic_stringIcNS_11char_traitsIcEENS0_IcEEEEtNS_8functionIFvRKNS4_18NATDetectionResultEEEEE3$_0NS0_ISM_EEFvNS_8optionalISD_EENSO_ItEEEEEEC1B8ne200100ISM_EERKNS0_IT_EE
FNA:4,0,_ZNSt3__19allocatorINS_10__function6__funcIZN3p2p3nat15detect_nat_typeERN5boost4asio10io_contextERKNS_12basic_stringIcNS_11char_traitsIcEENS0_IcEEEEtNS_8functionIFvRKNS4_18NATDetectionResultEEEEE3$_0NS0_ISM_EEFvNS_8optionalISD_EENSO_ItEEEEEEC2B8ne200100ISM_EERKNS0_IT_EE
FNA:4,0,_ZNSt3__19allocatorINS_20__shared_ptr_emplaceIN3p2p3nat10STUNClientENS0_IS4_EEEEEC1B8ne200100IS4_EERKNS0_IT_EE
FNA:4,0,_ZNSt3__19allocatorINS_20__shared_ptr_emplaceIN3p2p3nat10STUNClientENS0_IS4_EEEEEC2B8ne200100IS4_EERKNS0_IT_EE
FNA:4,68,_ZNSt3__19allocatorINS_20__shared_ptr_emplaceIN3p2p5relay14TurnAllocationENS0_IS4_EEEEEC1B8ne200100IS4_EERKNS0_IT_EE
FNA:4,68,_ZNSt3__19allocatorINS_20__shared_ptr_emplaceIN3p2p5relay14TurnAllocationENS0_IS4_EEEEEC2B8ne200100IS4_EERKNS0_IT_EE
FNA:4,28,_ZNSt3__19allocatorINS_20__shared_ptr_emplaceIN3p2p9transport12UDPTransportENS0_IS4_EEEEEC1B8ne200100IS4_EERKNS0_IT_EE
FNA:4,28,_ZNSt3__19allocatorINS_20__shared_ptr_emplaceIN3p2p9transport12UDPTransportENS0_IS4_EEEEEC2B8ne200100IS4_EERKNS0_IT_EE
FNA:4,14,_ZNSt3__19allocatorINS_20__shared_ptr_emplaceIN5boost4asio19basic_stream_socketINS3_2ip3tcpENS3_15any_io_executorEEENS0_IS8_EEEEEC1B8ne200100IS8_EERKNS0_IT_EE
FNA:4,14,_ZNSt3__19allocatorINS_20__shared_ptr_emplaceIN5boost4asio19basic_stream_socketINS3_2ip3tcpENS3_15any_io_executorEEENS0_IS8_EEEEEC2B8ne200100IS8_EERKNS0_IT_EE
FNA:4,0,_ZNSt3__19allocatorINS_20__shared_ptr_emplaceIN5boost4asio21basic_datagram_socketINS3_2ip3udpENS3_15any_io_executorEEENS0_IS8_EEEEEC1B8ne200100IS8_EERKNS0_IT_EE
FNA:4,0,_ZNSt3__19allocatorINS_20__shared_ptr_emplaceIN5boost4asio21basic_datagram_socketINS3_2ip3udpENS3_15any_io_executorEEENS0_IS8_EEEEEC2B8ne200100IS8_EERKNS0_IT_EE
FNA:4,0,_ZNSt3__19allocatorINS_20__shared_ptr_emplaceIN5boost4asio2ip14basic_endpointINS4_3udpEEENS0_IS7_EEEEEC1B8ne200100IS7_EERKNS0_IT_EE
FNA:4,0,_ZNSt3__19allocatorINS_20__shared_ptr_emplaceIN5boost4asio2ip14basic_endpointINS4_3udpEEENS0_IS7_EEEEEC2B8ne200100IS7_EERKNS0_IT_EE
FNA:4,0,_ZNSt3__19allocatorINS_20__shared_ptr_emplaceIN5boost4asio2ip14basic_resolverINS4_3udpENS3_15any_io_executorEEENS0_IS8_EEEEEC1B8ne200100IS8_EERKNS0_IT_EE
FNA:4,0,_ZNSt3__19allocatorINS_20__shared_ptr_emplaceIN5boost4asio2ip14basic_resolverINS4_3udpENS3_15any_io_executorEEENS0_IS8_EEEEEC2B8ne200100IS8_EERKNS0_IT_EE
FNA:4,38,_ZNSt3__19allocatorINS_20__shared_ptr_emplaceIN8nlohmann16json_abi_v3_12_06detail21output_string_adapterIcNS_12basic_stringIcNS_11char_traitsIcEENS0_IcEEEEEENS0_ISB_EEEEEC1B8ne200100ISB_EERKNS0_IT_EE
FNA:4,38,_ZNSt3__19allocatorINS_20__shared_ptr_emplaceIN8nlohmann16json_abi_v3_12_06detail21output_string_adapterIcNS_12basic_stringIcNS_11char_traitsIcEENS0_IcEEEEEENS0_ISB_EEEEEC2B8ne200100ISB_EERKNS0_IT_EE
FNA:4,26,_ZNSt3__19allocatorINS_20__shared_ptr_emplaceINS_6vectorIhNS0_IhEEEENS0_IS4_EEEEEC1B8ne200100IS4_EERKNS0_IT_EE
FNA:4,26,_ZNSt3__19allocatorINS_20__shared_ptr_emplaceINS_6vectorIhNS0_IhEEEENS0_IS4_EEEEEC2B8ne200100IS4_EERKNS0_IT_EE
FNA:4,0,_ZNSt3__19allocatorINS_20__shared_ptr_pointerIPNS_6vectorIN5boost4asio2ip20basic_resolver_entryINS5_3udpEEENS0_IS8_EEEENS_10shared_ptrISA_E27__shared_ptr_default_deleteISA_SA_EENS0_ISA_EEEEEC1B8ne200100ISA_EERKNS0_IT_EE
FNA:4,0,_ZNSt3__19allocatorINS_20__shared_ptr_pointerIPNS_6vectorIN5boost4asio2ip20basic_resolver_entryINS5_3udpEEENS0_IS8_EEEENS_10shared_ptrISA_E27__shared_ptr_default_deleteISA_SA_EENS0_ISA_EEEEEC2B8ne200100ISA_EERKNS0_IT_EE
FNA:4,0,_ZNSt3__19allocatorINS_20__shared_ptr_pointerIPvN5boost4asio6detail10socket_ops12noop_deleterENS0_IvEEEEEC1B8ne200100IvEERKNS0_IT_EE
FNA:4,0,_ZNSt3__19allocatorINS_20__shared_ptr_pointerIPvN5boost4asio6detail10socket_ops12noop_deleterENS0_IvEEEEEC2B8ne200100IvEERKNS0_IT_EE
FNA:4,1,_ZNSt3__19allocatorIZN33UDPTransportTest_LargePacket_Test8TestBodyEvE3$_0EC1B8ne200100INS_10__function6__funcIS2_S3_FvRKNS_6vectorIhNS0_IhEEEERKN5boost4asio2ip14basic_endpointINSE_3udpEEEEEEEERKNS0_IT_EE
FNA:4,1,_ZNSt3__19allocatorIZN33UDPTransportTest_LargePacket_Test8TestBodyEvE3$_0EC2B8ne200100INS_10__function6__funcIS2_S3_FvRKNS_6vectorIhNS0_IhEEEERKN5boost4asio2ip14basic_endpointINSE_3udpEEEEEEEERKNS0_IT_EE
FNA:4,1,_ZNSt3__19allocatorIZN33UDPTransportTest_LargePacket_Test8TestBodyEvE3$_1EC1B8ne200100INS_10__function6__funcIS2_S3_FvRKNS_10error_codeEEEEEERKNS0_IT_EE
FNA:4,1,_ZNSt3__19allocatorIZN33UDPTransportTest_LargePacket_Test8TestBodyEvE3$_1EC2B8ne200100INS_10__function6__funcIS2_S3_FvRKNS_10error_codeEEEEEERKNS0_IT_EE
FNA:4,1,_ZNSt3__19allocatorIZN33UDPTransportTest_SendReceive_Test8TestBodyEvE3$_0EC1B8ne200100INS_10__function6__funcIS2_S3_FvRKNS_6vectorIhNS0_IhEEEERKN5boost4asio2ip14basic_endpointINSE_3udpEEEEEEEERKNS0_IT_EE
FNA:4,1,_ZNSt3__19allocatorIZN33UDPTransportTest_SendReceive_Test8TestBodyEvE3$_0EC2B8ne200100INS_10__function6__funcIS2_S3_FvRKNS_6vectorIhNS0_IhEEEERKN5boost4asio2ip14basic_endpointINSE_3udpEEEEEEEERKNS0_IT_EE
FNA:4,1,_ZNSt3__19allocatorIZN33UDPTransportTest_SendReceive_Test8TestBodyEvE3$_1EC1B8ne200100INS_10__function6__funcIS2_S3_FvRKNS_10error_codeEEEEEERKNS0_IT_EE
FNA:4,1,_ZNSt3__19allocatorIZN33UDPTransportTest_SendReceive_Test8TestBodyEvE3$_1EC2B8ne200100INS_10__function6__funcIS2_S3_FvRKNS_10error_codeEEEEEERKNS0_IT_EE
FNA:4,1,_ZNSt3__19allocatorIZN34UDPTransportTest_SendWithPeer_Test8TestBodyEvE3$_0EC1B8ne200100INS_10__function6__funcIS2_S3_FvRKNS_6vectorIhNS0_IhEEEERKN5boost4asio2ip14basic_endpointINSE_3udpEEEEEEEERKNS0_IT_EE
FNA:4,1,_ZNSt3__19allocatorIZN34UDPTransportTest_SendWithPeer_Test8TestBodyEvE3$_0EC2B8ne200100INS_10__function6__funcIS2_S3_FvRKNS_6vectorIhNS0_IhEEEERKN5boost4asio2ip14basic_endpointINSE_3udpEEEEEEEERKNS0_IT_EE
FNA:4,1,_ZNSt3__19allocatorIZN34UDPTransportTest_SendWithPeer_Test8TestBodyEvE3$_1EC1B8ne200100INS_10__function6__funcIS2_S3_FvRKNS_10error_codeEEEEEERKNS0_IT_EE
FNA:4,1,_ZNSt3__19allocatorIZN34UDPTransportTest_SendWithPeer_Test8TestBodyEvE3$_1EC2B8ne200100INS_10__function6__funcIS2_S3_FvRKNS_10error_codeEEEEEERKNS0_IT_EE
FNA:4,1,_ZNSt3__19allocatorIZN35UDPTransportTest_SendAfterStop_Test8TestBodyEvE3$_0EC1B8ne200100INS_10__function6__funcIS2_S3_FvRKNS_10error_codeEEEEEERKNS0_IT_EE
FNA:4,1,_ZNSt3__19allocatorIZN35UDPTransportTest_SendAfterStop_Test8TestBodyEvE3$_0EC2B8ne200100INS_10__function6__funcIS2_S3_FvRKNS_10error_codeEEEEEERKNS0_IT_EE
FNA:4,1,_ZNSt3__19allocatorIZN37UDPTransportTest_SendWithoutPeer_Test8TestBodyEvE3$_0EC1B8ne200100INS_10__function6__funcIS2_S3_FvRKNS_10error_codeEEEEEERKNS0_IT_EE
FNA:4,1,_ZNSt3__19allocatorIZN37UDPTransportTest_SendWithoutPeer_Test8TestBodyEvE3$_0EC2B8ne200100INS_10__function6__funcIS2_S3_FvRKNS_10error_codeEEEEEERKNS0_IT_EE
FNA:4,1,_ZNSt3__19allocatorIZN38UDPTransportTest_MultipleMessages_Test8TestBodyEvE3$_0EC1B8ne200100INS_10__function6__funcIS2_S3_FvRKNS_6vectorIhNS0_IhEEEERKN5boost4asio2ip14basic_endpointINSE_3udpEEEEEEEERKNS0_IT_EE
FNA:4,1,_ZNSt3__19allocatorIZN38UDPTransportTest_MultipleMessages_Test8TestBodyEvE3$_0EC2B8ne200100INS_10__function6__funcIS2_S3_FvRKNS_6vectorIhNS0_IhEEEERKN5boost4asio2ip14basic_endpointINSE_3udpEEEEEEEERKNS0_IT_EE
FNA:4,10,_ZNSt3__19allocatorIZN38UDPTransportTest_MultipleMessages_Test8TestBodyEvE3$_1EC1B8ne200100INS_10__function6__funcIS2_S3_FvRKNS_10error_codeEEEEEERKNS0_IT_EE
FNA:4,10,_ZNSt3__19allocatorIZN38UDPTransportTest_MultipleMessages_Test8TestBodyEvE3$_1EC2B8ne200100INS_10__function6__funcIS2_S3_FvRKNS_10error_codeEEEEEERKNS0_IT_EE
FNA:4,0,_ZNSt3__19allocatorIZN3p2p3nat15detect_nat_typeERN5boost4asio10io_contextERKNS_12basic_stringIcNS_11char_traitsIcEENS0_IcEEEEtNS_8functionIFvRKNS2_18NATDetectionResultEEEEE3$_0EC1B8ne200100INS_10__function6__funcISK_SL_FvNS_8optionalISB_EENSP_ItEEEEEEERKNS0_IT_EE
FNA:4,0,_ZNSt3__19allocatorIZN3p2p3nat15detect_nat_typeERN5boost4asio10io_contextERKNS_12basic_stringIcNS_11char_traitsIcEENS0_IcEEEEtNS_8functionIFvRKNS2_18NATDetectionResultEEEEE3$_0EC2B8ne200100INS_10__function6__funcISK_SL_FvNS_8optionalISB_EENSP_ItEEEEEEERKNS0_IT_EE
FNA:4,17,_ZNSt3__19allocatorIbEC1B8ne200100ImEERKNS0_IT_EE
FNA:4,17,_ZNSt3__19allocatorIbEC2B8ne200100ImEERKNS0_IT_EE
FNA:4,346,_ZNSt3__19allocatorIhEC1B8ne200100IvEERKNS0_IT_EE
FNA:4,346,_ZNSt3__19allocatorIhEC2B8ne200100IvEERKNS0_IT_EE
FNA:4,17,_ZNSt3__19allocatorImEC1B8ne200100IbEERKNS0_IT_EE
FNA:4,17,_ZNSt3__19allocatorImEC2B8ne200100IbEERKNS0_IT_EE
FNL:5,98,105
FNA:5,3,_ZNSt3__19allocatorIN3p2p5relay13StunAttributeEE8allocateB8ne200100Em
FNA:5,1,_ZNSt3__19allocatorIN3p2p5relay7AddressEE8allocateB8ne200100Em
FNA:5,37,_ZNSt3__19allocatorIN3p2p8protocol13StunAttributeEE8allocateB8ne200100Em
FNA:5,31,_ZNSt3__19allocatorIN5boost4asio17execution_context14allocator_implINS0_IvEEEEE8allocateB8ne200100Em
FNA:5,0,_ZNSt3__19allocatorIN5boost4asio2ip20basic_resolver_entryINS3_3udpEEEE8allocateB8ne200100Em
FNA:5,0,_ZNSt3__19allocatorIN5boost4asio6detail12posix_thread4funcINS3_9scheduler15thread_functionENS0_IvEEEEE8allocateB8ne200100Em
FNA:5,36,_ZNSt3__19allocatorIN8nlohmann16json_abi_v3_12_010basic_jsonINS_3mapENS_6vectorENS_12basic_stringIcNS_11char_traitsIcEENS0_IcEEEEbxydS0_NS2_14adl_serializerENS5_IhNS0_IhEEEEvEEE8allocateB8ne200100Em
FNA:5,0,_ZNSt3__19allocatorIN8nlohmann16json_abi_v3_12_027byte_container_with_subtypeINS_6vectorIhNS0_IhEEEEEEE8allocateB8ne200100Em
FNA:5,0,_ZNSt3__19allocatorINS_10__function6__funcIZN33UDPTransportTest_LargePacket_Test8TestBodyEvE3$_0NS0_IS4_EEFvRKNS_6vectorIhNS0_IhEEEERKN5boost4asio2ip14basic_endpointINSD_3udpEEEEEEE8allocateB8ne200100Em
FNA:5,0,_ZNSt3__19allocatorINS_10__function6__funcIZN33UDPTransportTest_LargePacket_Test8TestBodyEvE3$_1NS0_IS4_EEFvRKNS_10error_codeEEEEE8allocateB8ne200100Em
FNA:5,2,_ZNSt3__19allocatorINS_10__function6__funcIZN33UDPTransportTest_SendReceive_Test8TestBodyEvE3$_0NS0_IS4_EEFvRKNS_6vectorIhNS0_IhEEEERKN5boost4asio2ip14basic_endpointINSD_3udpEEEEEEE8allocateB8ne200100Em
FNA:5,0,_ZNSt3__19allocatorINS_10__function6__funcIZN33UDPTransportTest_SendReceive_Test8TestBodyEvE3$_1NS0_IS4_EEFvRKNS_10error_codeEEEEE8allocateB8ne200100Em
FNA:5,0,_ZNSt3__19allocatorINS_10__function6__funcIZN34UDPTransportTest_SendWithPeer_Test8TestBodyEvE3$_0NS0_IS4_EEFvRKNS_6vectorIhNS0_IhEEEERKN5boost4asio2ip14basic_endpointINSD_3udpEEEEEEE8allocateB8ne200100Em
FNA:5,0,_ZNSt3__19allocatorINS_10__function6__funcIZN34UDPTransportTest_SendWithPeer_Test8TestBodyEvE3$_1NS0_IS4_EEFvRKNS_10error_codeEEEEE8allocateB8ne200100Em
FNA:5,0,_ZNSt3__19allocatorINS_10__function6__funcIZN35UDPTransportTest_SendAfterStop_Test8TestBodyEvE3$_0NS0_IS4_EEFvRKNS_10error_codeEEEEE8allocateB8ne200100Em
FNA:5,0,_ZNSt3__19allocatorINS_10__function6__funcIZN37UDPTransportTest_SendWithoutPeer_Test8TestBodyEvE3$_0NS0_IS4_EEFvRKNS_10error_codeEEEEE8allocateB8ne200100Em
FNA:5,0,_ZNSt3__19allocatorINS_10__function6__funcIZN38UDPTransportTest_MultipleMessages_Test8TestBodyEvE3$_0NS0_IS4_EEFvRKNS_6vectorIhNS0_IhEEEERKN5boost4asio2ip14basic_endpointINSD_3udpEEEEEEE8allocateB8ne200100Em
FNA:5,0,_ZNSt3__19allocatorINS_10__function6__funcIZN38UDPTransportTest_MultipleMessages_Test8TestBodyEvE3$_1NS0_IS4_EEFvRKNS_10error_codeEEEEE8allocateB8ne200100Em
FNA:5,0,_ZNSt3__19allocatorINS_10__function6__funcIZN3p2p3nat15detect_nat_typeERN5boost4asio10io_contextERKNS_12basic_stringIcNS_11char_traitsIcEENS0_IcEEEEtNS_8functionIFvRKNS4_18NATDetectionResultEEEEE3$_0NS0_ISM_EEFvNS_8optionalISD_EENSO_ItEEEEEE8allocateB8ne200100Em
FNA:5,1,_ZNSt3__19allocatorINS_10shared_ptrIN3p2p5relay14TurnAllocationEEEE8allocateB8ne200100Em
FNA:5,20,_ZNSt3__19allocatorINS_10unique_ptrIN3p2p7testing10TestClientENS_14default_deleteIS4_EEEEE8allocateB8ne200100Em
FNA:5,1,_ZNSt3__19allocatorINS_11__hash_nodeINS_12basic_stringIcNS_11char_traitsIcEENS0_IcEEEEPvEEE8allocateB8ne200100Em
FNA:5,13,_ZNSt3__19allocatorINS_11__hash_nodeINS_17__hash_value_typeINS_12basic_stringIcNS_11char_traitsIcEENS0_IcEEEEN3p2p5relay14BandwidthStatsEEEPvEEE8allocateB8ne200100Em
FNA:5,13,_ZNSt3__19allocatorINS_11__hash_nodeINS_17__hash_value_typeINS_12basic_stringIcNS_11char_traitsIcEENS0_IcEEEEN3p2p5relay16BandwidthLimiter18AllocationLimitersEEEPvEEE8allocateB8ne200100Em
FNA:5,34,_ZNSt3__19allocatorINS_11__hash_nodeINS_17__hash_value_typeINS_12basic_stringIcNS_11char_traitsIcEENS0_IcEEEENS_10shared_ptrIN3p2p5relay14TurnAllocationEEEEEPvEEE8allocateB8ne200100Em
FNA:5,68,_ZNSt3__19allocatorINS_11__hash_nodeINS_17__hash_value_typeINS_12basic_stringIcNS_11char_traitsIcEENS0_IcEEEES7_EEPvEEE8allocateB8ne200100Em
FNA:5,180,_ZNSt3__19allocatorINS_11__tree_nodeINS_12__value_typeIN3p2p9detection12DeviceVendorENS4_13DeviceProfileEEEPvEEE8allocateB8ne200100Em
FNA:5,266,_ZNSt3__19allocatorINS_11__tree_nodeINS_12__value_typeINS_12basic_stringIcNS_11char_traitsIcEENS0_IcEEEEN8nlohmann16json_abi_v3_12_010basic_jsonINS_3mapENS_6vectorES7_bxydS0_NS9_14adl_serializerENSC_IhNS0_IhEEEEvEEEEPvEEE8allocateB8ne200100Em
FNA:5,36,_ZNSt3__19allocatorINS_11__tree_nodeINS_12__value_typeINS_12basic_stringIcNS_11char_traitsIcEENS0_IcEEEES7_EEPvEEE8allocateB8ne200100Em
FNA:5,179,_ZNSt3__19allocatorINS_12basic_stringIcNS_11char_traitsIcEENS0_IcEEEEE8allocateB8ne200100Em
FNA:5,0,_ZNSt3__19allocatorINS_20__shared_ptr_emplaceIN3p2p3nat10STUNClientENS0_IS4_EEEEE8allocateB8ne200100Em
FNA:5,34,_ZNSt3__19allocatorINS_20__shared_ptr_emplaceIN3p2p5relay14TurnAllocationENS0_IS4_EEEEE8allocateB8ne200100Em
FNA:5,14,_ZNSt3__19allocatorINS_20__shared_ptr_emplaceIN3p2p9transport12UDPTransportENS0_IS4_EEEEE8allocateB8ne200100Em
FNA:5,7,_ZNSt3__19allocatorINS_20__shared_ptr_emplaceIN5boost4asio19basic_stream_socketINS3_2ip3tcpENS3_15any_io_executorEEENS0_IS8_EEEEE8allocateB8ne200100Em
FNA:5,0,_ZNSt3__19allocatorINS_20__shared_ptr_emplaceIN5boost4asio21basic_datagram_socketINS3_2ip3udpENS3_15any_io_executorEEENS0_IS8_EEEEE8allocateB8ne200100Em
FNA:5,0,_ZNSt3__19allocatorINS_20__shared_ptr_emplaceIN5boost4asio2ip14basic_endpointINS4_3udpEEENS0_IS7_EEEEE8allocateB8ne200100Em
FNA:5,0,_ZNSt3__19allocatorINS_20__shared_ptr_emplaceIN5boost4asio2ip14basic_resolverINS4_3udpENS3_15any_io_executorEEENS0_IS8_EEEEE8allocateB8ne200100Em
FNA:5,19,_ZNSt3__19allocatorINS_20__shared_ptr_emplaceIN8nlohmann16json_abi_v3_12_06detail21output_string_adapterIcNS_12basic_stringIcNS_11char_traitsIcEENS0_IcEEEEEENS0_ISB_EEEEE8allocateB8ne200100Em
FNA:5,13,_ZNSt3__19allocatorINS_20__shared_ptr_emplaceINS_6vectorIhNS0_IhEEEENS0_IS4_EEEEE8allocateB8ne200100Em
FNA:5,51,_ZNSt3__19allocatorINS_3mapINS_12basic_stringIcNS_11char_traitsIcEENS0_IcEEEEN8nlohmann16json_abi_v3_12_010basic_jsonIS1_NS_6vectorES6_bxydS0_NS8_14adl_serializerENSA_IhNS0_IhEEEEvEENS_4lessIvEENS0_INS_4pairIKS6_SE_EEEEEEE8allocateB8ne200100Em
FNA:5,28,_ZNSt3__19allocatorINS_4pairIN3p2p9detection12DeviceVendorEdEEE8allocateB8ne200100Em
FNA:5,5,_ZNSt3__19allocatorINS_4pairINS_6chrono10time_pointINS2_12steady_clockENS2_8durationIxNS_5ratioILl1ELl1000000000EEEEEEEmEEE8allocateB8ne200100Em
FNA:5,5,_ZNSt3__19allocatorINS_5arrayIhLm12EEEE8allocateB8ne200100Em
FNA:5,37,_ZNSt3__19allocatorINS_6threadEE8allocateB8ne200100Em
FNA:5,0,_ZNSt3__19allocatorINS_6vectorIN8nlohmann16json_abi_v3_12_010basic_jsonINS_3mapES1_NS_12basic_stringIcNS_11char_traitsIcEENS0_IcEEEEbxydS0_NS3_14adl_serializerENS1_IhNS0_IhEEEEvEENS0_ISE_EEEEE8allocateB8ne200100Em
FNA:5,25,_ZNSt3__19allocatorIPN8nlohmann16json_abi_v3_12_010basic_jsonINS_3mapENS_6vectorENS_12basic_stringIcNS_11char_traitsIcEENS0_IcEEEEbxydS0_NS2_14adl_serializerENS5_IhNS0_IhEEEEvEEE8allocateB8ne200100Em
FNA:5,1,_ZNSt3__19allocatorIPNS_16__hash_node_baseIPNS_11__hash_nodeINS_12basic_stringIcNS_11char_traitsIcEENS0_IcEEEEPvEEEEE8allocateB8ne200100Em
FNA:5,9,_ZNSt3__19allocatorIPNS_16__hash_node_baseIPNS_11__hash_nodeINS_17__hash_value_typeINS_12basic_stringIcNS_11char_traitsIcEENS0_IcEEEEN3p2p5relay14BandwidthStatsEEEPvEEEEE8allocateB8ne200100Em
FNA:5,9,_ZNSt3__19allocatorIPNS_16__hash_node_baseIPNS_11__hash_nodeINS_17__hash_value_typeINS_12basic_stringIcNS_11char_traitsIcEENS0_IcEEEEN3p2p5relay16BandwidthLimiter18AllocationLimitersEEEPvEEEEE8allocateB8ne200100Em
FNA:5,22,_ZNSt3__19allocatorIPNS_16__hash_node_baseIPNS_11__hash_nodeINS_17__hash_value_typeINS_12basic_stringIcNS_11char_traitsIcEENS0_IcEEEENS_10shared_ptrIN3p2p5relay14TurnAllocationEEEEEPvEEEEE8allocateB8ne200100Em
FNA:5,44,_ZNSt3__19allocatorIPNS_16__hash_node_baseIPNS_11__hash_nodeINS_17__hash_value_typeINS_12basic_stringIcNS_11char_traitsIcEENS0_IcEEEES8_EEPvEEEEE8allocateB8ne200100Em
FNA:5,5,_ZNSt3__19allocatorIPNS_4pairINS_6chrono10time_pointINS2_12steady_clockENS2_8durationIxNS_5ratioILl1ELl1000000000EEEEEEEmEEE8allocateB8ne200100Em
FNA:5,156,_ZNSt3__19allocatorIcE8allocateB8ne200100Em
FNA:5,640,_ZNSt3__19allocatorIhE8allocateB8ne200100Em
FNA:5,17,_ZNSt3__19allocatorImE8allocateB8ne200100Em
FNA:5,4,_ZNSt3__19allocatorItE8allocateB8ne200100Em
FNF:6
FNH:5
DA:71,5307
DA:93,9300
DA:96,1314
DA:98,2066
DA:100,2066
DA:101,0
DA:105,2066
DA:116,2053
DA:120,2053
DA:122,2053
DA:162,0
DA:163,0
LF:12
LH:9
end_of_record
TN:
SF:/Library/Developer/CommandLineTools/SDKs/MacOSX.sdk/usr/include/c++/v1/__memory/allocator_destructor.h
FNL:0,34,34
FNA:0,0,_ZNSt3__122__allocator_destructorINS_9allocatorINS_10__function6__funcIZN33UDPTransportTest_LargePacket_Test8TestBodyEvE3$_0NS1_IS5_EEFvRKNS_6vectorIhNS1_IhEEEERKN5boost4asio2ip14basic_endpointINSE_3udpEEEEEEEEEC1B8ne200100ERSM_m
FNA:0,0,_ZNSt3__122__allocator_destructorINS_9allocatorINS_10__function6__funcIZN33UDPTransportTest_LargePacket_Test8TestBodyEvE3$_0NS1_IS5_EEFvRKNS_6vectorIhNS1_IhEEEERKN5boost4asio2ip14basic_endpointINSE_3udpEEEEEEEEEC2B8ne200100ERSM_m
FNA:0,0,_ZNSt3__122__allocator_destructorINS_9allocatorINS_10__function6__funcIZN33UDPTransportTest_LargePacket_Test8TestBodyEvE3$_1NS1_IS5_EEFvRKNS_10error_codeEEEEEEEC1B8ne200100ERSC_m
FNA:0,0,_ZNSt3__122__allocator_destructorINS_9allocatorINS_10__function6__funcIZN33UDPTransportTest_LargePacket_Test8TestBodyEvE3$_1NS1_IS5_EEFvRKNS_10error_codeEEEEEEEC2B8ne200100ERSC_m
FNA:0,2,_ZNSt3__122__allocator_destructorINS_9allocatorINS_10__function6__funcIZN33UDPTransportTest_SendReceive_Test8TestBodyEvE3$_0NS1_IS5_EEFvRKNS_6vectorIhNS1_IhEEEERKN5boost4asio2ip14basic_endpointINSE_3udpEEEEEEEEEC1B8ne200100ERSM_m
FNA:0,2,_ZNSt3__122__allocator_destructorINS_9allocatorINS_10__function6__funcIZN33UDPTransportTest_SendReceive_Test8TestBodyEvE3$_0NS1_IS5_EEFvRKNS_6vectorIhNS1_IhEEEERKN5boost4asio2ip14basic_endpointINSE_3udpEEEEEEEEEC2B8ne200100ERSM_m
FNA:0,0,_ZNSt3__122__allocator_destructorINS_9allocatorINS_10__function6__funcIZN33UDPTransportTest_SendReceive_Test8TestBodyEvE3$_1NS1_IS5_EEFvRKNS_10error_codeEEEEEEEC1B8ne200100ERSC_m
FNA:0,0,_ZNSt3__122__allocator_destructorINS_9allocatorINS_10__function6__funcIZN33UDPTransportTest_SendReceive_Test8TestBodyEvE3$_1NS1_IS5_EEFvRKNS_10error_codeEEEEEEEC2B8ne200100ERSC_m
FNA:0,0,_ZNSt3__122__allocator_destructorINS_9allocatorINS_10__function6__funcIZN34UDPTransportTest_SendWithPeer_Test8TestBodyEvE3$_0NS1_IS5_EEFvRKNS_6vectorIhNS1_IhEEEERKN5boost4asio2ip14basic_endpointINSE_3udpEEEEEEEEEC1B8ne200100ERSM_m
FNA:0,0,_ZNSt3__122__allocator_destructorINS_9allocatorINS_10__function6__funcIZN34UDPTransportTest_SendWithPeer_Test8TestBodyEvE3$_0NS1_IS5_EEFvRKNS_6vectorIhNS1_IhEEEERKN5boost4asio2ip14basic_endpointINSE_3udpEEEEEEEEEC2B8ne200100ERSM_m
FNA:0,0,_ZNSt3__122__allocator_destructorINS_9allocatorINS_10__function6__funcIZN34UDPTransportTest_SendWithPeer_Test8TestBodyEvE3$_1NS1_IS5_EEFvRKNS_10error_codeEEEEEEEC1B8ne200100ERSC_m
FNA:0,0,_ZNSt3__122__allocator_destructorINS_9allocatorINS_10__function6__funcIZN34UDPTransportTest_SendWithPeer_Test8TestBodyEvE3$_1NS1_IS5_EEFvRKNS_10error_codeEEEEEEEC2B8ne200100ERSC_m
FNA:0,0,_ZNSt3__122__allocator_destructorINS_9allocatorINS_10__function6__funcIZN35UDPTransportTest_SendAfterStop_Test8TestBodyEvE3$_0NS1_IS5_EEFvRKNS_10error_codeEEEEEEEC1B8ne200100ERSC_m
FNA:0,0,_ZNSt3__122__allocator_destructorINS_9allocatorINS_10__function6__funcIZN35UDPTransportTest_SendAfterStop_Test8TestBodyEvE3$_0NS1_IS5_EEFvRKNS_10error_codeEEEEEEEC2B8ne200100ERSC_m
FNA:0,0,_ZNSt3__122__allocator_destructorINS_9allocatorINS_10__function6__funcIZN37UDPTransportTest_SendWithoutPeer_Test8TestBodyEvE3$_0NS1_IS5_EEFvRKNS_10error_codeEEEEEEEC1B8ne200100ERSC_m
FNA:0,0,_ZNSt3__122__allocator_destructorINS_9allocatorINS_10__function6__funcIZN37UDPTransportTest_SendWithoutPeer_Test8TestBodyEvE3$_0NS1_IS5_EEFvRKNS_10error_codeEEEEEEEC2B8ne200100ERSC_m
FNA:0,0,_ZNSt3__122__allocator_destructorINS_9allocatorINS_10__function6__funcIZN38UDPTransportTest_MultipleMessages_Test8TestBodyEvE3$_0NS1_IS5_EEFvRKNS_6vectorIhNS1_IhEEEERKN5boost4asio2ip14basic_endpointINSE_3udpEEEEEEEEEC1B8ne200100ERSM_m
FNA:0,0,_ZNSt3__122__allocator_destructorINS_9allocatorINS_10__function6__funcIZN38UDPTransportTest_MultipleMessages_Test8TestBodyEvE3$_0NS1_IS5_EEFvRKNS_6vectorIhNS1_IhEEEERKN5boost4asio2ip14basic_endpointINSE_3udpEEEEEEEEEC2B8ne200100ERSM_m
FNA:0,0,_ZNSt3__122__allocator_destructorINS_9allocatorINS_10__function6__funcIZN38UDPTransportTest_MultipleMessages_Test8TestBodyEvE3$_1NS1_IS5_EEFvRKNS_10error_codeEEEEEEEC1B8ne200100ERSC_m
FNA:0,0,_ZNSt3__122__allocator_destructorINS_9allocatorINS_10__function6__funcIZN38UDPTransportTest_MultipleMessages_Test8TestBodyEvE3$_1NS1_IS5_EEFvRKNS_10error_codeEEEEEEEC2B8ne200100ERSC_m
FNA:0,0,_ZNSt3__122__allocator_destructorINS_9allocatorINS_10__function6__funcIZN3p2p3nat15detect_nat_typeERN5boost4asio10io_contextERKNS_12basic_stringIcNS_11char_traitsIcEENS1_IcEEEEtNS_8functionIFvRKNS5_18NATDetectionResultEEEEE3$_0NS1_ISN_EEFvNS_8optionalISE_EENSP_ItEEEEEEEEC1B8ne200100ERSU_m
FNA:0,0,_ZNSt3__122__allocator_destructorINS_9allocatorINS_10__function6__funcIZN3p2p3nat15detect_nat_typeERN5boost4asio10io_contextERKNS_12basic_stringIcNS_11char_traitsIcEENS1_IcEEEEtNS_8functionIFvRKNS5_18NATDetectionResultEEEEE3$_0NS1_ISN_EEFvNS_8optionalISE_EENSP_ItEEEEEEEEC2B8ne200100ERSU_m
FNA:0,5,_ZNSt3__122__allocator_destructorINS_9allocatorINS_4pairINS_6chrono10time_pointINS3_12steady_clockENS3_8durationIxNS_5ratioILl1ELl1000000000EEEEEEEmEEEEEC1B8ne200100ERSC_m
FNA:0,5,_ZNSt3__122__allocator_destructorINS_9allocatorINS_4pairINS_6chrono10time_pointINS3_12steady_clockENS3_8durationIxNS_5ratioILl1ELl1000000000EEEEEEEmEEEEEC2B8ne200100ERSC_m
FNL:1,35,35
FNA:1,0,_ZNSt3__122__allocator_destructorINS_9allocatorINS_10__function6__funcIZN33UDPTransportTest_LargePacket_Test8TestBodyEvE3$_0NS1_IS5_EEFvRKNS_6vectorIhNS1_IhEEEERKN5boost4asio2ip14basic_endpointINSE_3udpEEEEEEEEEclB8ne200100EPSL_
FNA:1,0,_ZNSt3__122__allocator_destructorINS_9allocatorINS_10__function6__funcIZN33UDPTransportTest_LargePacket_Test8TestBodyEvE3$_1NS1_IS5_EEFvRKNS_10error_codeEEEEEEEclB8ne200100EPSB_
FNA:1,0,_ZNSt3__122__allocator_destructorINS_9allocatorINS_10__function6__funcIZN33UDPTransportTest_SendReceive_Test8TestBodyEvE3$_0NS1_IS5_EEFvRKNS_6vectorIhNS1_IhEEEERKN5boost4asio2ip14basic_endpointINSE_3udpEEEEEEEEEclB8ne200100EPSL_
FNA:1,0,_ZNSt3__122__allocator_destructorINS_9allocatorINS_10__function6__funcIZN33UDPTransportTest_SendReceive_Test8TestBodyEvE3$_1NS1_IS5_EEFvRKNS_10error_codeEEEEEEEclB8ne200100EPSB_
FNA:1,0,_ZNSt3__122__allocator_destructorINS_9allocatorINS_10__function6__funcIZN34UDPTransportTest_SendWithPeer_Test8TestBodyEvE3$_0NS1_IS5_EEFvRKNS_6vectorIhNS1_IhEEEERKN5boost4asio2ip14basic_endpointINSE_3udpEEEEEEEEEclB8ne200100EPSL_
FNA:1,0,_ZNSt3__122__allocator_destructorINS_9allocatorINS_10__function6__funcIZN34UDPTransportTest_SendWithPeer_Test8TestBodyEvE3$_1NS1_IS5_EEFvRKNS_10error_codeEEEEEEEclB8ne200100EPSB_
FNA:1,0,_ZNSt3__122__allocator_destructorINS_9allocatorINS_10__function6__funcIZN35UDPTransportTest_SendAfterStop_Test8TestBodyEvE3$_0NS1_IS5_EEFvRKNS_10error_codeEEEEEEEclB8ne200100EPSB_
FNA:1,0,_ZNSt3__122__allocator_destructorINS_9allocatorINS_10__function6__funcIZN37UDPTransportTest_SendWithoutPeer_Test8TestBodyEvE3$_0NS1_IS5_EEFvRKNS_10error_codeEEEEEEEclB8ne200100EPSB_
FNA:1,0,_ZNSt3__122__allocator_destructorINS_9allocatorINS_10__function6__funcIZN38UDPTransportTest_MultipleMessages_Test8TestBodyEvE3$_0NS1_IS5_EEFvRKNS_6vectorIhNS1_IhEEEERKN5boost4asio2ip14basic_endpointINSE_3udpEEEEEEEEEclB8ne200100EPSL_
FNA:1,0,_ZNSt3__122__allocator_destructorINS_9allocatorINS_10__function6__funcIZN38UDPTransportTest_MultipleMessages_Test8TestBodyEvE3$_1NS1_IS5_EEFvRKNS_10error_codeEEEEEEEclB8ne200100EPSB_
FNA:1,0,_ZNSt3__122__allocator_destructorINS_9allocatorINS_10__function6__funcIZN3p2p3nat15detect_nat_typeERN5boost4asio10io_contextERKNS_12basic_stringIcNS_11char_traitsIcEENS1_IcEEEEtNS_8functionIFvRKNS5_18NATDetectionResultEEEEE3$_0NS1_ISN_EEFvNS_8optionalISE_EENSP_ItEEEEEEEEclB8ne200100EPST_
FNA:1,0,_ZNSt3__122__allocator_destructorINS_9allocatorINS_4pairINS_6chrono10time_pointINS3_12steady_clockENS3_8durationIxNS_5ratioILl1ELl1000000000EEEEEEEmEEEEEclB8ne200100EPSB_
FNF:2
FNH:1
DA:34,14
DA:35,0
LF:2
LH:1
end_of_record
TN:
SF:/Library/Developer/CommandLineTools/SDKs/MacOSX.sdk/usr/include/c++/v1/__memory/allocator_traits.h
FNL:0,269,270
FNA:0,0,_ZNSt3__116allocator_traitsIN5boost4asio17execution_context9allocatorINS2_14config_serviceEEEE8allocateB8ne200100ERS6_m
FNA:0,0,_ZNSt3__116allocator_traitsIN5boost4asio17execution_context9allocatorINS2_6detail12posix_thread4funcINS5_20resolver_thread_pool21work_scheduler_runnerENS4_IvEEEEEEE8allocateB8ne200100ERSC_m
FNA:0,0,_ZNSt3__116allocator_traitsIN5boost4asio17execution_context9allocatorINS2_6detail12thread_groupINS4_IvEEE4itemEEEE8allocateB8ne200100ERSA_m
FNA:0,32,_ZNSt3__116allocator_traitsIN5boost4asio17execution_context9allocatorINS2_6detail14kqueue_reactor16descriptor_stateEEEE8allocateB8ne200100ERS8_m
FNA:0,21,_ZNSt3__116allocator_traitsIN5boost4asio17execution_context9allocatorINS2_6detail14kqueue_reactorEEEE8allocateB8ne200100ERS7_m
FNA:0,0,_ZNSt3__116allocator_traitsIN5boost4asio17execution_context9allocatorINS2_6detail16resolver_serviceINS2_2ip3udpEEEEEE8allocateB8ne200100ERSA_m
FNA:0,31,_ZNSt3__116allocator_traitsIN5boost4asio17execution_context9allocatorINS2_6detail16service_registryEEEE8allocateB8ne200100ERS7_m
FNA:0,0,_ZNSt3__116allocator_traitsIN5boost4asio17execution_context9allocatorINS2_6detail20resolver_thread_poolEEEE8allocateB8ne200100ERS7_m
FNA:0,7,_ZNSt3__116allocator_traitsIN5boost4asio17execution_context9allocatorINS2_6detail23reactive_socket_serviceINS2_2ip3tcpEEEEEE8allocateB8ne200100ERSA_m
FNA:0,20,_ZNSt3__116allocator_traitsIN5boost4asio17execution_context9allocatorINS2_6detail23reactive_socket_serviceINS2_2ip3udpEEEEEE8allocateB8ne200100ERSA_m
FNA:0,31,_ZNSt3__116allocator_traitsIN5boost4asio17execution_context9allocatorINS2_6detail36config_from_concurrency_hint_serviceEEEE8allocateB8ne200100ERS7_m
FNA:0,31,_ZNSt3__116allocator_traitsIN5boost4asio17execution_context9allocatorINS2_6detail9schedulerEEEE8allocateB8ne200100ERS7_m
FNA:0,31,_ZNSt3__116allocator_traitsINS_9allocatorIN5boost4asio17execution_context14allocator_implINS1_IvEEEEEEE8allocateB8ne200100ERS8_m
FNA:0,0,_ZNSt3__116allocator_traitsINS_9allocatorIN5boost4asio6detail12posix_thread4funcINS4_9scheduler15thread_functionENS1_IvEEEEEEE8allocateB8ne200100ERSB_m
FNA:0,0,_ZNSt3__116allocator_traitsINS_9allocatorIN8nlohmann16json_abi_v3_12_027byte_container_with_subtypeINS_6vectorIhNS1_IhEEEEEEEEE8allocateB8ne200100ERS9_m
FNA:0,1,_ZNSt3__116allocator_traitsINS_9allocatorINS_11__hash_nodeINS_12basic_stringIcNS_11char_traitsIcEENS1_IcEEEEPvEEEEE8allocateB8ne200100ERSA_m
FNA:0,13,_ZNSt3__116allocator_traitsINS_9allocatorINS_11__hash_nodeINS_17__hash_value_typeINS_12basic_stringIcNS_11char_traitsIcEENS1_IcEEEEN3p2p5relay14BandwidthStatsEEEPvEEEEE8allocateB8ne200100ERSF_m
FNA:0,13,_ZNSt3__116allocator_traitsINS_9allocatorINS_11__hash_nodeINS_17__hash_value_typeINS_12basic_stringIcNS_11char_traitsIcEENS1_IcEEEEN3p2p5relay16BandwidthLimiter18AllocationLimitersEEEPvEEEEE8allocateB8ne200100ERSG_m
FNA:0,34,_ZNSt3__116allocator_traitsINS_9allocatorINS_11__hash_nodeINS_17__hash_value_typeINS_12basic_stringIcNS_11char_traitsIcEENS1_IcEEEENS_10shared_ptrIN3p2p5relay14TurnAllocationEEEEEPvEEEEE8allocateB8ne200100ERSH_m
FNA:0,68,_ZNSt3__116allocator_traitsINS_9allocatorINS_11__hash_nodeINS_17__hash_value_typeINS_12basic_stringIcNS_11char_traitsIcEENS1_IcEEEES8_EEPvEEEEE8allocateB8ne200100ERSC_m
FNA:0,180,_ZNSt3__116allocator_traitsINS_9allocatorINS_11__tree_nodeINS_12__value_typeIN3p2p9detection12DeviceVendorENS5_13DeviceProfileEEEPvEEEEE8allocateB8ne200100ERSB_m
FNA:0,266,_ZNSt3__116allocator_traitsINS_9allocatorINS_11__tree_nodeINS_12__value_typeINS_12basic_stringIcNS_11char_traitsIcEENS1_IcEEEEN8nlohmann16json_abi_v3_12_010basic_jsonINS_3mapENS_6vectorES8_bxydS1_NSA_14adl_serializerENSD_IhNS1_IhEEEEvEEEEPvEEEEE8allocateB8ne200100ERSL_m
FNA:0,36,_ZNSt3__116allocator_traitsINS_9allocatorINS_11__tree_nodeINS_12__value_typeINS_12basic_stringIcNS_11char_traitsIcEENS1_IcEEEES8_EEPvEEEEE8allocateB8ne200100ERSC_m
FNA:0,144,_ZNSt3__116allocator_traitsINS_9allocatorINS_12basic_stringIcNS_11char_traitsIcEENS1_IcEEEEEEE8allocateB8ne200100ERS7_m
FNA:0,0,_ZNSt3__116allocator_traitsINS_9allocatorINS_20__shared_ptr_emplaceIN3p2p3nat10STUNClientENS1_IS5_EEEEEEE8allocateB8ne200100ERS8_m
FNA:0,34,_ZNSt3__116allocator_traitsINS_9allocatorINS_20__shared_ptr_emplaceIN3p2p5relay14TurnAllocationENS1_IS5_EEEEEEE8allocateB8ne200100ERS8_m
FNA:0,14,_ZNSt3__116allocator_traitsINS_9allocatorINS_20__shared_ptr_emplaceIN3p2p9transport12UDPTransportENS1_IS5_EEEEEEE8allocateB8ne200100ERS8_m
FNA:0,7,_ZNSt3__116allocator_traitsINS_9allocatorINS_20__shared_ptr_emplaceIN5boost4asio19basic_stream_socketINS4_2ip3tcpENS4_15any_io_executorEEENS1_IS9_EEEEEEE8allocateB8ne200100ERSC_m
FNA:0,0,_ZNSt3__116allocator_traitsINS_9allocatorINS_20__shared_ptr_emplaceIN5boost4asio21basic_datagram_socketINS4_2ip3udpENS4_15any_io_executorEEENS1_IS9_EEEEEEE8allocateB8ne200100ERSC_m
FNA:0,0,_ZNSt3__116allocator_traitsINS_9allocatorINS_20__shared_ptr_emplaceIN5boost4asio2ip14basic_endpointINS5_3udpEEENS1_IS8_EEEEEEE8allocateB8ne200100ERSB_m
FNA:0,0,_ZNSt3__116allocator_traitsINS_9allocatorINS_20__shared_ptr_emplaceIN5boost4asio2ip14basic_resolverINS5_3udpENS4_15any_io_executorEEENS1_IS9_EEEEEEE8allocateB8ne200100ERSC_m
FNA:0,19,_ZNSt3__116allocator_traitsINS_9allocatorINS_20__shared_ptr_emplaceIN8nlohmann16json_abi_v3_12_06detail21output_string_adapterIcNS_12basic_stringIcNS_11char_traitsIcEENS1_IcEEEEEENS1_ISC_EEEEEEE8allocateB8ne200100ERSF_m
FNA:0,13,_ZNSt3__116allocator_traitsINS_9allocatorINS_20__shared_ptr_emplaceINS_6vectorIhNS1_IhEEEENS1_IS5_EEEEEEE8allocateB8ne200100ERS8_m
FNA:0,51,_ZNSt3__116allocator_traitsINS_9allocatorINS_3mapINS_12basic_stringIcNS_11char_traitsIcEENS1_IcEEEEN8nlohmann16json_abi_v3_12_010basic_jsonIS2_NS_6vectorES7_bxydS1_NS9_14adl_serializerENSB_IhNS1_IhEEEEvEENS_4lessIvEENS1_INS_4pairIKS7_SF_EEEEEEEEE8allocateB8ne200100ERSN_m
FNA:0,5,_ZNSt3__116allocator_traitsINS_9allocatorINS_4pairINS_6chrono10time_pointINS3_12steady_clockENS3_8durationIxNS_5ratioILl1ELl1000000000EEEEEEEmEEEEE8allocateB8ne200100ERSC_m
FNA:0,0,_ZNSt3__116allocator_traitsINS_9allocatorINS_6vectorIN8nlohmann16json_abi_v3_12_010basic_jsonINS_3mapES2_NS_12basic_stringIcNS_11char_traitsIcEENS1_IcEEEEbxydS1_NS4_14adl_serializerENS2_IhNS1_IhEEEEvEENS1_ISF_EEEEEEE8allocateB8ne200100ERSI_m
FNA:0,1,_ZNSt3__116allocator_traitsINS_9allocatorIPNS_16__hash_node_baseIPNS_11__hash_nodeINS_12basic_stringIcNS_11char_traitsIcEENS1_IcEEEEPvEEEEEEE8allocateB8ne200100ERSE_m
FNA:0,9,_ZNSt3__116allocator_traitsINS_9allocatorIPNS_16__hash_node_baseIPNS_11__hash_nodeINS_17__hash_value_typeINS_12basic_stringIcNS_11char_traitsIcEENS1_IcEEEEN3p2p5relay14BandwidthStatsEEEPvEEEEEEE8allocateB8ne200100ERSJ_m
FNA:0,9,_ZNSt3__116allocator_traitsINS_9allocatorIPNS_16__hash_node_baseIPNS_11__hash_nodeINS_17__hash_value_typeINS_12basic_stringIcNS_11char_traitsIcEENS1_IcEEEEN3p2p5relay16BandwidthLimiter18AllocationLimitersEEEPvEEEEEEE8allocateB8ne200100ERSK_m
FNA:0,22,_ZNSt3__116allocator_traitsINS_9allocatorIPNS_16__hash_node_baseIPNS_11__hash_nodeINS_17__hash_value_typeINS_12basic_stringIcNS_11char_traitsIcEENS1_IcEEEENS_10shared_ptrIN3p2p5relay14TurnAllocationEEEEEPvEEEEEEE8allocateB8ne200100ERSL_m
FNA:0,44,_ZNSt3__116allocator_traitsINS_9allocatorIPNS_16__hash_node_baseIPNS_11__hash_nodeINS_17__hash_value_typeINS_12basic_stringIcNS_11char_traitsIcEENS1_IcEEEES9_EEPvEEEEEEE8allocateB8ne200100ERSG_m
FNA:0,11,_ZNSt3__116allocator_traitsINS_9allocatorIcEEE8allocateB8ne200100ERS2_m
FNA:0,173,_ZNSt3__116allocator_traitsINS_9allocatorIhEEE8allocateB8ne200100ERS2_m
FNL:1,301,303
FNA:1,0,_ZNSt3__116allocator_traitsIN5boost4asio17execution_context9allocatorINS2_14config_serviceEEEE10deallocateB8ne200100ERS6_PS5_m
FNA:1,0,_ZNSt3__116allocator_traitsIN5boost4asio17execution_context9allocatorINS2_6detail12posix_thread4funcINS5_20resolver_thread_pool21work_scheduler_runnerENS4_IvEEEEEEE10deallocateB8ne200100ERSC_PSB_m
FNA:1,0,_ZNSt3__116allocator_traitsIN5boost4asio17execution_context9allocatorINS2_6detail12thread_groupINS4_IvEEE4itemEEEE10deallocateB8ne200100ERSA_PS9_m
FNA:1,32,_ZNSt3__116allocator_traitsIN5boost4asio17execution_context9allocatorINS2_6detail14kqueue_reactor16descriptor_stateEEEE10deallocateB8ne200100ERS8_PS7_m
FNA:1,21,_ZNSt3__116allocator_traitsIN5boost4asio17execution_context9allocatorINS2_6detail14kqueue_reactorEEEE10deallocateB8ne200100ERS7_PS6_m
FNA:1,0,_ZNSt3__116allocator_traitsIN5boost4asio17execution_context9allocatorINS2_6detail16resolver_serviceINS2_2ip3udpEEEEEE10deallocateB8ne200100ERSA_PS9_m
FNA:1,31,_ZNSt3__116allocator_traitsIN5boost4asio17execution_context9allocatorINS2_6detail16service_registryEEEE10deallocateB8ne200100ERS7_PS6_m
FNA:1,0,_ZNSt3__116allocator_traitsIN5boost4asio17execution_context9allocatorINS2_6detail20resolver_thread_poolEEEE10deallocateB8ne200100ERS7_PS6_m
FNA:1,7,_ZNSt3__116allocator_traitsIN5boost4asio17execution_context9allocatorINS2_6detail23reactive_socket_serviceINS2_2ip3tcpEEEEEE10deallocateB8ne200100ERSA_PS9_m
FNA:1,20,_ZNSt3__116allocator_traitsIN5boost4asio17execution_context9allocatorINS2_6detail23reactive_socket_serviceINS2_2ip3udpEEEEEE10deallocateB8ne200100ERSA_PS9_m
FNA:1,31,_ZNSt3__116allocator_traitsIN5boost4asio17execution_context9allocatorINS2_6detail36config_from_concurrency_hint_serviceEEEE10deallocateB8ne200100ERS7_PS6_m
FNA:1,31,_ZNSt3__116allocator_traitsIN5boost4asio17execution_context9allocatorINS2_6detail9schedulerEEEE10deallocateB8ne200100ERS7_PS6_m
FNA:1,3,_ZNSt3__116allocator_traitsINS_9allocatorIN3p2p5relay13StunAttributeEEEE10deallocateB8ne200100ERS5_PS4_m
FNA:1,1,_ZNSt3__116allocator_traitsINS_9allocatorIN3p2p5relay7AddressEEEE10deallocateB8ne200100ERS5_PS4_m
FNA:1,37,_ZNSt3__116allocator_traitsINS_9allocatorIN3p2p8protocol13StunAttributeEEEE10deallocateB8ne200100ERS5_PS4_m
FNA:1,31,_ZNSt3__116allocator_traitsINS_9allocatorIN5boost4asio17execution_context14allocator_implINS1_IvEEEEEEE10deallocateB8ne200100ERS8_PS7_m
FNA:1,0,_ZNSt3__116allocator_traitsINS_9allocatorIN5boost4asio2ip20basic_resolver_entryINS4_3udpEEEEEE10deallocateB8ne200100ERS8_PS7_m
FNA:1,0,_ZNSt3__116allocator_traitsINS_9allocatorIN5boost4asio6detail12posix_thread4funcINS4_9scheduler15thread_functionENS1_IvEEEEEEE10deallocateB8ne200100ERSB_PSA_m
FNA:1,0,_ZNSt3__116allocator_traitsINS_9allocatorIN5boost4asio6detail12thread_groupINS1_IvEEE4itemEEEE10deallocateB8ne200100ERS9_PS8_m
FNA:1,36,_ZNSt3__116allocator_traitsINS_9allocatorIN8nlohmann16json_abi_v3_12_010basic_jsonINS_3mapENS_6vectorENS_12basic_stringIcNS_11char_traitsIcEENS1_IcEEEEbxydS1_NS3_14adl_serializerENS6_IhNS1_IhEEEEvEEEEE10deallocateB8ne200100ERSG_PSF_m
FNA:1,0,_ZNSt3__116allocator_traitsINS_9allocatorIN8nlohmann16json_abi_v3_12_027byte_container_with_subtypeINS_6vectorIhNS1_IhEEEEEEEEE10deallocateB8ne200100ERS9_PS8_m
FNA:1,0,_ZNSt3__116allocator_traitsINS_9allocatorINS_10__function6__funcIZN33UDPTransportTest_LargePacket_Test8TestBodyEvE3$_0NS1_IS5_EEFvRKNS_6vectorIhNS1_IhEEEERKN5boost4asio2ip14basic_endpointINSE_3udpEEEEEEEEE10deallocateB8ne200100ERSM_PSL_m
FNA:1,0,_ZNSt3__116allocator_traitsINS_9allocatorINS_10__function6__funcIZN33UDPTransportTest_LargePacket_Test8TestBodyEvE3$_1NS1_IS5_EEFvRKNS_10error_codeEEEEEEE10deallocateB8ne200100ERSC_PSB_m
FNA:1,0,_ZNSt3__116allocator_traitsINS_9allocatorINS_10__function6__funcIZN33UDPTransportTest_SendReceive_Test8TestBodyEvE3$_0NS1_IS5_EEFvRKNS_6vectorIhNS1_IhEEEERKN5boost4asio2ip14basic_endpointINSE_3udpEEEEEEEEE10deallocateB8ne200100ERSM_PSL_m
FNA:1,0,_ZNSt3__116allocator_traitsINS_9allocatorINS_10__function6__funcIZN33UDPTransportTest_SendReceive_Test8TestBodyEvE3$_1NS1_IS5_EEFvRKNS_10error_codeEEEEEEE10deallocateB8ne200100ERSC_PSB_m
FNA:1,0,_ZNSt3__116allocator_traitsINS_9allocatorINS_10__function6__funcIZN34UDPTransportTest_SendWithPeer_Test8TestBodyEvE3$_0NS1_IS5_EEFvRKNS_6vectorIhNS1_IhEEEERKN5boost4asio2ip14basic_endpointINSE_3udpEEEEEEEEE10deallocateB8ne200100ERSM_PSL_m
FNA:1,0,_ZNSt3__116allocator_traitsINS_9allocatorINS_10__function6__funcIZN34UDPTransportTest_SendWithPeer_Test8TestBodyEvE3$_1NS1_IS5_EEFvRKNS_10error_codeEEEEEEE10deallocateB8ne200100ERSC_PSB_m
FNA:1,0,_ZNSt3__116allocator_traitsINS_9allocatorINS_10__function6__funcIZN35UDPTransportTest_SendAfterStop_Test8TestBodyEvE3$_0NS1_IS5_EEFvRKNS_10error_codeEEEEEEE10deallocateB8ne200100ERSC_PSB_m
FNA:1,0,_ZNSt3__116allocator_traitsINS_9allocatorINS_10__function6__funcIZN37UDPTransportTest_SendWithoutPeer_Test8TestBodyEvE3$_0NS1_IS5_EEFvRKNS_10error_codeEEEEEEE10deallocateB8ne200100ERSC_PSB_m
FNA:1,0,_ZNSt3__116allocator_traitsINS_9allocatorINS_10__function6__funcIZN38UDPTransportTest_MultipleMessages_Test8TestBodyEvE3$_0NS1_IS5_EEFvRKNS_6vectorIhNS1_IhEEEERKN5boost4asio2ip14basic_endpointINSE_3udpEEEEEEEEE10deallocateB8ne200100ERSM_PSL_m
FNA:1,0,_ZNSt3__116allocator_traitsINS_9allocatorINS_10__function6__funcIZN38UDPTransportTest_MultipleMessages_Test8TestBodyEvE3$_1NS1_IS5_EEFvRKNS_10error_codeEEEEEEE10deallocateB8ne200100ERSC_PSB_m
FNA:1,0,_ZNSt3__116allocator_traitsINS_9allocatorINS_10__function6__funcIZN3p2p3nat15detect_nat_typeERN5boost4asio10io_contextERKNS_12basic_stringIcNS_11char_traitsIcEENS1_IcEEEEtNS_8functionIFvRKNS5_18NATDetectionResultEEEEE3$_0NS1_ISN_EEFvNS_8optionalISE_EENSP_ItEEEEEEEE10deallocateB8ne200100ERSU_PST_m
FNA:1,1,_ZNSt3__116allocator_traitsINS_9allocatorINS_10shared_ptrIN3p2p5relay14TurnAllocationEEEEEE10deallocateB8ne200100ERS7_PS6_m
FNA:1,20,_ZNSt3__116allocator_traitsINS_9allocatorINS_10unique_ptrIN3p2p7testing10TestClientENS_14default_deleteIS5_EEEEEEE10deallocateB8ne200100ERS9_PS8_m
FNA:1,1,_ZNSt3__116allocator_traitsINS_9allocatorINS_11__hash_nodeINS_12basic_stringIcNS_11char_traitsIcEENS1_IcEEEEPvEEEEE10deallocateB8ne200100ERSA_PS9_m
FNA:1,13,_ZNSt3__116allocator_traitsINS_9allocatorINS_11__hash_nodeINS_17__hash_value_typeINS_12basic_stringIcNS_11char_traitsIcEENS1_IcEEEEN3p2p5relay14BandwidthStatsEEEPvEEEEE10deallocateB8ne200100ERSF_PSE_m
FNA:1,13,_ZNSt3__116allocator_traitsINS_9allocatorINS_11__hash_nodeINS_17__hash_value_typeINS_12basic_stringIcNS_11char_traitsIcEENS1_IcEEEEN3p2p5relay16BandwidthLimiter18AllocationLimitersEEEPvEEEEE10deallocateB8ne200100ERSG_PSF_m
FNA:1,34,_ZNSt3__116allocator_traitsINS_9allocatorINS_11__hash_nodeINS_17__hash_value_typeINS_12basic_stringIcNS_11char_traitsIcEENS1_IcEEEENS_10shared_ptrIN3p2p5relay14TurnAllocationEEEEEPvEEEEE10deallocateB8ne200100ERSH_PSG_m
FNA:1,68,_ZNSt3__116allocator_traitsINS_9allocatorINS_11__hash_nodeINS_17__hash_value_typeINS_12basic_stringIcNS_11char_traitsIcEENS1_IcEEEES8_EEPvEEEEE10deallocateB8ne200100ERSC_PSB_m
FNA:1,180,_ZNSt3__116allocator_traitsINS_9allocatorINS_11__tree_nodeINS_12__value_typeIN3p2p9detection12DeviceVendorENS5_13DeviceProfileEEEPvEEEEE10deallocateB8ne200100ERSB_PSA_m
FNA:1,266,_ZNSt3__116allocator_traitsINS_9allocatorINS_11__tree_nodeINS_12__value_typeINS_12basic_stringIcNS_11char_traitsIcEENS1_IcEEEEN8nlohmann16json_abi_v3_12_010basic_jsonINS_3mapENS_6vectorES8_bxydS1_NSA_14adl_serializerENSD_IhNS1_IhEEEEvEEEEPvEEEEE10deallocateB8ne200100ERSL_PSK_m
FNA:1,36,_ZNSt3__116allocator_traitsINS_9allocatorINS_11__tree_nodeINS_12__value_typeINS_12basic_stringIcNS_11char_traitsIcEENS1_IcEEEES8_EEPvEEEEE10deallocateB8ne200100ERSC_PSB_m
FNA:1,177,_ZNSt3__116allocator_traitsINS_9allocatorINS_12basic_stringIcNS_11char_traitsIcEENS1_IcEEEEEEE10deallocateB8ne200100ERS7_PS6_m
FNA:1,0,_ZNSt3__116allocator_traitsINS_9allocatorINS_20__shared_ptr_emplaceIN3p2p3nat10STUNClientENS1_IS5_EEEEEEE10deallocateB8ne200100ERS8_PS7_m
FNA:1,34,_ZNSt3__116allocator_traitsINS_9allocatorINS_20__shared_ptr_emplaceIN3p2p5relay14TurnAllocationENS1_IS5_EEEEEEE10deallocateB8ne200100ERS8_PS7_m
FNA:1,14,_ZNSt3__116allocator_traitsINS_9allocatorINS_20__shared_ptr_emplaceIN3p2p9transport12UDPTransportENS1_IS5_EEEEEEE10deallocateB8ne200100ERS8_PS7_m
FNA:1,7,_ZNSt3__116allocator_traitsINS_9allocatorINS_20__shared_ptr_emplaceIN5boost4asio19basic_stream_socketINS4_2ip3tcpENS4_15any_io_executorEEENS1_IS9_EEEEEEE10deallocateB8ne200100ERSC_PSB_m
FNA:1,0,_ZNSt3__116allocator_traitsINS_9allocatorINS_20__shared_ptr_emplaceIN5boost4asio21basic_datagram_socketINS4_2ip3udpENS4_15any_io_executorEEENS1_IS9_EEEEEEE10deallocateB8ne200100ERSC_PSB_m
FNA:1,0,_ZNSt3__116allocator_traitsINS_9allocatorINS_20__shared_ptr_emplaceIN5boost4asio2ip14basic_endpointINS5_3udpEEENS1_IS8_EEEEEEE10deallocateB8ne200100ERSB_PSA_m
FNA:1,0,_ZNSt3__116allocator_traitsINS_9allocatorINS_20__shared_ptr_emplaceIN5boost4asio2ip14basic_resolverINS5_3udpENS4_15any_io_executorEEENS1_IS9_EEEEEEE10deallocateB8ne200100ERSC_PSB_m
FNA:1,19,_ZNSt3__116allocator_traitsINS_9allocatorINS_20__shared_ptr_emplaceIN8nlohmann16json_abi_v3_12_06detail21output_string_adapterIcNS_12basic_stringIcNS_11char_traitsIcEENS1_IcEEEEEENS1_ISC_EEEEEEE10deallocateB8ne200100ERSF_PSE_m
FNA:1,13,_ZNSt3__116allocator_traitsINS_9allocatorINS_20__shared_ptr_emplaceINS_6vectorIhNS1_IhEEEENS1_IS5_EEEEEEE10deallocateB8ne200100ERS8_PS7_m
FNA:1,51,_ZNSt3__116allocator_traitsINS_9allocatorINS_3mapINS_12basic_stringIcNS_11char_traitsIcEENS1_IcEEEEN8nlohmann16json_abi_v3_12_010basic_jsonIS2_NS_6vectorES7_bxydS1_NS9_14adl_serializerENSB_IhNS1_IhEEEEvEENS_4lessIvEENS1_INS_4pairIKS7_SF_EEEEEEEEE10deallocateB8ne200100ERSN_PSM_m
FNA:1,28,_ZNSt3__116allocator_traitsINS_9allocatorINS_4pairIN3p2p9detection12DeviceVendorEdEEEEE10deallocateB8ne200100ERS7_PS6_m
FNA:1,5,_ZNSt3__116allocator_traitsINS_9allocatorINS_4pairINS_6chrono10time_pointINS3_12steady_clockENS3_8durationIxNS_5ratioILl1ELl1000000000EEEEEEEmEEEEE10deallocateB8ne200100ERSC_PSB_m
FNA:1,5,_ZNSt3__116allocator_traitsINS_9allocatorINS_5arrayIhLm12EEEEEE10deallocateB8ne200100ERS4_PS3_m
FNA:1,37,_ZNSt3__116allocator_traitsINS_9allocatorINS_6threadEEEE10deallocateB8ne200100ERS3_PS2_m
FNA:1,0,_ZNSt3__116allocator_traitsINS_9allocatorINS_6vectorIN8nlohmann16json_abi_v3_12_010basic_jsonINS_3mapES2_NS_12basic_stringIcNS_11char_traitsIcEENS1_IcEEEEbxydS1_NS4_14adl_serializerENS2_IhNS1_IhEEEEvEENS1_ISF_EEEEEEE10deallocateB8ne200100ERSI_PSH_m
FNA:1,25,_ZNSt3__116allocator_traitsINS_9allocatorIPN8nlohmann16json_abi_v3_12_010basic_jsonINS_3mapENS_6vectorENS_12basic_stringIcNS_11char_traitsIcEENS1_IcEEEEbxydS1_NS3_14adl_serializerENS6_IhNS1_IhEEEEvEEEEE10deallocateB8ne200100ERSH_PSG_m
FNA:1,1,_ZNSt3__116allocator_traitsINS_9allocatorIPNS_16__hash_node_baseIPNS_11__hash_nodeINS_12basic_stringIcNS_11char_traitsIcEENS1_IcEEEEPvEEEEEEE10deallocateB8ne200100ERSE_PSD_m
FNA:1,9,_ZNSt3__116allocator_traitsINS_9allocatorIPNS_16__hash_node_baseIPNS_11__hash_nodeINS_17__hash_value_typeINS_12basic_stringIcNS_11char_traitsIcEENS1_IcEEEEN3p2p5relay14BandwidthStatsEEEPvEEEEEEE10deallocateB8ne200100ERSJ_PSI_m
FNA:1,9,_ZNSt3__116allocator_traitsINS_9allocatorIPNS_16__hash_node_baseIPNS_11__hash_nodeINS_17__hash_value_typeINS_12basic_stringIcNS_11char_traitsIcEENS1_IcEEEEN3p2p5relay16BandwidthLimiter18AllocationLimitersEEEPvEEEEEEE10deallocateB8ne200100ERSK_PSJ_m
FNA:1,22,_ZNSt3__116allocator_traitsINS_9allocatorIPNS_16__hash_node_baseIPNS_11__hash_nodeINS_17__hash_value_typeINS_12basic_stringIcNS_11char_traitsIcEENS1_IcEEEENS_10shared_ptrIN3p2p5relay14TurnAllocationEEEEEPvEEEEEEE10deallocateB8ne200100ERSL_PSK_m
FNA:1,44,_ZNSt3__116allocator_traitsINS_9allocatorIPNS_16__hash_node_baseIPNS_11__hash_nodeINS_17__hash_value_typeINS_12basic_stringIcNS_11char_traitsIcEENS1_IcEEEES9_EEPvEEEEEEE10deallocateB8ne200100ERSG_PSF_m
FNA:1,5,_ZNSt3__116allocator_traitsINS_9allocatorIPNS_4pairINS_6chrono10time_pointINS3_12steady_clockENS3_8durationIxNS_5ratioILl1ELl1000000000EEEEEEEmEEEEE10deallocateB8ne200100ERSD_PSC_m
FNA:1,144,_ZNSt3__116allocator_traitsINS_9allocatorIcEEE10deallocateB8ne200100ERS2_Pcm
FNA:1,641,_ZNSt3__116allocator_traitsINS_9allocatorIhEEE10deallocateB8ne200100ERS2_Phm
FNA:1,17,_ZNSt3__116allocator_traitsINS_9allocatorImEEE10deallocateB8ne200100ERS2_Pmm
FNA:1,4,_ZNSt3__116allocator_traitsINS_9allocatorItEEE10deallocateB8ne200100ERS2_Ptm
FNL:2,317,319
FNA:2,0,_ZNSt3__116allocator_traitsINS_9allocatorIN3p2p3nat10STUNClientEEEE9constructB8ne200100IS4_JRN5boost4asio10io_contextERKNS_12basic_stringIcNS_11char_traitsIcEENS1_IcEEEERtEvLi0EEEvRS5_PT_DpOT0_
FNA:2,0,_ZNSt3__116allocator_traitsINS_9allocatorIN3p2p5relay13StunAttributeEEEE9constructB8ne200100IS4_JNS3_13AttributeTypeENS_6vectorIhNS1_IhEEEEEvLi0EEEvRS5_PT_DpOT0_
FNA:2,3,_ZNSt3__116allocator_traitsINS_9allocatorIN3p2p5relay13StunAttributeEEEE9constructB8ne200100IS4_JRNS3_13AttributeTypeENS_6vectorIhNS1_IhEEEEEvLi0EEEvRS5_PT_DpOT0_
FNA:2,1,_ZNSt3__116allocator_traitsINS_9allocatorIN3p2p5relay13StunAttributeEEEE9constructB8ne200100IS4_JS4_EvLi0EEEvRS5_PT_DpOT0_
FNA:2,34,_ZNSt3__116allocator_traitsINS_9allocatorIN3p2p5relay14TurnAllocationEEEE9constructB8ne200100IS4_JRNS_12basic_stringIcNS_11char_traitsIcEENS1_IcEEEERKNS3_7AddressERSE_RjRNS3_17TransportProtocolEEvLi0EEEvRS5_PT_DpOT0_
FNA:2,4,_ZNSt3__116allocator_traitsINS_9allocatorIN3p2p5relay7AddressEEEE9constructB8ne200100IS4_JRKS4_EvLi0EEEvRS5_PT_DpOT0_
FNA:2,39,_ZNSt3__116allocator_traitsINS_9allocatorIN3p2p8protocol13StunAttributeEEEE9constructB8ne200100IS4_JS4_EvLi0EEEvRS5_PT_DpOT0_
FNA:2,14,_ZNSt3__116allocator_traitsINS_9allocatorIN3p2p9transport12UDPTransportEEEE9constructB8ne200100IS4_JRN5boost4asio10io_contextEiEvLi0EEEvRS5_PT_DpOT0_
FNA:2,7,_ZNSt3__116allocator_traitsINS_9allocatorIN5boost4asio19basic_stream_socketINS3_2ip3tcpENS3_15any_io_executorEEEEEE9constructB8ne200100IS8_JRNS3_10io_contextEEvLi0EEEvRS9_PT_DpOT0_
FNA:2,0,_ZNSt3__116allocator_traitsINS_9allocatorIN5boost4asio21basic_datagram_socketINS3_2ip3udpENS3_15any_io_executorEEEEEE9constructB8ne200100IS8_JRNS3_10io_contextEEvLi0EEEvRS9_PT_DpOT0_
FNA:2,0,_ZNSt3__116allocator_traitsINS_9allocatorIN5boost4asio2ip14basic_endpointINS4_3udpEEEEEE9constructB8ne200100IS7_JEvLi0EEEvRS8_PT_DpOT0_
FNA:2,0,_ZNSt3__116allocator_traitsINS_9allocatorIN5boost4asio2ip14basic_resolverINS4_3udpENS3_15any_io_executorEEEEEE9constructB8ne200100IS8_JRNS3_10io_contextEEvLi0EEEvRS9_PT_DpOT0_
FNA:2,0,_ZNSt3__116allocator_traitsINS_9allocatorIN5boost4asio2ip20basic_resolver_entryINS4_3udpEEEEEE9constructB8ne200100IS7_JS7_EvLi0EEEvRS8_PT_DpOT0_
FNA:2,0,_ZNSt3__116allocator_traitsINS_9allocatorIN8nlohmann16json_abi_v3_12_010basic_jsonINS_3mapENS_6vectorENS_12basic_stringIcNS_11char_traitsIcEENS1_IcEEEEbxydS1_NS3_14adl_serializerENS6_IhNS1_IhEEEEvEEEEE9constructB8ne200100ISF_JDnEvLi0EEEvRSG_PT_DpOT0_
FNA:2,0,_ZNSt3__116allocator_traitsINS_9allocatorIN8nlohmann16json_abi_v3_12_010basic_jsonINS_3mapENS_6vectorENS_12basic_stringIcNS_11char_traitsIcEENS1_IcEEEEbxydS1_NS3_14adl_serializerENS6_IhNS1_IhEEEEvEEEEE9constructB8ne200100ISF_JNS3_6detail7value_tEEvLi0EEEvRSG_PT_DpOT0_
FNA:2,0,_ZNSt3__116allocator_traitsINS_9allocatorIN8nlohmann16json_abi_v3_12_010basic_jsonINS_3mapENS_6vectorENS_12basic_stringIcNS_11char_traitsIcEENS1_IcEEEEbxydS1_NS3_14adl_serializerENS6_IhNS1_IhEEEEvEEEEE9constructB8ne200100ISF_JRSB_EvLi0EEEvRSG_PT_DpOT0_
FNA:2,0,_ZNSt3__116allocator_traitsINS_9allocatorIN8nlohmann16json_abi_v3_12_010basic_jsonINS_3mapENS_6vectorENS_12basic_stringIcNS_11char_traitsIcEENS1_IcEEEEbxydS1_NS3_14adl_serializerENS6_IhNS1_IhEEEEvEEEEE9constructB8ne200100ISF_JRSF_EvLi0EEEvRSG_PT_DpOT0_
FNA:2,0,_ZNSt3__116allocator_traitsINS_9allocatorIN8nlohmann16json_abi_v3_12_010basic_jsonINS_3mapENS_6vectorENS_12basic_stringIcNS_11char_traitsIcEENS1_IcEEEEbxydS1_NS3_14adl_serializerENS6_IhNS1_IhEEEEvEEEEE9constructB8ne200100ISF_JRbEvLi0EEEvRSG_PT_DpOT0_
FNA:2,0,_ZNSt3__116allocator_traitsINS_9allocatorIN8nlohmann16json_abi_v3_12_010basic_jsonINS_3mapENS_6vectorENS_12basic_stringIcNS_11char_traitsIcEENS1_IcEEEEbxydS1_NS3_14adl_serializerENS6_IhNS1_IhEEEEvEEEEE9constructB8ne200100ISF_JRdEvLi0EEEvRSG_PT_DpOT0_
FNA:2,0,_ZNSt3__116allocator_traitsINS_9allocatorIN8nlohmann16json_abi_v3_12_010basic_jsonINS_3mapENS_6vectorENS_12basic_stringIcNS_11char_traitsIcEENS1_IcEEEEbxydS1_NS3_14adl_serializerENS6_IhNS1_IhEEEEvEEEEE9constructB8ne200100ISF_JRxEvLi0EEEvRSG_PT_DpOT0_
FNA:2,0,_ZNSt3__116allocator_traitsINS_9allocatorIN8nlohmann16json_abi_v3_12_010basic_jsonINS_3mapENS_6vectorENS_12basic_stringIcNS_11char_traitsIcEENS1_IcEEEEbxydS1_NS3_14adl_serializerENS6_IhNS1_IhEEEEvEEEEE9constructB8ne200100ISF_JRyEvLi0EEEvRSG_PT_DpOT0_
FNA:2,266,_ZNSt3__116allocator_traitsINS_9allocatorIN8nlohmann16json_abi_v3_12_010basic_jsonINS_3mapENS_6vectorENS_12basic_stringIcNS_11char_traitsIcEENS1_IcEEEEbxydS1_NS3_14adl_serializerENS6_IhNS1_IhEEEEvEEEEE9constructB8ne200100ISF_JSF_EvLi0EEEvRSG_PT_DpOT0_
FNA:2,0,_ZNSt3__116allocator_traitsINS_9allocatorIN8nlohmann16json_abi_v3_12_027byte_container_with_subtypeINS_6vectorIhNS1_IhEEEEEEEEE9constructB8ne200100IS8_JEvLi0EEEvRS9_PT_DpOT0_
FNA:2,0,_ZNSt3__116allocator_traitsINS_9allocatorIN8nlohmann16json_abi_v3_12_027byte_container_with_subtypeINS_6vectorIhNS1_IhEEEEEEEEE9constructB8ne200100IS8_JRKS8_EvLi0EEEvRS9_PT_DpOT0_
FNA:2,19,_ZNSt3__116allocator_traitsINS_9allocatorIN8nlohmann16json_abi_v3_12_06detail21output_string_adapterIcNS_12basic_stringIcNS_11char_traitsIcEENS1_IcEEEEEEEEE9constructB8ne200100ISB_JRSA_EvLi0EEEvRSC_PT_DpOT0_
FNA:2,10,_ZNSt3__116allocator_traitsINS_9allocatorINS_10shared_ptrIN3p2p5relay14TurnAllocationEEEEEE9constructB8ne200100IS6_JEvLi0EEEvRS7_PT_DpOT0_
FNA:2,50,_ZNSt3__116allocator_traitsINS_9allocatorINS_10unique_ptrIN3p2p7testing10TestClientENS_14default_deleteIS5_EEEEEEE9constructB8ne200100IS8_JS8_EvLi0EEEvRS9_PT_DpOT0_
FNA:2,1,_ZNSt3__116allocator_traitsINS_9allocatorINS_11__hash_nodeINS_12basic_stringIcNS_11char_traitsIcEENS1_IcEEEEPvEEEEE9constructB8ne200100IS7_JS7_EvLi0EEEvRSA_PT_DpOT0_
FNA:2,13,_ZNSt3__116allocator_traitsINS_9allocatorINS_11__hash_nodeINS_17__hash_value_typeINS_12basic_stringIcNS_11char_traitsIcEENS1_IcEEEEN3p2p5relay14BandwidthStatsEEEPvEEEEE9constructB8ne200100INS_4pairIKS8_SB_EEJRKNS_21piecewise_construct_tENS_5tupleIJRSJ_EEENSO_IJEEEEvLi0EEEvRSF_PT_DpOT0_
FNA:2,13,_ZNSt3__116allocator_traitsINS_9allocatorINS_11__hash_nodeINS_17__hash_value_typeINS_12basic_stringIcNS_11char_traitsIcEENS1_IcEEEEN3p2p5relay16BandwidthLimiter18AllocationLimitersEEEPvEEEEE9constructB8ne200100INS_4pairIKS8_SC_EEJRKNS_21piecewise_construct_tENS_5tupleIJRSK_EEENSP_IJEEEEvLi0EEEvRSG_PT_DpOT0_
FNA:2,34,_ZNSt3__116allocator_traitsINS_9allocatorINS_11__hash_nodeINS_17__hash_value_typeINS_12basic_stringIcNS_11char_traitsIcEENS1_IcEEEENS_10shared_ptrIN3p2p5relay14TurnAllocationEEEEEPvEEEEE9constructB8ne200100INS_4pairIKS8_SD_EEJRKNS_21piecewise_construct_tENS_5tupleIJRSL_EEENSQ_IJEEEEvLi0EEEvRSH_PT_DpOT0_
FNA:2,68,_ZNSt3__116allocator_traitsINS_9allocatorINS_11__hash_nodeINS_17__hash_value_typeINS_12basic_stringIcNS_11char_traitsIcEENS1_IcEEEES8_EEPvEEEEE9constructB8ne200100INS_4pairIKS8_S8_EEJRKNS_21piecewise_construct_tENS_5tupleIJOS8_EEENSL_IJEEEEvLi0EEEvRSC_PT_DpOT0_
FNA:2,180,_ZNSt3__116allocator_traitsINS_9allocatorINS_11__tree_nodeINS_12__value_typeIN3p2p9detection12DeviceVendorENS5_13DeviceProfileEEEPvEEEEE9constructB8ne200100INS_4pairIKS6_S7_EEJRKNS_21piecewise_construct_tENS_5tupleIJOS6_EEENSK_IJEEEEvLi0EEEvRSB_PT_DpOT0_
FNA:2,18,_ZNSt3__116allocator_traitsINS_9allocatorINS_11__tree_nodeINS_12__value_typeINS_12basic_stringIcNS_11char_traitsIcEENS1_IcEEEEN8nlohmann16json_abi_v3_12_010basic_jsonINS_3mapENS_6vectorES8_bxydS1_NSA_14adl_serializerENSD_IhNS1_IhEEEEvEEEEPvEEEEE9constructB8ne200100INS_4pairIKS8_SH_EEJRKNSO_ISP_S8_EEEvLi0EEEvRSL_PT_DpOT0_
FNA:2,127,_ZNSt3__116allocator_traitsINS_9allocatorINS_11__tree_nodeINS_12__value_typeINS_12basic_stringIcNS_11char_traitsIcEENS1_IcEEEEN8nlohmann16json_abi_v3_12_010basic_jsonINS_3mapENS_6vectorES8_bxydS1_NSA_14adl_serializerENSD_IhNS1_IhEEEEvEEEEPvEEEEE9constructB8ne200100INS_4pairIKS8_SH_EEJRKNS_21piecewise_construct_tENS_5tupleIJRSP_EEENSU_IJEEEEvLi0EEEvRSL_PT_DpOT0_
FNA:2,0,_ZNSt3__116allocator_traitsINS_9allocatorINS_11__tree_nodeINS_12__value_typeINS_12basic_stringIcNS_11char_traitsIcEENS1_IcEEEEN8nlohmann16json_abi_v3_12_010basic_jsonINS_3mapENS_6vectorES8_bxydS1_NSA_14adl_serializerENSD_IhNS1_IhEEEEvEEEEPvEEEEE9constructB8ne200100INS_4pairIKS8_SH_EEJRKSQ_EvLi0EEEvRSL_PT_DpOT0_
FNA:2,121,_ZNSt3__116allocator_traitsINS_9allocatorINS_11__tree_nodeINS_12__value_typeINS_12basic_stringIcNS_11char_traitsIcEENS1_IcEEEEN8nlohmann16json_abi_v3_12_010basic_jsonINS_3mapENS_6vectorES8_bxydS1_NSA_14adl_serializerENSD_IhNS1_IhEEEEvEEEEPvEEEEE9constructB8ne200100INS_4pairIKS8_SH_EEJS8_DnEvLi0EEEvRSL_PT_DpOT0_
FNA:2,18,_ZNSt3__116allocator_traitsINS_9allocatorINS_11__tree_nodeINS_12__value_typeINS_12basic_stringIcNS_11char_traitsIcEENS1_IcEEEES8_EEPvEEEEE9constructB8ne200100INS_4pairIKS8_S8_EEJRKNS_21piecewise_construct_tENS_5tupleIJRSG_EEENSL_IJEEEEvLi0EEEvRSC_PT_DpOT0_
FNA:2,18,_ZNSt3__116allocator_traitsINS_9allocatorINS_11__tree_nodeINS_12__value_typeINS_12basic_stringIcNS_11char_traitsIcEENS1_IcEEEES8_EEPvEEEEE9constructB8ne200100INS_4pairIKS8_S8_EEJSH_EvLi0EEEvRSC_PT_DpOT0_
FNA:2,0,_ZNSt3__116allocator_traitsINS_9allocatorINS_12basic_stringIcNS_11char_traitsIcEENS1_IcEEEEEEE9constructB8ne200100IS6_JRA1_KcEvLi0EEEvRS7_PT_DpOT0_
FNA:2,144,_ZNSt3__116allocator_traitsINS_9allocatorINS_12basic_stringIcNS_11char_traitsIcEENS1_IcEEEEEEE9constructB8ne200100IS6_JRKS6_EvLi0EEEvRS7_PT_DpOT0_
FNA:2,44,_ZNSt3__116allocator_traitsINS_9allocatorINS_3mapINS_12basic_stringIcNS_11char_traitsIcEENS1_IcEEEEN8nlohmann16json_abi_v3_12_010basic_jsonIS2_NS_6vectorES7_bxydS1_NS9_14adl_serializerENSB_IhNS1_IhEEEEvEENS_4lessIvEENS1_INS_4pairIKS7_SF_EEEEEEEEE9constructB8ne200100ISM_JEvLi0EEEvRSN_PT_DpOT0_
FNA:2,7,_ZNSt3__116allocator_traitsINS_9allocatorINS_3mapINS_12basic_stringIcNS_11char_traitsIcEENS1_IcEEEEN8nlohmann16json_abi_v3_12_010basic_jsonIS2_NS_6vectorES7_bxydS1_NS9_14adl_serializerENSB_IhNS1_IhEEEEvEENS_4lessIvEENS1_INS_4pairIKS7_SF_EEEEEEEEE9constructB8ne200100ISM_JNS_20__map_const_iteratorINS_21__tree_const_iteratorINS_12__value_typeIS7_S7_EEPNS_11__tree_nodeIST_PvEElEEEESZ_EvLi0EEEvRSN_PT_DpOT0_
FNA:2,0,_ZNSt3__116allocator_traitsINS_9allocatorINS_3mapINS_12basic_stringIcNS_11char_traitsIcEENS1_IcEEEEN8nlohmann16json_abi_v3_12_010basic_jsonIS2_NS_6vectorES7_bxydS1_NS9_14adl_serializerENSB_IhNS1_IhEEEEvEENS_4lessIvEENS1_INS_4pairIKS7_SF_EEEEEEEEE9constructB8ne200100ISM_JRKSM_EvLi0EEEvRSN_PT_DpOT0_
FNA:2,69,_ZNSt3__116allocator_traitsINS_9allocatorINS_4pairIN3p2p9detection12DeviceVendorEdEEEEE9constructB8ne200100IS6_JS6_EvLi0EEEvRS7_PT_DpOT0_
FNA:2,16,_ZNSt3__116allocator_traitsINS_9allocatorINS_4pairINS_6chrono10time_pointINS3_12steady_clockENS3_8durationIxNS_5ratioILl1ELl1000000000EEEEEEEmEEEEE9constructB8ne200100ISB_JSA_RmEvLi0EEEvRSC_PT_DpOT0_
FNA:2,10,_ZNSt3__116allocator_traitsINS_9allocatorINS_5arrayIhLm12EEEEEE9constructB8ne200100IS3_JRKS3_EvLi0EEEvRS4_PT_DpOT0_
FNA:2,4,_ZNSt3__116allocator_traitsINS_9allocatorINS_6threadEEEE9constructB8ne200100IS2_JRZN42BandwidthLimiterTest_ConcurrentAccess_Test8TestBodyEvE3$_0RiEvLi0EEEvRS3_PT_DpOT0_
FNA:2,221,_ZNSt3__116allocator_traitsINS_9allocatorINS_6threadEEEE9constructB8ne200100IS2_JS2_EvLi0EEEvRS3_PT_DpOT0_
FNA:2,100,_ZNSt3__116allocator_traitsINS_9allocatorINS_6threadEEEE9constructB8ne200100IS2_JZN29MultiClientTest_LoadTest_Test8TestBodyEvE3$_0EvLi0EEEvRS3_PT_DpOT0_
FNA:2,10,_ZNSt3__116allocator_traitsINS_9allocatorINS_6threadEEEE9constructB8ne200100IS2_JZN32MultiClientTest_MeshNetwork_Test8TestBodyEvE3$_0EvLi0EEEvRS3_PT_DpOT0_
FNA:2,10,_ZNSt3__116allocator_traitsINS_9allocatorINS_6threadEEEE9constructB8ne200100IS2_JZN41MultiClientTest_TenConcurrentClients_Test8TestBodyEvE3$_0EvLi0EEEvRS3_PT_DpOT0_
FNA:2,20,_ZNSt3__116allocator_traitsINS_9allocatorINS_6threadEEEE9constructB8ne200100IS2_JZN43MultiClientTest_ConcurrentStunBindings_Test8TestBodyEvE3$_0EvLi0EEEvRS3_PT_DpOT0_
FNA:2,15,_ZNSt3__116allocator_traitsINS_9allocatorINS_6threadEEEE9constructB8ne200100IS2_JZN46MultiClientTest_ConcurrentTurnAllocations_Test8TestBodyEvE3$_0EvLi0EEEvRS3_PT_DpOT0_
FNA:2,10,_ZNSt3__116allocator_traitsINS_9allocatorINS_6threadEEEE9constructB8ne200100IS2_JZN48AllocationManagerTest_ConcurrentAllocations_Test8TestBodyEvE3$_0EvLi0EEEvRS3_PT_DpOT0_
FNA:2,0,_ZNSt3__116allocator_traitsINS_9allocatorINS_6vectorIN8nlohmann16json_abi_v3_12_010basic_jsonINS_3mapES2_NS_12basic_stringIcNS_11char_traitsIcEENS1_IcEEEEbxydS1_NS4_14adl_serializerENS2_IhNS1_IhEEEEvEENS1_ISF_EEEEEEE9constructB8ne200100ISH_JEvLi0EEEvRSI_PT_DpOT0_
FNA:2,0,_ZNSt3__116allocator_traitsINS_9allocatorINS_6vectorIN8nlohmann16json_abi_v3_12_010basic_jsonINS_3mapES2_NS_12basic_stringIcNS_11char_traitsIcEENS1_IcEEEEbxydS1_NS4_14adl_serializerENS2_IhNS1_IhEEEEvEENS1_ISF_EEEEEEE9constructB8ne200100ISH_JRKSH_EvLi0EEEvRSI_PT_DpOT0_
FNA:2,13,_ZNSt3__116allocator_traitsINS_9allocatorINS_6vectorIhNS1_IhEEEEEEE9constructB8ne200100IS4_JRKS4_EvLi0EEEvRS5_PT_DpOT0_
FNA:2,0,_ZNSt3__116allocator_traitsINS_9allocatorINS_6vectorIhNS1_IhEEEEEEE9constructB8ne200100IS4_JiEvLi0EEEvRS5_PT_DpOT0_
FNA:2,0,_ZNSt3__116allocator_traitsINS_9allocatorIPN8nlohmann16json_abi_v3_12_010basic_jsonINS_3mapENS_6vectorENS_12basic_stringIcNS_11char_traitsIcEENS1_IcEEEEbxydS1_NS3_14adl_serializerENS6_IhNS1_IhEEEEvEEEEE9constructB8ne200100ISG_JRKSG_EvLi0EEEvRSH_PT_DpOT0_
FNA:2,25,_ZNSt3__116allocator_traitsINS_9allocatorIPN8nlohmann16json_abi_v3_12_010basic_jsonINS_3mapENS_6vectorENS_12basic_stringIcNS_11char_traitsIcEENS1_IcEEEEbxydS1_NS3_14adl_serializerENS6_IhNS1_IhEEEEvEEEEE9constructB8ne200100ISG_JSG_EvLi0EEEvRSH_PT_DpOT0_
FNA:2,0,_ZNSt3__116allocator_traitsINS_9allocatorIPNS_4pairINS_6chrono10time_pointINS3_12steady_clockENS3_8durationIxNS_5ratioILl1ELl1000000000EEEEEEEmEEEEE9constructB8ne200100ISC_JRSC_EvLi0EEEvRSD_PT_DpOT0_
FNA:2,5,_ZNSt3__116allocator_traitsINS_9allocatorIPNS_4pairINS_6chrono10time_pointINS3_12steady_clockENS3_8durationIxNS_5ratioILl1ELl1000000000EEEEEEEmEEEEE9constructB8ne200100ISC_JSC_EvLi0EEEvRSD_PT_DpOT0_
FNA:2,5592,_ZNSt3__116allocator_traitsINS_9allocatorIcEEE9constructB8ne200100IcJcEvLi0EEEvRS2_PT_DpOT0_
FNA:2,917937,_ZNSt3__116allocator_traitsINS_9allocatorIhEEE9constructB8ne200100IhJEvLi0EEEvRS2_PT_DpOT0_
FNA:2,80,_ZNSt3__116allocator_traitsINS_9allocatorIhEEE9constructB8ne200100IhJRKcEvLi0EEEvRS2_PT_DpOT0_
FNA:2,39872,_ZNSt3__116allocator_traitsINS_9allocatorIhEEE9constructB8ne200100IhJRKhEvLi0EEEvRS2_PT_DpOT0_
FNA:2,5621,_ZNSt3__116allocator_traitsINS_9allocatorIhEEE9constructB8ne200100IhJRcEvLi0EEEvRS2_PT_DpOT0_
FNA:2,352,_ZNSt3__116allocator_traitsINS_9allocatorIhEEE9constructB8ne200100IhJRhEvLi0EEEvRS2_PT_DpOT0_
FNA:2,668,_ZNSt3__116allocator_traitsINS_9allocatorIhEEE9constructB8ne200100IhJhEvLi0EEEvRS2_PT_DpOT0_
FNA:2,6,_ZNSt3__116allocator_traitsINS_9allocatorItEEE9constructB8ne200100ItJRKtEvLi0EEEvRS2_PT_DpOT0_
FNL:3,328,330
FNA:3,0,_ZNSt3__116allocator_traitsIN5boost4asio17execution_context9allocatorINS2_14config_serviceEEEE7destroyB8ne200100IS5_vLi0EEEvRS6_PT_
FNA:3,0,_ZNSt3__116allocator_traitsIN5boost4asio17execution_context9allocatorINS2_6detail12posix_thread4funcINS5_20resolver_thread_pool21work_scheduler_runnerENS4_IvEEEEEEE7destroyB8ne200100ISB_vLi0EEEvRSC_PT_
FNA:3,0,_ZNSt3__116allocator_traitsIN5boost4asio17execution_context9allocatorINS2_6detail12thread_groupINS4_IvEEE4itemEEEE7destroyB8ne200100IS9_vLi0EEEvRSA_PT_
FNA:3,32,_ZNSt3__116allocator_traitsIN5boost4asio17execution_context9allocatorINS2_6detail14kqueue_reactor16descriptor_stateEEEE7destroyB8ne200100IS7_vLi0EEEvRS8_PT_
FNA:3,21,_ZNSt3__116allocator_traitsIN5boost4asio17execution_context9allocatorINS2_6detail14kqueue_reactorEEEE7destroyB8ne200100IS6_vLi0EEEvRS7_PT_
FNA:3,0,_ZNSt3__116allocator_traitsIN5boost4asio17execution_context9allocatorINS2_6detail16resolver_serviceINS2_2ip3udpEEEEEE7destroyB8ne200100IS9_vLi0EEEvRSA_PT_
FNA:3,31,_ZNSt3__116allocator_traitsIN5boost4asio17execution_context9allocatorINS2_6detail16service_registryEEEE7destroyB8ne200100IS6_vLi0EEEvRS7_PT_
FNA:3,0,_ZNSt3__116allocator_traitsIN5boost4asio17execution_context9allocatorINS2_6detail20resolver_thread_poolEEEE7destroyB8ne200100IS6_vLi0EEEvRS7_PT_
FNA:3,7,_ZNSt3__116allocator_traitsIN5boost4asio17execution_context9allocatorINS2_6detail23reactive_socket_serviceINS2_2ip3tcpEEEEEE7destroyB8ne200100IS9_vLi0EEEvRSA_PT_
FNA:3,20,_ZNSt3__116allocator_traitsIN5boost4asio17execution_context9allocatorINS2_6detail23reactive_socket_serviceINS2_2ip3udpEEEEEE7destroyB8ne200100IS9_vLi0EEEvRSA_PT_
FNA:3,31,_ZNSt3__116allocator_traitsIN5boost4asio17execution_context9allocatorINS2_6detail36config_from_concurrency_hint_serviceEEEE7destroyB8ne200100IS6_vLi0EEEvRS7_PT_
FNA:3,31,_ZNSt3__116allocator_traitsIN5boost4asio17execution_context9allocatorINS2_6detail9schedulerEEEE7destroyB8ne200100IS6_vLi0EEEvRS7_PT_
FNA:3,0,_ZNSt3__116allocator_traitsINS_9allocatorIN3p2p3nat10STUNClientEEEE7destroyB8ne200100IS4_vLi0EEEvRS5_PT_
FNA:3,4,_ZNSt3__116allocator_traitsINS_9allocatorIN3p2p5relay13StunAttributeEEEE7destroyB8ne200100IS4_vLi0EEEvRS5_PT_
FNA:3,34,_ZNSt3__116allocator_traitsINS_9allocatorIN3p2p5relay14TurnAllocationEEEE7destroyB8ne200100IS4_vLi0EEEvRS5_PT_
FNA:3,4,_ZNSt3__116allocator_traitsINS_9allocatorIN3p2p5relay7AddressEEEE7destroyB8ne200100IS4_vLi0EEEvRS5_PT_
FNA:3,39,_ZNSt3__116allocator_traitsINS_9allocatorIN3p2p8protocol13StunAttributeEEEE7destroyB8ne200100IS4_vLi0EEEvRS5_PT_
FNA:3,14,_ZNSt3__116allocator_traitsINS_9allocatorIN3p2p9transport12UDPTransportEEEE7destroyB8ne200100IS4_vLi0EEEvRS5_PT_
FNA:3,31,_ZNSt3__116allocator_traitsINS_9allocatorIN5boost4asio17execution_context14allocator_implINS1_IvEEEEEEE7destroyB8ne200100IS7_vLi0EEEvRS8_PT_
FNA:3,7,_ZNSt3__116allocator_traitsINS_9allocatorIN5boost4asio19basic_stream_socketINS3_2ip3tcpENS3_15any_io_executorEEEEEE7destroyB8ne200100IS8_vLi0EEEvRS9_PT_
FNA:3,0,_ZNSt3__116allocator_traitsINS_9allocatorIN5boost4asio21basic_datagram_socketINS3_2ip3udpENS3_15any_io_executorEEEEEE7destroyB8ne200100IS8_vLi0EEEvRS9_PT_
FNA:3,0,_ZNSt3__116allocator_traitsINS_9allocatorIN5boost4asio2ip14basic_endpointINS4_3udpEEEEEE7destroyB8ne200100IS7_vLi0EEEvRS8_PT_
FNA:3,0,_ZNSt3__116allocator_traitsINS_9allocatorIN5boost4asio2ip14basic_resolverINS4_3udpENS3_15any_io_executorEEEEEE7destroyB8ne200100IS8_vLi0EEEvRS9_PT_
FNA:3,0,_ZNSt3__116allocator_traitsINS_9allocatorIN5boost4asio2ip20basic_resolver_entryINS4_3udpEEEEEE7destroyB8ne200100IS7_vLi0EEEvRS8_PT_
FNA:3,0,_ZNSt3__116allocator_traitsINS_9allocatorIN5boost4asio6detail12posix_thread4funcINS4_9scheduler15thread_functionENS1_IvEEEEEEE7destroyB8ne200100ISA_vLi0EEEvRSB_PT_
FNA:3,0,_ZNSt3__116allocator_traitsINS_9allocatorIN5boost4asio6detail12thread_groupINS1_IvEEE4itemEEEE7destroyB8ne200100IS8_vLi0EEEvRS9_PT_
FNA:3,266,_ZNSt3__116allocator_traitsINS_9allocatorIN8nlohmann16json_abi_v3_12_010basic_jsonINS_3mapENS_6vectorENS_12basic_stringIcNS_11char_traitsIcEENS1_IcEEEEbxydS1_NS3_14adl_serializerENS6_IhNS1_IhEEEEvEEEEE7destroyB8ne200100ISF_vLi0EEEvRSG_PT_
FNA:3,0,_ZNSt3__116allocator_traitsINS_9allocatorIN8nlohmann16json_abi_v3_12_027byte_container_with_subtypeINS_6vectorIhNS1_IhEEEEEEEEE7destroyB8ne200100IS8_vLi0EEEvRS9_PT_
FNA:3,19,_ZNSt3__116allocator_traitsINS_9allocatorIN8nlohmann16json_abi_v3_12_06detail21output_string_adapterIcNS_12basic_stringIcNS_11char_traitsIcEENS1_IcEEEEEEEEE7destroyB8ne200100ISB_vLi0EEEvRSC_PT_
FNA:3,10,_ZNSt3__116allocator_traitsINS_9allocatorINS_10shared_ptrIN3p2p5relay14TurnAllocationEEEEEE7destroyB8ne200100IS6_vLi0EEEvRS7_PT_
FNA:3,50,_ZNSt3__116allocator_traitsINS_9allocatorINS_10unique_ptrIN3p2p7testing10TestClientENS_14default_deleteIS5_EEEEEEE7destroyB8ne200100IS8_vLi0EEEvRS9_PT_
FNA:3,1,_ZNSt3__116allocator_traitsINS_9allocatorINS_11__hash_nodeINS_12basic_stringIcNS_11char_traitsIcEENS1_IcEEEEPvEEEEE7destroyB8ne200100IS7_vLi0EEEvRSA_PT_
FNA:3,13,_ZNSt3__116allocator_traitsINS_9allocatorINS_11__hash_nodeINS_17__hash_value_typeINS_12basic_stringIcNS_11char_traitsIcEENS1_IcEEEEN3p2p5relay14BandwidthStatsEEEPvEEEEE7destroyB8ne200100INS_4pairIKS8_SB_EEvLi0EEEvRSF_PT_
FNA:3,13,_ZNSt3__116allocator_traitsINS_9allocatorINS_11__hash_nodeINS_17__hash_value_typeINS_12basic_stringIcNS_11char_traitsIcEENS1_IcEEEEN3p2p5relay16BandwidthLimiter18AllocationLimitersEEEPvEEEEE7destroyB8ne200100INS_4pairIKS8_SC_EEvLi0EEEvRSG_PT_
FNA:3,34,_ZNSt3__116allocator_traitsINS_9allocatorINS_11__hash_nodeINS_17__hash_value_typeINS_12basic_stringIcNS_11char_traitsIcEENS1_IcEEEENS_10shared_ptrIN3p2p5relay14TurnAllocationEEEEEPvEEEEE7destroyB8ne200100INS_4pairIKS8_SD_EEvLi0EEEvRSH_PT_
FNA:3,68,_ZNSt3__116allocator_traitsINS_9allocatorINS_11__hash_nodeINS_17__hash_value_typeINS_12basic_stringIcNS_11char_traitsIcEENS1_IcEEEES8_EEPvEEEEE7destroyB8ne200100INS_4pairIKS8_S8_EEvLi0EEEvRSC_PT_
FNA:3,180,_ZNSt3__116allocator_traitsINS_9allocatorINS_11__tree_nodeINS_12__value_typeIN3p2p9detection12DeviceVendorENS5_13DeviceProfileEEEPvEEEEE7destroyB8ne200100INS_4pairIKS6_S7_EEvLi0EEEvRSB_PT_
FNA:3,266,_ZNSt3__116allocator_traitsINS_9allocatorINS_11__tree_nodeINS_12__value_typeINS_12basic_stringIcNS_11char_traitsIcEENS1_IcEEEEN8nlohmann16json_abi_v3_12_010basic_jsonINS_3mapENS_6vectorES8_bxydS1_NSA_14adl_serializerENSD_IhNS1_IhEEEEvEEEEPvEEEEE7destroyB8ne200100INS_4pairIKS8_SH_EEvLi0EEEvRSL_PT_
FNA:3,36,_ZNSt3__116allocator_traitsINS_9allocatorINS_11__tree_nodeINS_12__value_typeINS_12basic_stringIcNS_11char_traitsIcEENS1_IcEEEES8_EEPvEEEEE7destroyB8ne200100INS_4pairIKS8_S8_EEvLi0EEEvRSC_PT_
FNA:3,182,_ZNSt3__116allocator_traitsINS_9allocatorINS_12basic_stringIcNS_11char_traitsIcEENS1_IcEEEEEEE7destroyB8ne200100IS6_vLi0EEEvRS7_PT_
FNA:3,51,_ZNSt3__116allocator_traitsINS_9allocatorINS_3mapINS_12basic_stringIcNS_11char_traitsIcEENS1_IcEEEEN8nlohmann16json_abi_v3_12_010basic_jsonIS2_NS_6vectorES7_bxydS1_NS9_14adl_serializerENSB_IhNS1_IhEEEEvEENS_4lessIvEENS1_INS_4pairIKS7_SF_EEEEEEEEE7destroyB8ne200100ISM_vLi0EEEvRSN_PT_
FNA:3,69,_ZNSt3__116allocator_traitsINS_9allocatorINS_4pairIN3p2p9detection12DeviceVendorEdEEEEE7destroyB8ne200100IS6_vLi0EEEvRS7_PT_
FNA:3,16,_ZNSt3__116allocator_traitsINS_9allocatorINS_4pairINS_6chrono10time_pointINS3_12steady_clockENS3_8durationIxNS_5ratioILl1ELl1000000000EEEEEEEmEEEEE7destroyB8ne200100ISB_vLi0EEEvRSC_PT_
FNA:3,10,_ZNSt3__116allocator_traitsINS_9allocatorINS_5arrayIhLm12EEEEEE7destroyB8ne200100IS3_vLi0EEEvRS4_PT_
FNA:3,390,_ZNSt3__116allocator_traitsINS_9allocatorINS_6threadEEEE7destroyB8ne200100IS2_vLi0EEEvRS3_PT_
FNA:3,0,_ZNSt3__116allocator_traitsINS_9allocatorINS_6vectorIN8nlohmann16json_abi_v3_12_010basic_jsonINS_3mapES2_NS_12basic_stringIcNS_11char_traitsIcEENS1_IcEEEEbxydS1_NS4_14adl_serializerENS2_IhNS1_IhEEEEvEENS1_ISF_EEEEEEE7destroyB8ne200100ISH_vLi0EEEvRSI_PT_
FNA:3,13,_ZNSt3__116allocator_traitsINS_9allocatorINS_6vectorIhNS1_IhEEEEEEE7destroyB8ne200100IS4_vLi0EEEvRS5_PT_
FNA:3,25,_ZNSt3__116allocator_traitsINS_9allocatorIPN8nlohmann16json_abi_v3_12_010basic_jsonINS_3mapENS_6vectorENS_12basic_stringIcNS_11char_traitsIcEENS1_IcEEEEbxydS1_NS3_14adl_serializerENS6_IhNS1_IhEEEEvEEEEE7destroyB8ne200100ISG_vLi0EEEvRSH_PT_
FNA:3,5,_ZNSt3__116allocator_traitsINS_9allocatorIPNS_4pairINS_6chrono10time_pointINS3_12steady_clockENS3_8durationIxNS_5ratioILl1ELl1000000000EEEEEEEmEEEEE7destroyB8ne200100ISC_vLi0EEEvRSD_PT_
FNA:3,5592,_ZNSt3__116allocator_traitsINS_9allocatorIcEEE7destroyB8ne200100IcvLi0EEEvRS2_PT_
FNA:3,920649,_ZNSt3__116allocator_traitsINS_9allocatorIhEEE7destroyB8ne200100IhvLi0EEEvRS2_PT_
FNA:3,6,_ZNSt3__116allocator_traitsINS_9allocatorItEEE7destroyB8ne200100ItvLi0EEEvRS2_PT_
FNL:4,339,340
FNA:4,6,_ZNSt3__116allocator_traitsINS_9allocatorIN3p2p5relay13StunAttributeEEEE8max_sizeB8ne200100IS5_vLi0EEEmRKS5_
FNA:4,2,_ZNSt3__116allocator_traitsINS_9allocatorIN3p2p5relay7AddressEEEE8max_sizeB8ne200100IS5_vLi0EEEmRKS5_
FNA:4,74,_ZNSt3__116allocator_traitsINS_9allocatorIN3p2p8protocol13StunAttributeEEEE8max_sizeB8ne200100IS5_vLi0EEEmRKS5_
FNA:4,31,_ZNSt3__116allocator_traitsINS_9allocatorIN5boost4asio17execution_context14allocator_implINS1_IvEEEEEEE8max_sizeB8ne200100IS8_vLi0EEEmRKS8_
FNA:4,0,_ZNSt3__116allocator_traitsINS_9allocatorIN5boost4asio2ip20basic_resolver_entryINS4_3udpEEEEEE8max_sizeB8ne200100IS8_vLi0EEEmRKS8_
FNA:4,0,_ZNSt3__116allocator_traitsINS_9allocatorIN5boost4asio6detail12posix_thread4funcINS4_9scheduler15thread_functionENS1_IvEEEEEEE8max_sizeB8ne200100ISB_vLi0EEEmRKSB_
FNA:4,72,_ZNSt3__116allocator_traitsINS_9allocatorIN8nlohmann16json_abi_v3_12_010basic_jsonINS_3mapENS_6vectorENS_12basic_stringIcNS_11char_traitsIcEENS1_IcEEEEbxydS1_NS3_14adl_serializerENS6_IhNS1_IhEEEEvEEEEE8max_sizeB8ne200100ISG_vLi0EEEmRKSG_
FNA:4,0,_ZNSt3__116allocator_traitsINS_9allocatorIN8nlohmann16json_abi_v3_12_027byte_container_with_subtypeINS_6vectorIhNS1_IhEEEEEEEEE8max_sizeB8ne200100IS9_vLi0EEEmRKS9_
FNA:4,0,_ZNSt3__116allocator_traitsINS_9allocatorINS_10__function6__funcIZN33UDPTransportTest_LargePacket_Test8TestBodyEvE3$_0NS1_IS5_EEFvRKNS_6vectorIhNS1_IhEEEERKN5boost4asio2ip14basic_endpointINSE_3udpEEEEEEEEE8max_sizeB8ne200100ISM_vLi0EEEmRKSM_
FNA:4,0,_ZNSt3__116allocator_traitsINS_9allocatorINS_10__function6__funcIZN33UDPTransportTest_LargePacket_Test8TestBodyEvE3$_1NS1_IS5_EEFvRKNS_10error_codeEEEEEEE8max_sizeB8ne200100ISC_vLi0EEEmRKSC_
FNA:4,2,_ZNSt3__116allocator_traitsINS_9allocatorINS_10__function6__funcIZN33UDPTransportTest_SendReceive_Test8TestBodyEvE3$_0NS1_IS5_EEFvRKNS_6vectorIhNS1_IhEEEERKN5boost4asio2ip14basic_endpointINSE_3udpEEEEEEEEE8max_sizeB8ne200100ISM_vLi0EEEmRKSM_
FNA:4,0,_ZNSt3__116allocator_traitsINS_9allocatorINS_10__function6__funcIZN33UDPTransportTest_SendReceive_Test8TestBodyEvE3$_1NS1_IS5_EEFvRKNS_10error_codeEEEEEEE8max_sizeB8ne200100ISC_vLi0EEEmRKSC_
FNA:4,0,_ZNSt3__116allocator_traitsINS_9allocatorINS_10__function6__funcIZN34UDPTransportTest_SendWithPeer_Test8TestBodyEvE3$_0NS1_IS5_EEFvRKNS_6vectorIhNS1_IhEEEERKN5boost4asio2ip14basic_endpointINSE_3udpEEEEEEEEE8max_sizeB8ne200100ISM_vLi0EEEmRKSM_
FNA:4,0,_ZNSt3__116allocator_traitsINS_9allocatorINS_10__function6__funcIZN34UDPTransportTest_SendWithPeer_Test8TestBodyEvE3$_1NS1_IS5_EEFvRKNS_10error_codeEEEEEEE8max_sizeB8ne200100ISC_vLi0EEEmRKSC_
FNA:4,0,_ZNSt3__116allocator_traitsINS_9allocatorINS_10__function6__funcIZN35UDPTransportTest_SendAfterStop_Test8TestBodyEvE3$_0NS1_IS5_EEFvRKNS_10error_codeEEEEEEE8max_sizeB8ne200100ISC_vLi0EEEmRKSC_
FNA:4,0,_ZNSt3__116allocator_traitsINS_9allocatorINS_10__function6__funcIZN37UDPTransportTest_SendWithoutPeer_Test8TestBodyEvE3$_0NS1_IS5_EEFvRKNS_10error_codeEEEEEEE8max_sizeB8ne200100ISC_vLi0EEEmRKSC_
FNA:4,0,_ZNSt3__116allocator_traitsINS_9allocatorINS_10__function6__funcIZN38UDPTransportTest_MultipleMessages_Test8TestBodyEvE3$_0NS1_IS5_EEFvRKNS_6vectorIhNS1_IhEEEERKN5boost4asio2ip14basic_endpointINSE_3udpEEEEEEEEE8max_sizeB8ne200100ISM_vLi0EEEmRKSM_
FNA:4,0,_ZNSt3__116allocator_traitsINS_9allocatorINS_10__function6__funcIZN38UDPTransportTest_MultipleMessages_Test8TestBodyEvE3$_1NS1_IS5_EEFvRKNS_10error_codeEEEEEEE8max_sizeB8ne200100ISC_vLi0EEEmRKSC_
FNA:4,0,_ZNSt3__116allocator_traitsINS_9allocatorINS_10__function6__funcIZN3p2p3nat15detect_nat_typeERN5boost4asio10io_contextERKNS_12basic_stringIcNS_11char_traitsIcEENS1_IcEEEEtNS_8functionIFvRKNS5_18NATDetectionResultEEEEE3$_0NS1_ISN_EEFvNS_8optionalISE_EENSP_ItEEEEEEEE8max_sizeB8ne200100ISU_vLi0EEEmRKSU_
FNA:4,2,_ZNSt3__116allocator_traitsINS_9allocatorINS_10shared_ptrIN3p2p5relay14TurnAllocationEEEEEE8max_sizeB8ne200100IS7_vLi0EEEmRKS7_
FNA:4,40,_ZNSt3__116allocator_traitsINS_9allocatorINS_10unique_ptrIN3p2p7testing10TestClientENS_14default_deleteIS5_EEEEEEE8max_sizeB8ne200100IS9_vLi0EEEmRKS9_
FNA:4,1,_ZNSt3__116allocator_traitsINS_9allocatorINS_11__hash_nodeINS_12basic_stringIcNS_11char_traitsIcEENS1_IcEEEEPvEEEEE8max_sizeB8ne200100ISA_vLi0EEEmRKSA_
FNA:4,13,_ZNSt3__116allocator_traitsINS_9allocatorINS_11__hash_nodeINS_17__hash_value_typeINS_12basic_stringIcNS_11char_traitsIcEENS1_IcEEEEN3p2p5relay14BandwidthStatsEEEPvEEEEE8max_sizeB8ne200100ISF_vLi0EEEmRKSF_
FNA:4,13,_ZNSt3__116allocator_traitsINS_9allocatorINS_11__hash_nodeINS_17__hash_value_typeINS_12basic_stringIcNS_11char_traitsIcEENS1_IcEEEEN3p2p5relay16BandwidthLimiter18AllocationLimitersEEEPvEEEEE8max_sizeB8ne200100ISG_vLi0EEEmRKSG_
FNA:4,34,_ZNSt3__116allocator_traitsINS_9allocatorINS_11__hash_nodeINS_17__hash_value_typeINS_12basic_stringIcNS_11char_traitsIcEENS1_IcEEEENS_10shared_ptrIN3p2p5relay14TurnAllocationEEEEEPvEEEEE8max_sizeB8ne200100ISH_vLi0EEEmRKSH_
FNA:4,68,_ZNSt3__116allocator_traitsINS_9allocatorINS_11__hash_nodeINS_17__hash_value_typeINS_12basic_stringIcNS_11char_traitsIcEENS1_IcEEEES8_EEPvEEEEE8max_sizeB8ne200100ISC_vLi0EEEmRKSC_
FNA:4,180,_ZNSt3__116allocator_traitsINS_9allocatorINS_11__tree_nodeINS_12__value_typeIN3p2p9detection12DeviceVendorENS5_13DeviceProfileEEEPvEEEEE8max_sizeB8ne200100ISB_vLi0EEEmRKSB_
FNA:4,266,_ZNSt3__116allocator_traitsINS_9allocatorINS_11__tree_nodeINS_12__value_typeINS_12basic_stringIcNS_11char_traitsIcEENS1_IcEEEEN8nlohmann16json_abi_v3_12_010basic_jsonINS_3mapENS_6vectorES8_bxydS1_NSA_14adl_serializerENSD_IhNS1_IhEEEEvEEEEPvEEEEE8max_sizeB8ne200100ISL_vLi0EEEmRKSL_
FNA:4,36,_ZNSt3__116allocator_traitsINS_9allocatorINS_11__tree_nodeINS_12__value_typeINS_12basic_stringIcNS_11char_traitsIcEENS1_IcEEEES8_EEPvEEEEE8max_sizeB8ne200100ISC_vLi0EEEmRKSC_
FNA:4,179,_ZNSt3__116allocator_traitsINS_9allocatorINS_12basic_stringIcNS_11char_traitsIcEENS1_IcEEEEEEE8max_sizeB8ne200100IS7_vLi0EEEmRKS7_
FNA:4,0,_ZNSt3__116allocator_traitsINS_9allocatorINS_20__shared_ptr_emplaceIN3p2p3nat10STUNClientENS1_IS5_EEEEEEE8max_sizeB8ne200100IS8_vLi0EEEmRKS8_
FNA:4,34,_ZNSt3__116allocator_traitsINS_9allocatorINS_20__shared_ptr_emplaceIN3p2p5relay14TurnAllocationENS1_IS5_EEEEEEE8max_sizeB8ne200100IS8_vLi0EEEmRKS8_
FNA:4,14,_ZNSt3__116allocator_traitsINS_9allocatorINS_20__shared_ptr_emplaceIN3p2p9transport12UDPTransportENS1_IS5_EEEEEEE8max_sizeB8ne200100IS8_vLi0EEEmRKS8_
FNA:4,7,_ZNSt3__116allocator_traitsINS_9allocatorINS_20__shared_ptr_emplaceIN5boost4asio19basic_stream_socketINS4_2ip3tcpENS4_15any_io_executorEEENS1_IS9_EEEEEEE8max_sizeB8ne200100ISC_vLi0EEEmRKSC_
FNA:4,0,_ZNSt3__116allocator_traitsINS_9allocatorINS_20__shared_ptr_emplaceIN5boost4asio21basic_datagram_socketINS4_2ip3udpENS4_15any_io_executorEEENS1_IS9_EEEEEEE8max_sizeB8ne200100ISC_vLi0EEEmRKSC_
FNA:4,0,_ZNSt3__116allocator_traitsINS_9allocatorINS_20__shared_ptr_emplaceIN5boost4asio2ip14basic_endpointINS5_3udpEEENS1_IS8_EEEEEEE8max_sizeB8ne200100ISB_vLi0EEEmRKSB_
FNA:4,0,_ZNSt3__116allocator_traitsINS_9allocatorINS_20__shared_ptr_emplaceIN5boost4asio2ip14basic_resolverINS5_3udpENS4_15any_io_executorEEENS1_IS9_EEEEEEE8max_sizeB8ne200100ISC_vLi0EEEmRKSC_
FNA:4,19,_ZNSt3__116allocator_traitsINS_9allocatorINS_20__shared_ptr_emplaceIN8nlohmann16json_abi_v3_12_06detail21output_string_adapterIcNS_12basic_stringIcNS_11char_traitsIcEENS1_IcEEEEEENS1_ISC_EEEEEEE8max_sizeB8ne200100ISF_vLi0EEEmRKSF_
FNA:4,13,_ZNSt3__116allocator_traitsINS_9allocatorINS_20__shared_ptr_emplaceINS_6vectorIhNS1_IhEEEENS1_IS5_EEEEEEE8max_sizeB8ne200100IS8_vLi0EEEmRKS8_
FNA:4,51,_ZNSt3__116allocator_traitsINS_9allocatorINS_3mapINS_12basic_stringIcNS_11char_traitsIcEENS1_IcEEEEN8nlohmann16json_abi_v3_12_010basic_jsonIS2_NS_6vectorES7_bxydS1_NS9_14adl_serializerENSB_IhNS1_IhEEEEvEENS_4lessIvEENS1_INS_4pairIKS7_SF_EEEEEEEEE8max_sizeB8ne200100ISN_vLi0EEEmRKSN_
FNA:4,56,_ZNSt3__116allocator_traitsINS_9allocatorINS_4pairIN3p2p9detection12DeviceVendorEdEEEEE8max_sizeB8ne200100IS7_vLi0EEEmRKS7_
FNA:4,5,_ZNSt3__116allocator_traitsINS_9allocatorINS_4pairINS_6chrono10time_pointINS3_12steady_clockENS3_8durationIxNS_5ratioILl1ELl1000000000EEEEEEEmEEEEE8max_sizeB8ne200100ISC_vLi0EEEmRKSC_
FNA:4,10,_ZNSt3__116allocator_traitsINS_9allocatorINS_5arrayIhLm12EEEEEE8max_sizeB8ne200100IS4_vLi0EEEmRKS4_
FNA:4,74,_ZNSt3__116allocator_traitsINS_9allocatorINS_6threadEEEE8max_sizeB8ne200100IS3_vLi0EEEmRKS3_
FNA:4,0,_ZNSt3__116allocator_traitsINS_9allocatorINS_6vectorIN8nlohmann16json_abi_v3_12_010basic_jsonINS_3mapES2_NS_12basic_stringIcNS_11char_traitsIcEENS1_IcEEEEbxydS1_NS4_14adl_serializerENS2_IhNS1_IhEEEEvEENS1_ISF_EEEEEEE8max_sizeB8ne200100ISI_vLi0EEEmRKSI_
FNA:4,50,_ZNSt3__116allocator_traitsINS_9allocatorIPN8nlohmann16json_abi_v3_12_010basic_jsonINS_3mapENS_6vectorENS_12basic_stringIcNS_11char_traitsIcEENS1_IcEEEEbxydS1_NS3_14adl_serializerENS6_IhNS1_IhEEEEvEEEEE8max_sizeB8ne200100ISH_vLi0EEEmRKSH_
FNA:4,1,_ZNSt3__116allocator_traitsINS_9allocatorIPNS_16__hash_node_baseIPNS_11__hash_nodeINS_12basic_stringIcNS_11char_traitsIcEENS1_IcEEEEPvEEEEEEE8max_sizeB8ne200100ISE_vLi0EEEmRKSE_
FNA:4,9,_ZNSt3__116allocator_traitsINS_9allocatorIPNS_16__hash_node_baseIPNS_11__hash_nodeINS_17__hash_value_typeINS_12basic_stringIcNS_11char_traitsIcEENS1_IcEEEEN3p2p5relay14BandwidthStatsEEEPvEEEEEEE8max_sizeB8ne200100ISJ_vLi0EEEmRKSJ_
FNA:4,9,_ZNSt3__116allocator_traitsINS_9allocatorIPNS_16__hash_node_baseIPNS_11__hash_nodeINS_17__hash_value_typeINS_12basic_stringIcNS_11char_traitsIcEENS1_IcEEEEN3p2p5relay16BandwidthLimiter18AllocationLimitersEEEPvEEEEEEE8max_sizeB8ne200100ISK_vLi0EEEmRKSK_
FNA:4,22,_ZNSt3__116allocator_traitsINS_9allocatorIPNS_16__hash_node_baseIPNS_11__hash_nodeINS_17__hash_value_typeINS_12basic_stringIcNS_11char_traitsIcEENS1_IcEEEENS_10shared_ptrIN3p2p5relay14TurnAllocationEEEEEPvEEEEEEE8max_sizeB8ne200100ISL_vLi0EEEmRKSL_
FNA:4,44,_ZNSt3__116allocator_traitsINS_9allocatorIPNS_16__hash_node_baseIPNS_11__hash_nodeINS_17__hash_value_typeINS_12basic_stringIcNS_11char_traitsIcEENS1_IcEEEES9_EEPvEEEEEEE8max_sizeB8ne200100ISG_vLi0EEEmRKSG_
FNA:4,5,_ZNSt3__116allocator_traitsINS_9allocatorIPNS_4pairINS_6chrono10time_pointINS3_12steady_clockENS3_8durationIxNS_5ratioILl1ELl1000000000EEEEEEEmEEEEE8max_sizeB8ne200100ISD_vLi0EEEmRKSD_
FNA:4,462,_ZNSt3__116allocator_traitsINS_9allocatorIcEEE8max_sizeB8ne200100IS2_vLi0EEEmRKS2_
FNA:4,1117,_ZNSt3__116allocator_traitsINS_9allocatorIhEEE8max_sizeB8ne200100IS2_vLi0EEEmRKS2_
FNA:4,68,_ZNSt3__116allocator_traitsINS_9allocatorImEEE8max_sizeB8ne200100IS2_vLi0EEEmRKS2_
FNA:4,8,_ZNSt3__116allocator_traitsINS_9allocatorItEEE8max_sizeB8ne200100IS2_vLi0EEEmRKS2_
FNL:5,352,353
FNA:5,0,_ZNSt3__116allocator_traitsINS_9allocatorIN8nlohmann16json_abi_v3_12_010basic_jsonINS_3mapENS_6vectorENS_12basic_stringIcNS_11char_traitsIcEENS1_IcEEEEbxydS1_NS3_14adl_serializerENS6_IhNS1_IhEEEEvEEEEE37select_on_container_copy_constructionB8ne200100ISG_vLi0EEESG_RKSG_
FNA:5,0,_ZNSt3__116allocator_traitsINS_9allocatorINS_11__tree_nodeINS_12__value_typeINS_12basic_stringIcNS_11char_traitsIcEENS1_IcEEEEN8nlohmann16json_abi_v3_12_010basic_jsonINS_3mapENS_6vectorES8_bxydS1_NSA_14adl_serializerENSD_IhNS1_IhEEEEvEEEEPvEEEEE37select_on_container_copy_constructionB8ne200100ISL_vLi0EEESL_RKSL_
FNA:5,116,_ZNSt3__116allocator_traitsINS_9allocatorIcEEE37select_on_container_copy_constructionB8ne200100IS2_vLi0EEES2_RKS2_
FNA:5,19,_ZNSt3__116allocator_traitsINS_9allocatorIhEEE37select_on_container_copy_constructionB8ne200100IS2_vLi0EEES2_RKS2_
FNF:6
FNH:6
DA:269,1371
DA:270,1371
DA:301,2224
DA:302,2224
DA:303,2224
DA:317,971909
DA:318,971909
DA:319,971909
DA:328,928270
DA:329,928270
DA:330,928270
DA:339,3097
DA:340,3097
DA:352,135
DA:353,135
LF:15
LH:15
end_of_record
TN:
SF:/Library/Developer/CommandLineTools/SDKs/MacOSX.sdk/usr/include/c++/v1/__memory/compressed_pair.h
FNL:0,69,70
FNA:0,1,_ZNSt3__125__compressed_pair_paddingINS_22__hash_node_destructorINS_9allocatorINS_11__hash_nodeINS_12basic_stringIcNS_11char_traitsIcEENS2_IcEEEEPvEEEEEELb0EEC1Ev
FNA:0,1,_ZNSt3__125__compressed_pair_paddingINS_22__hash_node_destructorINS_9allocatorINS_11__hash_nodeINS_12basic_stringIcNS_11char_traitsIcEENS2_IcEEEEPvEEEEEELb0EEC2Ev
FNA:0,14,_ZNSt3__125__compressed_pair_paddingINS_22__hash_node_destructorINS_9allocatorINS_11__hash_nodeINS_17__hash_value_typeINS_12basic_stringIcNS_11char_traitsIcEENS2_IcEEEEN3p2p5relay14BandwidthStatsEEEPvEEEEEELb0EEC1Ev
FNA:0,14,_ZNSt3__125__compressed_pair_paddingINS_22__hash_node_destructorINS_9allocatorINS_11__hash_nodeINS_17__hash_value_typeINS_12basic_stringIcNS_11char_traitsIcEENS2_IcEEEEN3p2p5relay14BandwidthStatsEEEPvEEEEEELb0EEC2Ev
FNA:0,14,_ZNSt3__125__compressed_pair_paddingINS_22__hash_node_destructorINS_9allocatorINS_11__hash_nodeINS_17__hash_value_typeINS_12basic_stringIcNS_11char_traitsIcEENS2_IcEEEEN3p2p5relay16BandwidthLimiter18AllocationLimitersEEEPvEEEEEELb0EEC1Ev
FNA:0,14,_ZNSt3__125__compressed_pair_paddingINS_22__hash_node_destructorINS_9allocatorINS_11__hash_nodeINS_17__hash_value_typeINS_12basic_stringIcNS_11char_traitsIcEENS2_IcEEEEN3p2p5relay16BandwidthLimiter18AllocationLimitersEEEPvEEEEEELb0EEC2Ev
FNA:0,36,_ZNSt3__125__compressed_pair_paddingINS_22__hash_node_destructorINS_9allocatorINS_11__hash_nodeINS_17__hash_value_typeINS_12basic_stringIcNS_11char_traitsIcEENS2_IcEEEENS_10shared_ptrIN3p2p5relay14TurnAllocationEEEEEPvEEEEEELb0EEC1Ev
FNA:0,36,_ZNSt3__125__compressed_pair_paddingINS_22__hash_node_destructorINS_9allocatorINS_11__hash_nodeINS_17__hash_value_typeINS_12basic_stringIcNS_11char_traitsIcEENS2_IcEEEENS_10shared_ptrIN3p2p5relay14TurnAllocationEEEEEPvEEEEEELb0EEC2Ev
FNA:0,72,_ZNSt3__125__compressed_pair_paddingINS_22__hash_node_destructorINS_9allocatorINS_11__hash_nodeINS_17__hash_value_typeINS_12basic_stringIcNS_11char_traitsIcEENS2_IcEEEES9_EEPvEEEEEELb0EEC1Ev
FNA:0,72,_ZNSt3__125__compressed_pair_paddingINS_22__hash_node_destructorINS_9allocatorINS_11__hash_nodeINS_17__hash_value_typeINS_12basic_stringIcNS_11char_traitsIcEENS2_IcEEEES9_EEPvEEEEEELb0EEC2Ev
FNA:0,180,_ZNSt3__125__compressed_pair_paddingINS_22__tree_node_destructorINS_9allocatorINS_11__tree_nodeINS_12__value_typeIN3p2p9detection12DeviceVendorENS6_13DeviceProfileEEEPvEEEEEELb0EEC1Ev
FNA:0,180,_ZNSt3__125__compressed_pair_paddingINS_22__tree_node_destructorINS_9allocatorINS_11__tree_nodeINS_12__value_typeIN3p2p9detection12DeviceVendorENS6_13DeviceProfileEEEPvEEEEEELb0EEC2Ev
FNA:0,266,_ZNSt3__125__compressed_pair_paddingINS_22__tree_node_destructorINS_9allocatorINS_11__tree_nodeINS_12__value_typeINS_12basic_stringIcNS_11char_traitsIcEENS2_IcEEEEN8nlohmann16json_abi_v3_12_010basic_jsonINS_3mapENS_6vectorES9_bxydS2_NSB_14adl_serializerENSE_IhNS2_IhEEEEvEEEEPvEEEEEELb0EEC1Ev
FNA:0,266,_ZNSt3__125__compressed_pair_paddingINS_22__tree_node_destructorINS_9allocatorINS_11__tree_nodeINS_12__value_typeINS_12basic_stringIcNS_11char_traitsIcEENS2_IcEEEEN8nlohmann16json_abi_v3_12_010basic_jsonINS_3mapENS_6vectorES9_bxydS2_NSB_14adl_serializerENSE_IhNS2_IhEEEEvEEEEPvEEEEEELb0EEC2Ev
FNA:0,36,_ZNSt3__125__compressed_pair_paddingINS_22__tree_node_destructorINS_9allocatorINS_11__tree_nodeINS_12__value_typeINS_12basic_stringIcNS_11char_traitsIcEENS2_IcEEEES9_EEPvEEEEEELb0EEC1Ev
FNA:0,36,_ZNSt3__125__compressed_pair_paddingINS_22__tree_node_destructorINS_9allocatorINS_11__tree_nodeINS_12__value_typeINS_12basic_stringIcNS_11char_traitsIcEENS2_IcEEEES9_EEPvEEEEEELb0EEC2Ev
FNF:1
FNH:1
DA:69,619
DA:70,619
LF:2
LH:2
end_of_record
TN:
SF:/Library/Developer/CommandLineTools/SDKs/MacOSX.sdk/usr/include/c++/v1/__memory/construct_at.h
FNL:0,38,41
FNA:0,0,_ZNSt3__112construct_atB8ne200100IN3p2p3nat10STUNClientEJRN5boost4asio10io_contextERKNS_12basic_stringIcNS_11char_traitsIcEENS_9allocatorIcEEEERtEPS3_EEPT_SJ_DpOT0_
FNA:0,0,_ZNSt3__112construct_atB8ne200100IN3p2p5relay13StunAttributeEJNS2_13AttributeTypeENS_6vectorIhNS_9allocatorIhEEEEEPS3_EEPT_SB_DpOT0_
FNA:0,3,_ZNSt3__112construct_atB8ne200100IN3p2p5relay13StunAttributeEJRNS2_13AttributeTypeENS_6vectorIhNS_9allocatorIhEEEEEPS3_EEPT_SC_DpOT0_
FNA:0,1,_ZNSt3__112construct_atB8ne200100IN3p2p5relay13StunAttributeEJS3_EPS3_EEPT_S6_DpOT0_
FNA:0,34,_ZNSt3__112construct_atB8ne200100IN3p2p5relay14TurnAllocationEJRNS_12basic_stringIcNS_11char_traitsIcEENS_9allocatorIcEEEERKNS2_7AddressERSB_RjRNS2_17TransportProtocolEEPS3_EEPT_SK_DpOT0_
FNA:0,4,_ZNSt3__112construct_atB8ne200100IN3p2p5relay7AddressEJRKS3_EPS3_EEPT_S8_DpOT0_
FNA:0,39,_ZNSt3__112construct_atB8ne200100IN3p2p8protocol13StunAttributeEJS3_EPS3_EEPT_S6_DpOT0_
FNA:0,14,_ZNSt3__112construct_atB8ne200100IN3p2p9transport12UDPTransportEJRN5boost4asio10io_contextEiEPS3_EEPT_SA_DpOT0_
FNA:0,7,_ZNSt3__112construct_atB8ne200100IN5boost4asio19basic_stream_socketINS2_2ip3tcpENS2_15any_io_executorEEEJRNS2_10io_contextEEPS7_EEPT_SC_DpOT0_
FNA:0,0,_ZNSt3__112construct_atB8ne200100IN5boost4asio21basic_datagram_socketINS2_2ip3udpENS2_15any_io_executorEEEJRNS2_10io_contextEEPS7_EEPT_SC_DpOT0_
FNA:0,0,_ZNSt3__112construct_atB8ne200100IN5boost4asio2ip14basic_endpointINS3_3udpEEEJEPS6_EEPT_S9_DpOT0_
FNA:0,0,_ZNSt3__112construct_atB8ne200100IN5boost4asio2ip14basic_resolverINS3_3udpENS2_15any_io_executorEEEJRNS2_10io_contextEEPS7_EEPT_SC_DpOT0_
FNA:0,0,_ZNSt3__112construct_atB8ne200100IN5boost4asio2ip20basic_resolver_entryINS3_3udpEEEJS6_EPS6_EEPT_S9_DpOT0_
FNA:0,0,_ZNSt3__112construct_atB8ne200100IN8nlohmann16json_abi_v3_12_010basic_jsonINS_3mapENS_6vectorENS_12basic_stringIcNS_11char_traitsIcEENS_9allocatorIcEEEEbxydS9_NS2_14adl_serializerENS5_IhNS9_IhEEEEvEEJDnEPSF_EEPT_SI_DpOT0_
FNA:0,0,_ZNSt3__112construct_atB8ne200100IN8nlohmann16json_abi_v3_12_010basic_jsonINS_3mapENS_6vectorENS_12basic_stringIcNS_11char_traitsIcEENS_9allocatorIcEEEEbxydS9_NS2_14adl_serializerENS5_IhNS9_IhEEEEvEEJNS2_6detail7value_tEEPSF_EEPT_SK_DpOT0_
FNA:0,0,_ZNSt3__112construct_atB8ne200100IN8nlohmann16json_abi_v3_12_010basic_jsonINS_3mapENS_6vectorENS_12basic_stringIcNS_11char_traitsIcEENS_9allocatorIcEEEEbxydS9_NS2_14adl_serializerENS5_IhNS9_IhEEEEvEEJRSB_EPSF_EEPT_SJ_DpOT0_
FNA:0,0,_ZNSt3__112construct_atB8ne200100IN8nlohmann16json_abi_v3_12_010basic_jsonINS_3mapENS_6vectorENS_12basic_stringIcNS_11char_traitsIcEENS_9allocatorIcEEEEbxydS9_NS2_14adl_serializerENS5_IhNS9_IhEEEEvEEJRSF_EPSF_EEPT_SJ_DpOT0_
FNA:0,0,_ZNSt3__112construct_atB8ne200100IN8nlohmann16json_abi_v3_12_010basic_jsonINS_3mapENS_6vectorENS_12basic_stringIcNS_11char_traitsIcEENS_9allocatorIcEEEEbxydS9_NS2_14adl_serializerENS5_IhNS9_IhEEEEvEEJRbEPSF_EEPT_SJ_DpOT0_
FNA:0,0,_ZNSt3__112construct_atB8ne200100IN8nlohmann16json_abi_v3_12_010basic_jsonINS_3mapENS_6vectorENS_12basic_stringIcNS_11char_traitsIcEENS_9allocatorIcEEEEbxydS9_NS2_14adl_serializerENS5_IhNS9_IhEEEEvEEJRdEPSF_EEPT_SJ_DpOT0_
FNA:0,0,_ZNSt3__112construct_atB8ne200100IN8nlohmann16json_abi_v3_12_010basic_jsonINS_3mapENS_6vectorENS_12basic_stringIcNS_11char_traitsIcEENS_9allocatorIcEEEEbxydS9_NS2_14adl_serializerENS5_IhNS9_IhEEEEvEEJRxEPSF_EEPT_SJ_DpOT0_
FNA:0,0,_ZNSt3__112construct_atB8ne200100IN8nlohmann16json_abi_v3_12_010basic_jsonINS_3mapENS_6vectorENS_12basic_stringIcNS_11char_traitsIcEENS_9allocatorIcEEEEbxydS9_NS2_14adl_serializerENS5_IhNS9_IhEEEEvEEJRyEPSF_EEPT_SJ_DpOT0_
FNA:0,266,_ZNSt3__112construct_atB8ne200100IN8nlohmann16json_abi_v3_12_010basic_jsonINS_3mapENS_6vectorENS_12basic_stringIcNS_11char_traitsIcEENS_9allocatorIcEEEEbxydS9_NS2_14adl_serializerENS5_IhNS9_IhEEEEvEEJSF_EPSF_EEPT_SI_DpOT0_
FNA:0,0,_ZNSt3__112construct_atB8ne200100IN8nlohmann16json_abi_v3_12_027byte_container_with_subtypeINS_6vectorIhNS_9allocatorIhEEEEEEJEPS8_EEPT_SB_DpOT0_
FNA:0,0,_ZNSt3__112construct_atB8ne200100IN8nlohmann16json_abi_v3_12_027byte_container_with_subtypeINS_6vectorIhNS_9allocatorIhEEEEEEJRKS8_EPS8_EEPT_SD_DpOT0_
FNA:0,19,_ZNSt3__112construct_atB8ne200100IN8nlohmann16json_abi_v3_12_06detail21output_string_adapterIcNS_12basic_stringIcNS_11char_traitsIcEENS_9allocatorIcEEEEEEJRSA_EPSB_EEPT_SF_DpOT0_
FNA:0,10,_ZNSt3__112construct_atB8ne200100INS_10shared_ptrIN3p2p5relay14TurnAllocationEEEJEPS5_EEPT_S8_DpOT0_
FNA:0,50,_ZNSt3__112construct_atB8ne200100INS_10unique_ptrIN3p2p7testing10TestClientENS_14default_deleteIS4_EEEEJS7_EPS7_EEPT_SA_DpOT0_
FNA:0,1,_ZNSt3__112construct_atB8ne200100INS_11__hash_nodeINS_12basic_stringIcNS_11char_traitsIcEENS_9allocatorIcEEEEPvEEJDnRmEPS9_EEPT_SD_DpOT0_
FNA:0,13,_ZNSt3__112construct_atB8ne200100INS_11__hash_nodeINS_17__hash_value_typeINS_12basic_stringIcNS_11char_traitsIcEENS_9allocatorIcEEEEN3p2p5relay14BandwidthStatsEEEPvEEJDnRmEPSE_EEPT_SI_DpOT0_
FNA:0,13,_ZNSt3__112construct_atB8ne200100INS_11__hash_nodeINS_17__hash_value_typeINS_12basic_stringIcNS_11char_traitsIcEENS_9allocatorIcEEEEN3p2p5relay16BandwidthLimiter18AllocationLimitersEEEPvEEJDnRmEPSF_EEPT_SJ_DpOT0_
FNA:0,34,_ZNSt3__112construct_atB8ne200100INS_11__hash_nodeINS_17__hash_value_typeINS_12basic_stringIcNS_11char_traitsIcEENS_9allocatorIcEEEENS_10shared_ptrIN3p2p5relay14TurnAllocationEEEEEPvEEJDnRmEPSG_EEPT_SK_DpOT0_
FNA:0,68,_ZNSt3__112construct_atB8ne200100INS_11__hash_nodeINS_17__hash_value_typeINS_12basic_stringIcNS_11char_traitsIcEENS_9allocatorIcEEEES8_EEPvEEJDnRmEPSB_EEPT_SF_DpOT0_
FNA:0,0,_ZNSt3__112construct_atB8ne200100INS_12basic_stringIcNS_11char_traitsIcEENS_9allocatorIcEEEEJRA1_KcEPS6_EEPT_SC_DpOT0_
FNA:0,144,_ZNSt3__112construct_atB8ne200100INS_12basic_stringIcNS_11char_traitsIcEENS_9allocatorIcEEEEJRKS6_EPS6_EEPT_SB_DpOT0_
FNA:0,1,_ZNSt3__112construct_atB8ne200100INS_12basic_stringIcNS_11char_traitsIcEENS_9allocatorIcEEEEJS6_EPS6_EEPT_S9_DpOT0_
FNA:0,44,_ZNSt3__112construct_atB8ne200100INS_3mapINS_12basic_stringIcNS_11char_traitsIcEENS_9allocatorIcEEEEN8nlohmann16json_abi_v3_12_010basic_jsonIS1_NS_6vectorES7_bxydS5_NS9_14adl_serializerENSB_IhNS5_IhEEEEvEENS_4lessIvEENS5_INS_4pairIKS7_SF_EEEEEEJEPSM_EEPT_SP_DpOT0_
FNA:0,7,_ZNSt3__112construct_atB8ne200100INS_3mapINS_12basic_stringIcNS_11char_traitsIcEENS_9allocatorIcEEEEN8nlohmann16json_abi_v3_12_010basic_jsonIS1_NS_6vectorES7_bxydS5_NS9_14adl_serializerENSB_IhNS5_IhEEEEvEENS_4lessIvEENS5_INS_4pairIKS7_SF_EEEEEEJNS_20__map_const_iteratorINS_21__tree_const_iteratorINS_12__value_typeIS7_S7_EEPNS_11__tree_nodeISQ_PvEElEEEESW_EPSM_EEPT_SZ_DpOT0_
FNA:0,0,_ZNSt3__112construct_atB8ne200100INS_3mapINS_12basic_stringIcNS_11char_traitsIcEENS_9allocatorIcEEEEN8nlohmann16json_abi_v3_12_010basic_jsonIS1_NS_6vectorES7_bxydS5_NS9_14adl_serializerENSB_IhNS5_IhEEEEvEENS_4lessIvEENS5_INS_4pairIKS7_SF_EEEEEEJRKSM_EPSM_EEPT_SR_DpOT0_
FNA:0,180,_ZNSt3__112construct_atB8ne200100INS_4pairIKN3p2p9detection12DeviceVendorENS3_13DeviceProfileEEEJRKNS_21piecewise_construct_tENS_5tupleIJOS4_EEENSB_IJEEEEPS7_EEPT_SH_DpOT0_
FNA:0,13,_ZNSt3__112construct_atB8ne200100INS_4pairIKNS_12basic_stringIcNS_11char_traitsIcEENS_9allocatorIcEEEEN3p2p5relay14BandwidthStatsEEEJRKNS_21piecewise_construct_tENS_5tupleIJRS8_EEENSG_IJEEEEPSC_EEPT_SM_DpOT0_
FNA:0,13,_ZNSt3__112construct_atB8ne200100INS_4pairIKNS_12basic_stringIcNS_11char_traitsIcEENS_9allocatorIcEEEEN3p2p5relay16BandwidthLimiter18AllocationLimitersEEEJRKNS_21piecewise_construct_tENS_5tupleIJRS8_EEENSH_IJEEEEPSD_EEPT_SN_DpOT0_
FNA:0,18,_ZNSt3__112construct_atB8ne200100INS_4pairIKNS_12basic_stringIcNS_11char_traitsIcEENS_9allocatorIcEEEEN8nlohmann16json_abi_v3_12_010basic_jsonINS_3mapENS_6vectorES7_bxydS5_NSA_14adl_serializerENSD_IhNS5_IhEEEEvEEEEJRKNS1_IS8_S7_EEEPSI_EEPT_SO_DpOT0_
FNA:0,127,_ZNSt3__112construct_atB8ne200100INS_4pairIKNS_12basic_stringIcNS_11char_traitsIcEENS_9allocatorIcEEEEN8nlohmann16json_abi_v3_12_010basic_jsonINS_3mapENS_6vectorES7_bxydS5_NSA_14adl_serializerENSD_IhNS5_IhEEEEvEEEEJRKNS_21piecewise_construct_tENS_5tupleIJRS8_EEENSM_IJEEEEPSI_EEPT_SS_DpOT0_
FNA:0,0,_ZNSt3__112construct_atB8ne200100INS_4pairIKNS_12basic_stringIcNS_11char_traitsIcEENS_9allocatorIcEEEEN8nlohmann16json_abi_v3_12_010basic_jsonINS_3mapENS_6vectorES7_bxydS5_NSA_14adl_serializerENSD_IhNS5_IhEEEEvEEEEJRKSI_EPSI_EEPT_SN_DpOT0_
FNA:0,121,_ZNSt3__112construct_atB8ne200100INS_4pairIKNS_12basic_stringIcNS_11char_traitsIcEENS_9allocatorIcEEEEN8nlohmann16json_abi_v3_12_010basic_jsonINS_3mapENS_6vectorES7_bxydS5_NSA_14adl_serializerENSD_IhNS5_IhEEEEvEEEEJS7_DnEPSI_EEPT_SL_DpOT0_
FNA:0,34,_ZNSt3__112construct_atB8ne200100INS_4pairIKNS_12basic_stringIcNS_11char_traitsIcEENS_9allocatorIcEEEENS_10shared_ptrIN3p2p5relay14TurnAllocationEEEEEJRKNS_21piecewise_construct_tENS_5tupleIJRS8_EEENSI_IJEEEEPSE_EEPT_SO_DpOT0_
FNA:0,68,_ZNSt3__112construct_atB8ne200100INS_4pairIKNS_12basic_stringIcNS_11char_traitsIcEENS_9allocatorIcEEEES7_EEJRKNS_21piecewise_construct_tENS_5tupleIJOS7_EEENSD_IJEEEEPS9_EEPT_SJ_DpOT0_
FNA:0,18,_ZNSt3__112construct_atB8ne200100INS_4pairIKNS_12basic_stringIcNS_11char_traitsIcEENS_9allocatorIcEEEES7_EEJRKNS_21piecewise_construct_tENS_5tupleIJRS8_EEENSD_IJEEEEPS9_EEPT_SJ_DpOT0_
FNA:0,18,_ZNSt3__112construct_atB8ne200100INS_4pairIKNS_12basic_stringIcNS_11char_traitsIcEENS_9allocatorIcEEEES7_EEJS9_EPS9_EEPT_SC_DpOT0_
FNA:0,69,_ZNSt3__112construct_atB8ne200100INS_4pairIN3p2p9detection12DeviceVendorEdEEJS5_EPS5_EEPT_S8_DpOT0_
FNA:0,16,_ZNSt3__112construct_atB8ne200100INS_4pairINS_6chrono10time_pointINS2_12steady_clockENS2_8durationIxNS_5ratioILl1ELl1000000000EEEEEEEmEEJS9_RmEPSA_EEPT_SE_DpOT0_
FNA:0,10,_ZNSt3__112construct_atB8ne200100INS_5arrayIhLm12EEEJRKS2_EPS2_EEPT_S7_DpOT0_
FNA:0,4,_ZNSt3__112construct_atB8ne200100INS_6threadEJRZN42BandwidthLimiterTest_ConcurrentAccess_Test8TestBodyEvE3$_0RiEPS1_EEPT_S8_DpOT0_
FNA:0,221,_ZNSt3__112construct_atB8ne200100INS_6threadEJS1_EPS1_EEPT_S4_DpOT0_
FNA:0,100,_ZNSt3__112construct_atB8ne200100INS_6threadEJZN29MultiClientTest_LoadTest_Test8TestBodyEvE3$_0EPS1_EEPT_S6_DpOT0_
FNA:0,10,_ZNSt3__112construct_atB8ne200100INS_6threadEJZN32MultiClientTest_MeshNetwork_Test8TestBodyEvE3$_0EPS1_EEPT_S6_DpOT0_
FNA:0,10,_ZNSt3__112construct_atB8ne200100INS_6threadEJZN41MultiClientTest_TenConcurrentClients_Test8TestBodyEvE3$_0EPS1_EEPT_S6_DpOT0_
FNA:0,20,_ZNSt3__112construct_atB8ne200100INS_6threadEJZN43MultiClientTest_ConcurrentStunBindings_Test8TestBodyEvE3$_0EPS1_EEPT_S6_DpOT0_
FNA:0,15,_ZNSt3__112construct_atB8ne200100INS_6threadEJZN46MultiClientTest_ConcurrentTurnAllocations_Test8TestBodyEvE3$_0EPS1_EEPT_S6_DpOT0_
FNA:0,10,_ZNSt3__112construct_atB8ne200100INS_6threadEJZN48AllocationManagerTest_ConcurrentAllocations_Test8TestBodyEvE3$_0EPS1_EEPT_S6_DpOT0_
FNA:0,0,_ZNSt3__112construct_atB8ne200100INS_6vectorIN8nlohmann16json_abi_v3_12_010basic_jsonINS_3mapES1_NS_12basic_stringIcNS_11char_traitsIcEENS_9allocatorIcEEEEbxydS9_NS3_14adl_serializerENS1_IhNS9_IhEEEEvEENS9_ISF_EEEEJEPSH_EEPT_SK_DpOT0_
FNA:0,0,_ZNSt3__112construct_atB8ne200100INS_6vectorIN8nlohmann16json_abi_v3_12_010basic_jsonINS_3mapES1_NS_12basic_stringIcNS_11char_traitsIcEENS_9allocatorIcEEEEbxydS9_NS3_14adl_serializerENS1_IhNS9_IhEEEEvEENS9_ISF_EEEEJRKSH_EPSH_EEPT_SM_DpOT0_
FNA:0,13,_ZNSt3__112construct_atB8ne200100INS_6vectorIhNS_9allocatorIhEEEEJRKS4_EPS4_EEPT_S9_DpOT0_
FNA:0,0,_ZNSt3__112construct_atB8ne200100INS_6vectorIhNS_9allocatorIhEEEEJiEPS4_EEPT_S7_DpOT0_
FNA:0,0,_ZNSt3__112construct_atB8ne200100IPN8nlohmann16json_abi_v3_12_010basic_jsonINS_3mapENS_6vectorENS_12basic_stringIcNS_11char_traitsIcEENS_9allocatorIcEEEEbxydS9_NS2_14adl_serializerENS5_IhNS9_IhEEEEvEEJRKSG_EPSG_EEPT_SL_DpOT0_
FNA:0,25,_ZNSt3__112construct_atB8ne200100IPN8nlohmann16json_abi_v3_12_010basic_jsonINS_3mapENS_6vectorENS_12basic_stringIcNS_11char_traitsIcEENS_9allocatorIcEEEEbxydS9_NS2_14adl_serializerENS5_IhNS9_IhEEEEvEEJSG_EPSG_EEPT_SJ_DpOT0_
FNA:0,0,_ZNSt3__112construct_atB8ne200100IPNS_4pairINS_6chrono10time_pointINS2_12steady_clockENS2_8durationIxNS_5ratioILl1ELl1000000000EEEEEEEmEEJRSB_EPSB_EEPT_SF_DpOT0_
FNA:0,5,_ZNSt3__112construct_atB8ne200100IPNS_4pairINS_6chrono10time_pointINS2_12steady_clockENS2_8durationIxNS_5ratioILl1ELl1000000000EEEEEEEmEEJSB_EPSB_EEPT_SE_DpOT0_
FNA:0,5592,_ZNSt3__112construct_atB8ne200100IcJcEPcEEPT_S3_DpOT0_
FNA:0,917937,_ZNSt3__112construct_atB8ne200100IhJEPhEEPT_S3_DpOT0_
FNA:0,80,_ZNSt3__112construct_atB8ne200100IhJRKcEPhEEPT_S5_DpOT0_
FNA:0,39871,_ZNSt3__112construct_atB8ne200100IhJRKhEPhEEPT_S5_DpOT0_
FNA:0,5621,_ZNSt3__112construct_atB8ne200100IhJRcEPhEEPT_S4_DpOT0_
FNA:0,352,_ZNSt3__112construct_atB8ne200100IhJRhEPhEEPT_S4_DpOT0_
FNA:0,668,_ZNSt3__112construct_atB8ne200100IhJhEPhEEPT_S3_DpOT0_
FNA:0,6,_ZNSt3__112construct_atB8ne200100ItJRKtEPtEEPT_S5_DpOT0_
FNL:1,46,48
FNA:1,0,_ZNSt3__114__construct_atB8ne200100IN3p2p3nat10STUNClientEJRN5boost4asio10io_contextERKNS_12basic_stringIcNS_11char_traitsIcEENS_9allocatorIcEEEERtEPS3_EEPT_SJ_DpOT0_
FNA:1,0,_ZNSt3__114__construct_atB8ne200100IN3p2p5relay13StunAttributeEJNS2_13AttributeTypeENS_6vectorIhNS_9allocatorIhEEEEEPS3_EEPT_SB_DpOT0_
FNA:1,3,_ZNSt3__114__construct_atB8ne200100IN3p2p5relay13StunAttributeEJRNS2_13AttributeTypeENS_6vectorIhNS_9allocatorIhEEEEEPS3_EEPT_SC_DpOT0_
FNA:1,1,_ZNSt3__114__construct_atB8ne200100IN3p2p5relay13StunAttributeEJS3_EPS3_EEPT_S6_DpOT0_
FNA:1,34,_ZNSt3__114__construct_atB8ne200100IN3p2p5relay14TurnAllocationEJRNS_12basic_stringIcNS_11char_traitsIcEENS_9allocatorIcEEEERKNS2_7AddressERSB_RjRNS2_17TransportProtocolEEPS3_EEPT_SK_DpOT0_
FNA:1,4,_ZNSt3__114__construct_atB8ne200100IN3p2p5relay7AddressEJRKS3_EPS3_EEPT_S8_DpOT0_
FNA:1,39,_ZNSt3__114__construct_atB8ne200100IN3p2p8protocol13StunAttributeEJS3_EPS3_EEPT_S6_DpOT0_
FNA:1,14,_ZNSt3__114__construct_atB8ne200100IN3p2p9transport12UDPTransportEJRN5boost4asio10io_contextEiEPS3_EEPT_SA_DpOT0_
FNA:1,7,_ZNSt3__114__construct_atB8ne200100IN5boost4asio19basic_stream_socketINS2_2ip3tcpENS2_15any_io_executorEEEJRNS2_10io_contextEEPS7_EEPT_SC_DpOT0_
FNA:1,0,_ZNSt3__114__construct_atB8ne200100IN5boost4asio21basic_datagram_socketINS2_2ip3udpENS2_15any_io_executorEEEJRNS2_10io_contextEEPS7_EEPT_SC_DpOT0_
FNA:1,0,_ZNSt3__114__construct_atB8ne200100IN5boost4asio2ip14basic_endpointINS3_3udpEEEJEPS6_EEPT_S9_DpOT0_
FNA:1,0,_ZNSt3__114__construct_atB8ne200100IN5boost4asio2ip14basic_resolverINS3_3udpENS2_15any_io_executorEEEJRNS2_10io_contextEEPS7_EEPT_SC_DpOT0_
FNA:1,0,_ZNSt3__114__construct_atB8ne200100IN5boost4asio2ip20basic_resolver_entryINS3_3udpEEEJS6_EPS6_EEPT_S9_DpOT0_
FNA:1,0,_ZNSt3__114__construct_atB8ne200100IN8nlohmann16json_abi_v3_12_010basic_jsonINS_3mapENS_6vectorENS_12basic_stringIcNS_11char_traitsIcEENS_9allocatorIcEEEEbxydS9_NS2_14adl_serializerENS5_IhNS9_IhEEEEvEEJDnEPSF_EEPT_SI_DpOT0_
FNA:1,0,_ZNSt3__114__construct_atB8ne200100IN8nlohmann16json_abi_v3_12_010basic_jsonINS_3mapENS_6vectorENS_12basic_stringIcNS_11char_traitsIcEENS_9allocatorIcEEEEbxydS9_NS2_14adl_serializerENS5_IhNS9_IhEEEEvEEJNS2_6detail7value_tEEPSF_EEPT_SK_DpOT0_
FNA:1,0,_ZNSt3__114__construct_atB8ne200100IN8nlohmann16json_abi_v3_12_010basic_jsonINS_3mapENS_6vectorENS_12basic_stringIcNS_11char_traitsIcEENS_9allocatorIcEEEEbxydS9_NS2_14adl_serializerENS5_IhNS9_IhEEEEvEEJRSB_EPSF_EEPT_SJ_DpOT0_
FNA:1,0,_ZNSt3__114__construct_atB8ne200100IN8nlohmann16json_abi_v3_12_010basic_jsonINS_3mapENS_6vectorENS_12basic_stringIcNS_11char_traitsIcEENS_9allocatorIcEEEEbxydS9_NS2_14adl_serializerENS5_IhNS9_IhEEEEvEEJRSF_EPSF_EEPT_SJ_DpOT0_
FNA:1,0,_ZNSt3__114__construct_atB8ne200100IN8nlohmann16json_abi_v3_12_010basic_jsonINS_3mapENS_6vectorENS_12basic_stringIcNS_11char_traitsIcEENS_9allocatorIcEEEEbxydS9_NS2_14adl_serializerENS5_IhNS9_IhEEEEvEEJRbEPSF_EEPT_SJ_DpOT0_
FNA:1,0,_ZNSt3__114__construct_atB8ne200100IN8nlohmann16json_abi_v3_12_010basic_jsonINS_3mapENS_6vectorENS_12basic_stringIcNS_11char_traitsIcEENS_9allocatorIcEEEEbxydS9_NS2_14adl_serializerENS5_IhNS9_IhEEEEvEEJRdEPSF_EEPT_SJ_DpOT0_
FNA:1,0,_ZNSt3__114__construct_atB8ne200100IN8nlohmann16json_abi_v3_12_010basic_jsonINS_3mapENS_6vectorENS_12basic_stringIcNS_11char_traitsIcEENS_9allocatorIcEEEEbxydS9_NS2_14adl_serializerENS5_IhNS9_IhEEEEvEEJRxEPSF_EEPT_SJ_DpOT0_
FNA:1,0,_ZNSt3__114__construct_atB8ne200100IN8nlohmann16json_abi_v3_12_010basic_jsonINS_3mapENS_6vectorENS_12basic_stringIcNS_11char_traitsIcEENS_9allocatorIcEEEEbxydS9_NS2_14adl_serializerENS5_IhNS9_IhEEEEvEEJRyEPSF_EEPT_SJ_DpOT0_
FNA:1,266,_ZNSt3__114__construct_atB8ne200100IN8nlohmann16json_abi_v3_12_010basic_jsonINS_3mapENS_6vectorENS_12basic_stringIcNS_11char_traitsIcEENS_9allocatorIcEEEEbxydS9_NS2_14adl_serializerENS5_IhNS9_IhEEEEvEEJSF_EPSF_EEPT_SI_DpOT0_
FNA:1,0,_ZNSt3__114__construct_atB8ne200100IN8nlohmann16json_abi_v3_12_027byte_container_with_subtypeINS_6vectorIhNS_9allocatorIhEEEEEEJEPS8_EEPT_SB_DpOT0_
FNA:1,0,_ZNSt3__114__construct_atB8ne200100IN8nlohmann16json_abi_v3_12_027byte_container_with_subtypeINS_6vectorIhNS_9allocatorIhEEEEEEJRKS8_EPS8_EEPT_SD_DpOT0_
FNA:1,19,_ZNSt3__114__construct_atB8ne200100IN8nlohmann16json_abi_v3_12_06detail21output_string_adapterIcNS_12basic_stringIcNS_11char_traitsIcEENS_9allocatorIcEEEEEEJRSA_EPSB_EEPT_SF_DpOT0_
FNA:1,10,_ZNSt3__114__construct_atB8ne200100INS_10shared_ptrIN3p2p5relay14TurnAllocationEEEJEPS5_EEPT_S8_DpOT0_
FNA:1,50,_ZNSt3__114__construct_atB8ne200100INS_10unique_ptrIN3p2p7testing10TestClientENS_14default_deleteIS4_EEEEJS7_EPS7_EEPT_SA_DpOT0_
FNA:1,1,_ZNSt3__114__construct_atB8ne200100INS_11__hash_nodeINS_12basic_stringIcNS_11char_traitsIcEENS_9allocatorIcEEEEPvEEJDnRmEPS9_EEPT_SD_DpOT0_
FNA:1,13,_ZNSt3__114__construct_atB8ne200100INS_11__hash_nodeINS_17__hash_value_typeINS_12basic_stringIcNS_11char_traitsIcEENS_9allocatorIcEEEEN3p2p5relay14BandwidthStatsEEEPvEEJDnRmEPSE_EEPT_SI_DpOT0_
FNA:1,13,_ZNSt3__114__construct_atB8ne200100INS_11__hash_nodeINS_17__hash_value_typeINS_12basic_stringIcNS_11char_traitsIcEENS_9allocatorIcEEEEN3p2p5relay16BandwidthLimiter18AllocationLimitersEEEPvEEJDnRmEPSF_EEPT_SJ_DpOT0_
FNA:1,34,_ZNSt3__114__construct_atB8ne200100INS_11__hash_nodeINS_17__hash_value_typeINS_12basic_stringIcNS_11char_traitsIcEENS_9allocatorIcEEEENS_10shared_ptrIN3p2p5relay14TurnAllocationEEEEEPvEEJDnRmEPSG_EEPT_SK_DpOT0_
FNA:1,68,_ZNSt3__114__construct_atB8ne200100INS_11__hash_nodeINS_17__hash_value_typeINS_12basic_stringIcNS_11char_traitsIcEENS_9allocatorIcEEEES8_EEPvEEJDnRmEPSB_EEPT_SF_DpOT0_
FNA:1,0,_ZNSt3__114__construct_atB8ne200100INS_12basic_stringIcNS_11char_traitsIcEENS_9allocatorIcEEEEJRA1_KcEPS6_EEPT_SC_DpOT0_
FNA:1,144,_ZNSt3__114__construct_atB8ne200100INS_12basic_stringIcNS_11char_traitsIcEENS_9allocatorIcEEEEJRKS6_EPS6_EEPT_SB_DpOT0_
FNA:1,1,_ZNSt3__114__construct_atB8ne200100INS_12basic_stringIcNS_11char_traitsIcEENS_9allocatorIcEEEEJS6_EPS6_EEPT_S9_DpOT0_
FNA:1,44,_ZNSt3__114__construct_atB8ne200100INS_3mapINS_12basic_stringIcNS_11char_traitsIcEENS_9allocatorIcEEEEN8nlohmann16json_abi_v3_12_010basic_jsonIS1_NS_6vectorES7_bxydS5_NS9_14adl_serializerENSB_IhNS5_IhEEEEvEENS_4lessIvEENS5_INS_4pairIKS7_SF_EEEEEEJEPSM_EEPT_SP_DpOT0_
FNA:1,7,_ZNSt3__114__construct_atB8ne200100INS_3mapINS_12basic_stringIcNS_11char_traitsIcEENS_9allocatorIcEEEEN8nlohmann16json_abi_v3_12_010basic_jsonIS1_NS_6vectorES7_bxydS5_NS9_14adl_serializerENSB_IhNS5_IhEEEEvEENS_4lessIvEENS5_INS_4pairIKS7_SF_EEEEEEJNS_20__map_const_iteratorINS_21__tree_const_iteratorINS_12__value_typeIS7_S7_EEPNS_11__tree_nodeISQ_PvEElEEEESW_EPSM_EEPT_SZ_DpOT0_
FNA:1,0,_ZNSt3__114__construct_atB8ne200100INS_3mapINS_12basic_stringIcNS_11char_traitsIcEENS_9allocatorIcEEEEN8nlohmann16json_abi_v3_12_010basic_jsonIS1_NS_6vectorES7_bxydS5_NS9_14adl_serializerENSB_IhNS5_IhEEEEvEENS_4lessIvEENS5_INS_4pairIKS7_SF_EEEEEEJRKSM_EPSM_EEPT_SR_DpOT0_
FNA:1,180,_ZNSt3__114__construct_atB8ne200100INS_4pairIKN3p2p9detection12DeviceVendorENS3_13DeviceProfileEEEJRKNS_21piecewise_construct_tENS_5tupleIJOS4_EEENSB_IJEEEEPS7_EEPT_SH_DpOT0_
FNA:1,13,_ZNSt3__114__construct_atB8ne200100INS_4pairIKNS_12basic_stringIcNS_11char_traitsIcEENS_9allocatorIcEEEEN3p2p5relay14BandwidthStatsEEEJRKNS_21piecewise_construct_tENS_5tupleIJRS8_EEENSG_IJEEEEPSC_EEPT_SM_DpOT0_
FNA:1,13,_ZNSt3__114__construct_atB8ne200100INS_4pairIKNS_12basic_stringIcNS_11char_traitsIcEENS_9allocatorIcEEEEN3p2p5relay16BandwidthLimiter18AllocationLimitersEEEJRKNS_21piecewise_construct_tENS_5tupleIJRS8_EEENSH_IJEEEEPSD_EEPT_SN_DpOT0_
FNA:1,18,_ZNSt3__114__construct_atB8ne200100INS_4pairIKNS_12basic_stringIcNS_11char_traitsIcEENS_9allocatorIcEEEEN8nlohmann16json_abi_v3_12_010basic_jsonINS_3mapENS_6vectorES7_bxydS5_NSA_14adl_serializerENSD_IhNS5_IhEEEEvEEEEJRKNS1_IS8_S7_EEEPSI_EEPT_SO_DpOT0_
FNA:1,127,_ZNSt3__114__construct_atB8ne200100INS_4pairIKNS_12basic_stringIcNS_11char_traitsIcEENS_9allocatorIcEEEEN8nlohmann16json_abi_v3_12_010basic_jsonINS_3mapENS_6vectorES7_bxydS5_NSA_14adl_serializerENSD_IhNS5_IhEEEEvEEEEJRKNS_21piecewise_construct_tENS_5tupleIJRS8_EEENSM_IJEEEEPSI_EEPT_SS_DpOT0_
FNA:1,0,_ZNSt3__114__construct_atB8ne200100INS_4pairIKNS_12basic_stringIcNS_11char_traitsIcEENS_9allocatorIcEEEEN8nlohmann16json_abi_v3_12_010basic_jsonINS_3mapENS_6vectorES7_bxydS5_NSA_14adl_serializerENSD_IhNS5_IhEEEEvEEEEJRKSI_EPSI_EEPT_SN_DpOT0_
FNA:1,121,_ZNSt3__114__construct_atB8ne200100INS_4pairIKNS_12basic_stringIcNS_11char_traitsIcEENS_9allocatorIcEEEEN8nlohmann16json_abi_v3_12_010basic_jsonINS_3mapENS_6vectorES7_bxydS5_NSA_14adl_serializerENSD_IhNS5_IhEEEEvEEEEJS7_DnEPSI_EEPT_SL_DpOT0_
FNA:1,34,_ZNSt3__114__construct_atB8ne200100INS_4pairIKNS_12basic_stringIcNS_11char_traitsIcEENS_9allocatorIcEEEENS_10shared_ptrIN3p2p5relay14TurnAllocationEEEEEJRKNS_21piecewise_construct_tENS_5tupleIJRS8_EEENSI_IJEEEEPSE_EEPT_SO_DpOT0_
FNA:1,68,_ZNSt3__114__construct_atB8ne200100INS_4pairIKNS_12basic_stringIcNS_11char_traitsIcEENS_9allocatorIcEEEES7_EEJRKNS_21piecewise_construct_tENS_5tupleIJOS7_EEENSD_IJEEEEPS9_EEPT_SJ_DpOT0_
FNA:1,18,_ZNSt3__114__construct_atB8ne200100INS_4pairIKNS_12basic_stringIcNS_11char_traitsIcEENS_9allocatorIcEEEES7_EEJRKNS_21piecewise_construct_tENS_5tupleIJRS8_EEENSD_IJEEEEPS9_EEPT_SJ_DpOT0_
FNA:1,18,_ZNSt3__114__construct_atB8ne200100INS_4pairIKNS_12basic_stringIcNS_11char_traitsIcEENS_9allocatorIcEEEES7_EEJS9_EPS9_EEPT_SC_DpOT0_
FNA:1,69,_ZNSt3__114__construct_atB8ne200100INS_4pairIN3p2p9detection12DeviceVendorEdEEJS5_EPS5_EEPT_S8_DpOT0_
FNA:1,16,_ZNSt3__114__construct_atB8ne200100INS_4pairINS_6chrono10time_pointINS2_12steady_clockENS2_8durationIxNS_5ratioILl1ELl1000000000EEEEEEEmEEJS9_RmEPSA_EEPT_SE_DpOT0_
FNA:1,10,_ZNSt3__114__construct_atB8ne200100INS_5arrayIhLm12EEEJRKS2_EPS2_EEPT_S7_DpOT0_
FNA:1,4,_ZNSt3__114__construct_atB8ne200100INS_6threadEJRZN42BandwidthLimiterTest_ConcurrentAccess_Test8TestBodyEvE3$_0RiEPS1_EEPT_S8_DpOT0_
FNA:1,221,_ZNSt3__114__construct_atB8ne200100INS_6threadEJS1_EPS1_EEPT_S4_DpOT0_
FNA:1,100,_ZNSt3__114__construct_atB8ne200100INS_6threadEJZN29MultiClientTest_LoadTest_Test8TestBodyEvE3$_0EPS1_EEPT_S6_DpOT0_
FNA:1,10,_ZNSt3__114__construct_atB8ne200100INS_6threadEJZN32MultiClientTest_MeshNetwork_Test8TestBodyEvE3$_0EPS1_EEPT_S6_DpOT0_
FNA:1,10,_ZNSt3__114__construct_atB8ne200100INS_6threadEJZN41MultiClientTest_TenConcurrentClients_Test8TestBodyEvE3$_0EPS1_EEPT_S6_DpOT0_
FNA:1,20,_ZNSt3__114__construct_atB8ne200100INS_6threadEJZN43MultiClientTest_ConcurrentStunBindings_Test8TestBodyEvE3$_0EPS1_EEPT_S6_DpOT0_
FNA:1,15,_ZNSt3__114__construct_atB8ne200100INS_6threadEJZN46MultiClientTest_ConcurrentTurnAllocations_Test8TestBodyEvE3$_0EPS1_EEPT_S6_DpOT0_
FNA:1,10,_ZNSt3__114__construct_atB8ne200100INS_6threadEJZN48AllocationManagerTest_ConcurrentAllocations_Test8TestBodyEvE3$_0EPS1_EEPT_S6_DpOT0_
FNA:1,0,_ZNSt3__114__construct_atB8ne200100INS_6vectorIN8nlohmann16json_abi_v3_12_010basic_jsonINS_3mapES1_NS_12basic_stringIcNS_11char_traitsIcEENS_9allocatorIcEEEEbxydS9_NS3_14adl_serializerENS1_IhNS9_IhEEEEvEENS9_ISF_EEEEJEPSH_EEPT_SK_DpOT0_
FNA:1,0,_ZNSt3__114__construct_atB8ne200100INS_6vectorIN8nlohmann16json_abi_v3_12_010basic_jsonINS_3mapES1_NS_12basic_stringIcNS_11char_traitsIcEENS_9allocatorIcEEEEbxydS9_NS3_14adl_serializerENS1_IhNS9_IhEEEEvEENS9_ISF_EEEEJRKSH_EPSH_EEPT_SM_DpOT0_
FNA:1,13,_ZNSt3__114__construct_atB8ne200100INS_6vectorIhNS_9allocatorIhEEEEJRKS4_EPS4_EEPT_S9_DpOT0_
FNA:1,0,_ZNSt3__114__construct_atB8ne200100INS_6vectorIhNS_9allocatorIhEEEEJiEPS4_EEPT_S7_DpOT0_
FNA:1,0,_ZNSt3__114__construct_atB8ne200100IPN8nlohmann16json_abi_v3_12_010basic_jsonINS_3mapENS_6vectorENS_12basic_stringIcNS_11char_traitsIcEENS_9allocatorIcEEEEbxydS9_NS2_14adl_serializerENS5_IhNS9_IhEEEEvEEJRKSG_EPSG_EEPT_SL_DpOT0_
FNA:1,25,_ZNSt3__114__construct_atB8ne200100IPN8nlohmann16json_abi_v3_12_010basic_jsonINS_3mapENS_6vectorENS_12basic_stringIcNS_11char_traitsIcEENS_9allocatorIcEEEEbxydS9_NS2_14adl_serializerENS5_IhNS9_IhEEEEvEEJSG_EPSG_EEPT_SJ_DpOT0_
FNA:1,0,_ZNSt3__114__construct_atB8ne200100IPNS_4pairINS_6chrono10time_pointINS2_12steady_clockENS2_8durationIxNS_5ratioILl1ELl1000000000EEEEEEEmEEJRSB_EPSB_EEPT_SF_DpOT0_
FNA:1,5,_ZNSt3__114__construct_atB8ne200100IPNS_4pairINS_6chrono10time_pointINS2_12steady_clockENS2_8durationIxNS_5ratioILl1ELl1000000000EEEEEEEmEEJSB_EPSB_EEPT_SE_DpOT0_
FNA:1,5592,_ZNSt3__114__construct_atB8ne200100IcJcEPcEEPT_S3_DpOT0_
FNA:1,917937,_ZNSt3__114__construct_atB8ne200100IhJEPhEEPT_S3_DpOT0_
FNA:1,80,_ZNSt3__114__construct_atB8ne200100IhJRKcEPhEEPT_S5_DpOT0_
FNA:1,39872,_ZNSt3__114__construct_atB8ne200100IhJRKhEPhEEPT_S5_DpOT0_
FNA:1,5621,_ZNSt3__114__construct_atB8ne200100IhJRcEPhEEPT_S4_DpOT0_
FNA:1,352,_ZNSt3__114__construct_atB8ne200100IhJRhEPhEEPT_S4_DpOT0_
FNA:1,668,_ZNSt3__114__construct_atB8ne200100IhJhEPhEEPT_S3_DpOT0_
FNA:1,6,_ZNSt3__114__construct_atB8ne200100ItJRKtEPtEEPT_S5_DpOT0_
FNL:2,64,67
FNA:2,0,_ZNSt3__112__destroy_atB8ne200100IN3p2p3nat10STUNClientELi0EEEvPT_
FNA:2,4,_ZNSt3__112__destroy_atB8ne200100IN3p2p5relay13StunAttributeELi0EEEvPT_
FNA:2,34,_ZNSt3__112__destroy_atB8ne200100IN3p2p5relay14TurnAllocationELi0EEEvPT_
FNA:2,4,_ZNSt3__112__destroy_atB8ne200100IN3p2p5relay7AddressELi0EEEvPT_
FNA:2,39,_ZNSt3__112__destroy_atB8ne200100IN3p2p8protocol13StunAttributeELi0EEEvPT_
FNA:2,14,_ZNSt3__112__destroy_atB8ne200100IN3p2p9transport12UDPTransportELi0EEEvPT_
FNA:2,0,_ZNSt3__112__destroy_atB8ne200100IN5boost4asio14config_serviceELi0EEEvPT_
FNA:2,31,_ZNSt3__112__destroy_atB8ne200100IN5boost4asio17execution_context14allocator_implINS_9allocatorIvEEEELi0EEEvPT_
FNA:2,7,_ZNSt3__112__destroy_atB8ne200100IN5boost4asio19basic_stream_socketINS2_2ip3tcpENS2_15any_io_executorEEELi0EEEvPT_
FNA:2,0,_ZNSt3__112__destroy_atB8ne200100IN5boost4asio19multiple_exceptionsELi0EEEvPT_
FNA:2,0,_ZNSt3__112__destroy_atB8ne200100IN5boost4asio21basic_datagram_socketINS2_2ip3udpENS2_15any_io_executorEEELi0EEEvPT_
FNA:2,0,_ZNSt3__112__destroy_atB8ne200100IN5boost4asio2ip14basic_endpointINS3_3udpEEELi0EEEvPT_
FNA:2,0,_ZNSt3__112__destroy_atB8ne200100IN5boost4asio2ip14basic_resolverINS3_3udpENS2_15any_io_executorEEELi0EEEvPT_
FNA:2,0,_ZNSt3__112__destroy_atB8ne200100IN5boost4asio2ip20basic_resolver_entryINS3_3udpEEELi0EEEvPT_
FNA:2,0,_ZNSt3__112__destroy_atB8ne200100IN5boost4asio6detail12posix_thread4funcINS3_20resolver_thread_pool21work_scheduler_runnerENS2_17execution_context9allocatorIvEEEELi0EEEvPT_
FNA:2,0,_ZNSt3__112__destroy_atB8ne200100IN5boost4asio6detail12posix_thread4funcINS3_9scheduler15thread_functionENS_9allocatorIvEEEELi0EEEvPT_
FNA:2,0,_ZNSt3__112__destroy_atB8ne200100IN5boost4asio6detail12thread_groupINS2_17execution_context9allocatorIvEEE4itemELi0EEEvPT_
FNA:2,0,_ZNSt3__112__destroy_atB8ne200100IN5boost4asio6detail12thread_groupINS_9allocatorIvEEE4itemELi0EEEvPT_
FNA:2,32,_ZNSt3__112__destroy_atB8ne200100IN5boost4asio6detail14kqueue_reactor16descriptor_stateELi0EEEvPT_
FNA:2,21,_ZNSt3__112__destroy_atB8ne200100IN5boost4asio6detail14kqueue_reactorELi0EEEvPT_
FNA:2,0,_ZNSt3__112__destroy_atB8ne200100IN5boost4asio6detail16resolver_serviceINS2_2ip3udpEEELi0EEEvPT_
FNA:2,31,_ZNSt3__112__destroy_atB8ne200100IN5boost4asio6detail16service_registryELi0EEEvPT_
FNA:2,0,_ZNSt3__112__destroy_atB8ne200100IN5boost4asio6detail20resolver_thread_poolELi0EEEvPT_
FNA:2,7,_ZNSt3__112__destroy_atB8ne200100IN5boost4asio6detail23reactive_socket_serviceINS2_2ip3tcpEEELi0EEEvPT_
FNA:2,20,_ZNSt3__112__destroy_atB8ne200100IN5boost4asio6detail23reactive_socket_serviceINS2_2ip3udpEEELi0EEEvPT_
FNA:2,31,_ZNSt3__112__destroy_atB8ne200100IN5boost4asio6detail36config_from_concurrency_hint_serviceELi0EEEvPT_
FNA:2,31,_ZNSt3__112__destroy_atB8ne200100IN5boost4asio6detail9schedulerELi0EEEvPT_
FNA:2,266,_ZNSt3__112__destroy_atB8ne200100IN8nlohmann16json_abi_v3_12_010basic_jsonINS_3mapENS_6vectorENS_12basic_stringIcNS_11char_traitsIcEENS_9allocatorIcEEEEbxydS9_NS2_14adl_serializerENS5_IhNS9_IhEEEEvEELi0EEEvPT_
FNA:2,0,_ZNSt3__112__destroy_atB8ne200100IN8nlohmann16json_abi_v3_12_027byte_container_with_subtypeINS_6vectorIhNS_9allocatorIhEEEEEELi0EEEvPT_
FNA:2,19,_ZNSt3__112__destroy_atB8ne200100IN8nlohmann16json_abi_v3_12_06detail21output_string_adapterIcNS_12basic_stringIcNS_11char_traitsIcEENS_9allocatorIcEEEEEELi0EEEvPT_
FNA:2,10,_ZNSt3__112__destroy_atB8ne200100INS_10shared_ptrIN3p2p5relay14TurnAllocationEEELi0EEEvPT_
FNA:2,50,_ZNSt3__112__destroy_atB8ne200100INS_10unique_ptrIN3p2p7testing10TestClientENS_14default_deleteIS4_EEEELi0EEEvPT_
FNA:2,1,_ZNSt3__112__destroy_atB8ne200100INS_11__hash_nodeINS_12basic_stringIcNS_11char_traitsIcEENS_9allocatorIcEEEEPvEELi0EEEvPT_
FNA:2,13,_ZNSt3__112__destroy_atB8ne200100INS_11__hash_nodeINS_17__hash_value_typeINS_12basic_stringIcNS_11char_traitsIcEENS_9allocatorIcEEEEN3p2p5relay14BandwidthStatsEEEPvEELi0EEEvPT_
FNA:2,13,_ZNSt3__112__destroy_atB8ne200100INS_11__hash_nodeINS_17__hash_value_typeINS_12basic_stringIcNS_11char_traitsIcEENS_9allocatorIcEEEEN3p2p5relay16BandwidthLimiter18AllocationLimitersEEEPvEELi0EEEvPT_
FNA:2,34,_ZNSt3__112__destroy_atB8ne200100INS_11__hash_nodeINS_17__hash_value_typeINS_12basic_stringIcNS_11char_traitsIcEENS_9allocatorIcEEEENS_10shared_ptrIN3p2p5relay14TurnAllocationEEEEEPvEELi0EEEvPT_
FNA:2,68,_ZNSt3__112__destroy_atB8ne200100INS_11__hash_nodeINS_17__hash_value_typeINS_12basic_stringIcNS_11char_traitsIcEENS_9allocatorIcEEEES8_EEPvEELi0EEEvPT_
FNA:2,183,_ZNSt3__112__destroy_atB8ne200100INS_12basic_stringIcNS_11char_traitsIcEENS_9allocatorIcEEEELi0EEEvPT_
FNA:2,51,_ZNSt3__112__destroy_atB8ne200100INS_3mapINS_12basic_stringIcNS_11char_traitsIcEENS_9allocatorIcEEEEN8nlohmann16json_abi_v3_12_010basic_jsonIS1_NS_6vectorES7_bxydS5_NS9_14adl_serializerENSB_IhNS5_IhEEEEvEENS_4lessIvEENS5_INS_4pairIKS7_SF_EEEEEELi0EEEvPT_
FNA:2,180,_ZNSt3__112__destroy_atB8ne200100INS_4pairIKN3p2p9detection12DeviceVendorENS3_13DeviceProfileEEELi0EEEvPT_
FNA:2,13,_ZNSt3__112__destroy_atB8ne200100INS_4pairIKNS_12basic_stringIcNS_11char_traitsIcEENS_9allocatorIcEEEEN3p2p5relay14BandwidthStatsEEELi0EEEvPT_
FNA:2,13,_ZNSt3__112__destroy_atB8ne200100INS_4pairIKNS_12basic_stringIcNS_11char_traitsIcEENS_9allocatorIcEEEEN3p2p5relay16BandwidthLimiter18AllocationLimitersEEELi0EEEvPT_
FNA:2,266,_ZNSt3__112__destroy_atB8ne200100INS_4pairIKNS_12basic_stringIcNS_11char_traitsIcEENS_9allocatorIcEEEEN8nlohmann16json_abi_v3_12_010basic_jsonINS_3mapENS_6vectorES7_bxydS5_NSA_14adl_serializerENSD_IhNS5_IhEEEEvEEEELi0EEEvPT_
FNA:2,34,_ZNSt3__112__destroy_atB8ne200100INS_4pairIKNS_12basic_stringIcNS_11char_traitsIcEENS_9allocatorIcEEEENS_10shared_ptrIN3p2p5relay14TurnAllocationEEEEELi0EEEvPT_
FNA:2,104,_ZNSt3__112__destroy_atB8ne200100INS_4pairIKNS_12basic_stringIcNS_11char_traitsIcEENS_9allocatorIcEEEES7_EELi0EEEvPT_
FNA:2,69,_ZNSt3__112__destroy_atB8ne200100INS_4pairIN3p2p9detection12DeviceVendorEdEELi0EEEvPT_
FNA:2,16,_ZNSt3__112__destroy_atB8ne200100INS_4pairINS_6chrono10time_pointINS2_12steady_clockENS2_8durationIxNS_5ratioILl1ELl1000000000EEEEEEEmEELi0EEEvPT_
FNA:2,10,_ZNSt3__112__destroy_atB8ne200100INS_5arrayIhLm12EEELi0EEEvPT_
FNA:2,390,_ZNSt3__112__destroy_atB8ne200100INS_6threadELi0EEEvPT_
FNA:2,0,_ZNSt3__112__destroy_atB8ne200100INS_6vectorIN8nlohmann16json_abi_v3_12_010basic_jsonINS_3mapES1_NS_12basic_stringIcNS_11char_traitsIcEENS_9allocatorIcEEEEbxydS9_NS3_14adl_serializerENS1_IhNS9_IhEEEEvEENS9_ISF_EEEELi0EEEvPT_
FNA:2,13,_ZNSt3__112__destroy_atB8ne200100INS_6vectorIhNS_9allocatorIhEEEELi0EEEvPT_
FNA:2,25,_ZNSt3__112__destroy_atB8ne200100IPN8nlohmann16json_abi_v3_12_010basic_jsonINS_3mapENS_6vectorENS_12basic_stringIcNS_11char_traitsIcEENS_9allocatorIcEEEEbxydS9_NS2_14adl_serializerENS5_IhNS9_IhEEEEvEELi0EEEvPT_
FNA:2,5,_ZNSt3__112__destroy_atB8ne200100IPNS_4pairINS_6chrono10time_pointINS2_12steady_clockENS2_8durationIxNS_5ratioILl1ELl1000000000EEEEEEEmEELi0EEEvPT_
FNA:2,5592,_ZNSt3__112__destroy_atB8ne200100IcLi0EEEvPT_
FNA:2,920648,_ZNSt3__112__destroy_atB8ne200100IhLi0EEEvPT_
FNA:2,6,_ZNSt3__112__destroy_atB8ne200100ItLi0EEEvPT_
FNF:3
FNH:3
DA:38,972037
DA:40,972037
DA:41,0
DA:46,972038
DA:48,972038
DA:64,928398
DA:66,928398
DA:67,928398
LF:8
LH:7
end_of_record
TN:
SF:/Library/Developer/CommandLineTools/SDKs/MacOSX.sdk/usr/include/c++/v1/__memory/pointer_traits.h
FNL:0,172,173
FNA:0,92,_ZNSt3__114pointer_traitsIPKNS_12__value_typeIN3p2p9detection12DeviceVendorENS3_13DeviceProfileEEEE10pointer_toB8ne200100ERS7_
FNA:0,296,_ZNSt3__114pointer_traitsIPKNS_12__value_typeINS_12basic_stringIcNS_11char_traitsIcEENS_9allocatorIcEEEEN8nlohmann16json_abi_v3_12_010basic_jsonINS_3mapENS_6vectorES7_bxydS5_NS9_14adl_serializerENSC_IhNS5_IhEEEEvEEEEE10pointer_toB8ne200100ERSI_
FNA:0,18,_ZNSt3__114pointer_traitsIPKNS_12__value_typeINS_12basic_stringIcNS_11char_traitsIcEENS_9allocatorIcEEEES7_EEE10pointer_toB8ne200100ERS9_
FNA:0,1,_ZNSt3__114pointer_traitsIPKNS_17__hash_value_typeINS_12basic_stringIcNS_11char_traitsIcEENS_9allocatorIcEEEEN3p2p5relay14BandwidthStatsEEEE10pointer_toB8ne200100ERSC_
FNA:0,4,_ZNSt3__114pointer_traitsIPKNS_17__hash_value_typeINS_12basic_stringIcNS_11char_traitsIcEENS_9allocatorIcEEEENS_10shared_ptrIN3p2p5relay14TurnAllocationEEEEEE10pointer_toB8ne200100ERSE_
FNA:0,2,_ZNSt3__114pointer_traitsIPKNS_4pairIKN3p2p9detection12DeviceVendorENS3_13DeviceProfileEEEE10pointer_toB8ne200100ERS8_
FNA:0,1,_ZNSt3__114pointer_traitsIPKNS_4pairIKNS_12basic_stringIcNS_11char_traitsIcEENS_9allocatorIcEEEEN3p2p5relay14BandwidthStatsEEEE10pointer_toB8ne200100ERSD_
FNA:0,278,_ZNSt3__114pointer_traitsIPKNS_4pairIKNS_12basic_stringIcNS_11char_traitsIcEENS_9allocatorIcEEEEN8nlohmann16json_abi_v3_12_010basic_jsonINS_3mapENS_6vectorES7_bxydS5_NSA_14adl_serializerENSD_IhNS5_IhEEEEvEEEEE10pointer_toB8ne200100ERSJ_
FNA:0,0,_ZNSt3__114pointer_traitsIPKNS_4pairIKNS_12basic_stringIcNS_11char_traitsIcEENS_9allocatorIcEEEES7_EEE10pointer_toB8ne200100ERSA_
FNA:0,7327,_ZNSt3__114pointer_traitsIPKcE10pointer_toB8ne200100ERS1_
FNA:0,0,_ZNSt3__114pointer_traitsIPKhE10pointer_toB8ne200100ERS1_
FNA:0,180,_ZNSt3__114pointer_traitsIPNS_12__value_typeIN3p2p9detection12DeviceVendorENS3_13DeviceProfileEEEE10pointer_toB8ne200100ERS6_
FNA:0,636,_ZNSt3__114pointer_traitsIPNS_12__value_typeINS_12basic_stringIcNS_11char_traitsIcEENS_9allocatorIcEEEEN8nlohmann16json_abi_v3_12_010basic_jsonINS_3mapENS_6vectorES7_bxydS5_NS9_14adl_serializerENSC_IhNS5_IhEEEEvEEEEE10pointer_toB8ne200100ERSH_
FNA:0,21,_ZNSt3__114pointer_traitsIPNS_12__value_typeINS_12basic_stringIcNS_11char_traitsIcEENS_9allocatorIcEEEES7_EEE10pointer_toB8ne200100ERS8_
FNA:0,2341,_ZNSt3__114pointer_traitsIPNS_15__tree_end_nodeIPNS_16__tree_node_baseIPvEEEEE10pointer_toB8ne200100ERS6_
FNA:0,6,_ZNSt3__114pointer_traitsIPNS_16__hash_node_baseIPNS_11__hash_nodeINS_12basic_stringIcNS_11char_traitsIcEENS_9allocatorIcEEEEPvEEEEE10pointer_toB8ne200100ERSC_
FNA:0,142,_ZNSt3__114pointer_traitsIPNS_16__hash_node_baseIPNS_11__hash_nodeINS_17__hash_value_typeINS_12basic_stringIcNS_11char_traitsIcEENS_9allocatorIcEEEEN3p2p5relay14BandwidthStatsEEEPvEEEEE10pointer_toB8ne200100ERSH_
FNA:0,142,_ZNSt3__114pointer_traitsIPNS_16__hash_node_baseIPNS_11__hash_nodeINS_17__hash_value_typeINS_12basic_stringIcNS_11char_traitsIcEENS_9allocatorIcEEEEN3p2p5relay16BandwidthLimiter18AllocationLimitersEEEPvEEEEE10pointer_toB8ne200100ERSI_
FNA:0,184,_ZNSt3__114pointer_traitsIPNS_16__hash_node_baseIPNS_11__hash_nodeINS_17__hash_value_typeINS_12basic_stringIcNS_11char_traitsIcEENS_9allocatorIcEEEENS_10shared_ptrIN3p2p5relay14TurnAllocationEEEEEPvEEEEE10pointer_toB8ne200100ERSJ_
FNA:0,312,_ZNSt3__114pointer_traitsIPNS_16__hash_node_baseIPNS_11__hash_nodeINS_17__hash_value_typeINS_12basic_stringIcNS_11char_traitsIcEENS_9allocatorIcEEEES9_EEPvEEEEE10pointer_toB8ne200100ERSE_
FNA:0,52,_ZNSt3__114pointer_traitsIPNS_17__hash_value_typeINS_12basic_stringIcNS_11char_traitsIcEENS_9allocatorIcEEEEN3p2p5relay14BandwidthStatsEEEE10pointer_toB8ne200100ERSB_
FNA:0,53,_ZNSt3__114pointer_traitsIPNS_17__hash_value_typeINS_12basic_stringIcNS_11char_traitsIcEENS_9allocatorIcEEEEN3p2p5relay16BandwidthLimiter18AllocationLimitersEEEE10pointer_toB8ne200100ERSC_
FNA:0,45,_ZNSt3__114pointer_traitsIPNS_17__hash_value_typeINS_12basic_stringIcNS_11char_traitsIcEENS_9allocatorIcEEEENS_10shared_ptrIN3p2p5relay14TurnAllocationEEEEEE10pointer_toB8ne200100ERSD_
FNA:0,71,_ZNSt3__114pointer_traitsIPNS_17__hash_value_typeINS_12basic_stringIcNS_11char_traitsIcEENS_9allocatorIcEEEES7_EEE10pointer_toB8ne200100ERS8_
FNA:0,0,_ZNSt3__114pointer_traitsIPNS_20__shared_ptr_emplaceIN3p2p3nat10STUNClientENS_9allocatorIS4_EEEEE10pointer_toB8ne200100ERS7_
FNA:0,34,_ZNSt3__114pointer_traitsIPNS_20__shared_ptr_emplaceIN3p2p5relay14TurnAllocationENS_9allocatorIS4_EEEEE10pointer_toB8ne200100ERS7_
FNA:0,14,_ZNSt3__114pointer_traitsIPNS_20__shared_ptr_emplaceIN3p2p9transport12UDPTransportENS_9allocatorIS4_EEEEE10pointer_toB8ne200100ERS7_
FNA:0,7,_ZNSt3__114pointer_traitsIPNS_20__shared_ptr_emplaceIN5boost4asio19basic_stream_socketINS3_2ip3tcpENS3_15any_io_executorEEENS_9allocatorIS8_EEEEE10pointer_toB8ne200100ERSB_
FNA:0,0,_ZNSt3__114pointer_traitsIPNS_20__shared_ptr_emplaceIN5boost4asio21basic_datagram_socketINS3_2ip3udpENS3_15any_io_executorEEENS_9allocatorIS8_EEEEE10pointer_toB8ne200100ERSB_
FNA:0,0,_ZNSt3__114pointer_traitsIPNS_20__shared_ptr_emplaceIN5boost4asio2ip14basic_endpointINS4_3udpEEENS_9allocatorIS7_EEEEE10pointer_toB8ne200100ERSA_
FNA:0,0,_ZNSt3__114pointer_traitsIPNS_20__shared_ptr_emplaceIN5boost4asio2ip14basic_resolverINS4_3udpENS3_15any_io_executorEEENS_9allocatorIS8_EEEEE10pointer_toB8ne200100ERSB_
FNA:0,19,_ZNSt3__114pointer_traitsIPNS_20__shared_ptr_emplaceIN8nlohmann16json_abi_v3_12_06detail21output_string_adapterIcNS_12basic_stringIcNS_11char_traitsIcEENS_9allocatorIcEEEEEENS9_ISC_EEEEE10pointer_toB8ne200100ERSE_
FNA:0,13,_ZNSt3__114pointer_traitsIPNS_20__shared_ptr_emplaceINS_6vectorIhNS_9allocatorIhEEEENS3_IS5_EEEEE10pointer_toB8ne200100ERS7_
FNA:0,0,_ZNSt3__114pointer_traitsIPNS_20__shared_ptr_pointerIPNS_6vectorIN5boost4asio2ip20basic_resolver_entryINS5_3udpEEENS_9allocatorIS8_EEEENS_10shared_ptrISB_E27__shared_ptr_default_deleteISB_SB_EENS9_ISB_EEEEE10pointer_toB8ne200100ERSI_
FNA:0,0,_ZNSt3__114pointer_traitsIPNS_20__shared_ptr_pointerIPvN5boost4asio6detail10socket_ops12noop_deleterENS_9allocatorIvEEEEE10pointer_toB8ne200100ERSA_
FNA:0,243,_ZNSt3__114pointer_traitsIPNS_4pairIKNS_12basic_stringIcNS_11char_traitsIcEENS_9allocatorIcEEEEN8nlohmann16json_abi_v3_12_010basic_jsonINS_3mapENS_6vectorES7_bxydS5_NSA_14adl_serializerENSD_IhNS5_IhEEEEvEEEEE10pointer_toB8ne200100ERSI_
FNA:0,6,_ZNSt3__114pointer_traitsIPNS_4pairIKNS_12basic_stringIcNS_11char_traitsIcEENS_9allocatorIcEEEENS_10shared_ptrIN3p2p5relay14TurnAllocationEEEEEE10pointer_toB8ne200100ERSE_
FNA:0,6,_ZNSt3__114pointer_traitsIPNS_4pairIKNS_12basic_stringIcNS_11char_traitsIcEENS_9allocatorIcEEEES7_EEE10pointer_toB8ne200100ERS9_
FNA:0,1348,_ZNSt3__114pointer_traitsIPcE10pointer_toB8ne200100ERc
FNL:1,191,193
FNA:1,2,_ZNSt3__112__to_addressB8ne200100IKN3p2p5relay7AddressEEEPT_S6_
FNA:1,13509,_ZNSt3__112__to_addressB8ne200100IKcEEPT_S3_
FNA:1,170,_ZNSt3__112__to_addressB8ne200100IKhEEPT_S3_
FNA:1,17,_ZNSt3__112__to_addressB8ne200100IN3p2p5relay13StunAttributeEEEPT_S5_
FNA:1,10,_ZNSt3__112__to_addressB8ne200100IN3p2p5relay7AddressEEEPT_S5_
FNA:1,189,_ZNSt3__112__to_addressB8ne200100IN3p2p8protocol13StunAttributeEEEPT_S5_
FNA:1,0,_ZNSt3__112__to_addressB8ne200100IN5boost4asio2ip20basic_resolver_entryINS3_3udpEEEEEPT_S8_
FNA:1,640,_ZNSt3__112__to_addressB8ne200100IN8nlohmann16json_abi_v3_12_010basic_jsonINS_3mapENS_6vectorENS_12basic_stringIcNS_11char_traitsIcEENS_9allocatorIcEEEEbxydS9_NS2_14adl_serializerENS5_IhNS9_IhEEEEvEEEEPT_SH_
FNA:1,20,_ZNSt3__112__to_addressB8ne200100INS_10shared_ptrIN3p2p5relay14TurnAllocationEEEEEPT_S7_
FNA:1,200,_ZNSt3__112__to_addressB8ne200100INS_10unique_ptrIN3p2p7testing10TestClientENS_14default_deleteIS4_EEEEEEPT_S9_
FNA:1,38,_ZNSt3__112__to_addressB8ne200100INS_12basic_stringIcNS_11char_traitsIcEENS_9allocatorIcEEEEEEPT_S8_
FNA:1,298,_ZNSt3__112__to_addressB8ne200100INS_4pairIN3p2p9detection12DeviceVendorEdEEEEPT_S7_
FNA:1,0,_ZNSt3__112__to_addressB8ne200100INS_4pairINS_6chrono10time_pointINS2_12steady_clockENS2_8durationIxNS_5ratioILl1ELl1000000000EEEEEEEmEEEEPT_SC_
FNA:1,45,_ZNSt3__112__to_addressB8ne200100INS_5arrayIhLm12EEEEEPT_S4_
FNA:1,891,_ZNSt3__112__to_addressB8ne200100INS_6threadEEEPT_S3_
FNA:1,175,_ZNSt3__112__to_addressB8ne200100IPN8nlohmann16json_abi_v3_12_010basic_jsonINS_3mapENS_6vectorENS_12basic_stringIcNS_11char_traitsIcEENS_9allocatorIcEEEEbxydS9_NS2_14adl_serializerENS5_IhNS9_IhEEEEvEEEEPT_SI_
FNA:1,10,_ZNSt3__112__to_addressB8ne200100IPNS_4pairINS_6chrono10time_pointINS2_12steady_clockENS2_8durationIxNS_5ratioILl1ELl1000000000EEEEEEEmEEEEPT_SD_
FNA:1,13117,_ZNSt3__112__to_addressB8ne200100IcEEPT_S2_
FNA:1,1888700,_ZNSt3__112__to_addressB8ne200100IhEEPT_S2_
FNA:1,32,_ZNSt3__112__to_addressB8ne200100ItEEPT_S2_
FNL:2,218,219
FNA:2,0,_ZNSt3__112__to_addressB8ne200100INS_11__wrap_iterIPKcEELi0EEEu7__decayIDTclsr19__to_address_helperIT_EE6__callclsr3stdE7declvalIRKS5_EEEEES7_
FNA:2,45,_ZNSt3__112__to_addressB8ne200100INS_11__wrap_iterIPKhEELi0EEEu7__decayIDTclsr19__to_address_helperIT_EE6__callclsr3stdE7declvalIRKS5_EEEEES7_
FNA:2,0,_ZNSt3__112__to_addressB8ne200100INS_11__wrap_iterIPN8nlohmann16json_abi_v3_12_010basic_jsonINS_3mapENS_6vectorENS_12basic_stringIcNS_11char_traitsIcEENS_9allocatorIcEEEEbxydSA_NS3_14adl_serializerENS6_IhNSA_IhEEEEvEEEELi0EEEu7__decayIDTclsr19__to_address_helperIT_EE6__callclsr3stdE7declvalIRKSJ_EEEEESL_
FNA:2,20,_ZNSt3__112__to_addressB8ne200100INS_11__wrap_iterIPNS_4pairIN3p2p9detection12DeviceVendorEdEEEELi0EEEu7__decayIDTclsr19__to_address_helperIT_EE6__callclsr3stdE7declvalIRKS9_EEEEESB_
FNA:2,38,_ZNSt3__112__to_addressB8ne200100INS_11__wrap_iterIPcEELi0EEEu7__decayIDTclsr19__to_address_helperIT_EE6__callclsr3stdE7declvalIRKS4_EEEEES6_
FNA:2,70,_ZNSt3__112__to_addressB8ne200100INS_11__wrap_iterIPhEELi0EEEu7__decayIDTclsr19__to_address_helperIT_EE6__callclsr3stdE7declvalIRKS4_EEEEES6_
FNA:2,0,_ZNSt3__112__to_addressB8ne200100INS_16reverse_iteratorIPN3p2p5relay13StunAttributeEEELi0EEEu7__decayIDTclsr19__to_address_helperIT_EE6__callclsr3stdE7declvalIRKS7_EEEEES9_
FNA:2,0,_ZNSt3__112__to_addressB8ne200100INS_16reverse_iteratorIPN3p2p5relay7AddressEEELi0EEEu7__decayIDTclsr19__to_address_helperIT_EE6__callclsr3stdE7declvalIRKS7_EEEEES9_
FNA:2,0,_ZNSt3__112__to_addressB8ne200100INS_16reverse_iteratorIPN3p2p8protocol13StunAttributeEEELi0EEEu7__decayIDTclsr19__to_address_helperIT_EE6__callclsr3stdE7declvalIRKS7_EEEEES9_
FNA:2,0,_ZNSt3__112__to_addressB8ne200100INS_16reverse_iteratorIPN5boost4asio2ip20basic_resolver_entryINS4_3udpEEEEELi0EEEu7__decayIDTclsr19__to_address_helperIT_EE6__callclsr3stdE7declvalIRKSA_EEEEESC_
FNA:2,0,_ZNSt3__112__to_addressB8ne200100INS_16reverse_iteratorIPN8nlohmann16json_abi_v3_12_010basic_jsonINS_3mapENS_6vectorENS_12basic_stringIcNS_11char_traitsIcEENS_9allocatorIcEEEEbxydSA_NS3_14adl_serializerENS6_IhNSA_IhEEEEvEEEELi0EEEu7__decayIDTclsr19__to_address_helperIT_EE6__callclsr3stdE7declvalIRKSJ_EEEEESL_
FNA:2,0,_ZNSt3__112__to_addressB8ne200100INS_16reverse_iteratorIPNS_6threadEEELi0EEEu7__decayIDTclsr19__to_address_helperIT_EE6__callclsr3stdE7declvalIRKS5_EEEEES7_
FNA:2,0,_ZNSt3__112__to_addressB8ne200100INS_16reverse_iteratorIPhEELi0EEEu7__decayIDTclsr19__to_address_helperIT_EE6__callclsr3stdE7declvalIRKS4_EEEEES6_
FNL:3,226,227
FNA:3,0,_ZNSt3__119__to_address_helperINS_16reverse_iteratorIPN3p2p5relay13StunAttributeEEEvE6__callB8ne200100ERKS6_
FNA:3,0,_ZNSt3__119__to_address_helperINS_16reverse_iteratorIPN3p2p5relay7AddressEEEvE6__callB8ne200100ERKS6_
FNA:3,0,_ZNSt3__119__to_address_helperINS_16reverse_iteratorIPN3p2p8protocol13StunAttributeEEEvE6__callB8ne200100ERKS6_
FNA:3,0,_ZNSt3__119__to_address_helperINS_16reverse_iteratorIPN5boost4asio2ip20basic_resolver_entryINS4_3udpEEEEEvE6__callB8ne200100ERKS9_
FNA:3,0,_ZNSt3__119__to_address_helperINS_16reverse_iteratorIPN8nlohmann16json_abi_v3_12_010basic_jsonINS_3mapENS_6vectorENS_12basic_stringIcNS_11char_traitsIcEENS_9allocatorIcEEEEbxydSA_NS3_14adl_serializerENS6_IhNSA_IhEEEEvEEEEvE6__callB8ne200100ERKSI_
FNA:3,0,_ZNSt3__119__to_address_helperINS_16reverse_iteratorIPNS_6threadEEEvE6__callB8ne200100ERKS4_
FNA:3,0,_ZNSt3__119__to_address_helperINS_16reverse_iteratorIPhEEvE6__callB8ne200100ERKS3_
FNL:4,236,237
FNA:4,0,_ZNSt3__119__to_address_helperINS_11__wrap_iterIPKcEEvE6__callB8ne200100ERKS4_
FNA:4,45,_ZNSt3__119__to_address_helperINS_11__wrap_iterIPKhEEvE6__callB8ne200100ERKS4_
FNA:4,0,_ZNSt3__119__to_address_helperINS_11__wrap_iterIPN8nlohmann16json_abi_v3_12_010basic_jsonINS_3mapENS_6vectorENS_12basic_stringIcNS_11char_traitsIcEENS_9allocatorIcEEEEbxydSA_NS3_14adl_serializerENS6_IhNSA_IhEEEEvEEEEvE6__callB8ne200100ERKSI_
FNA:4,20,_ZNSt3__119__to_address_helperINS_11__wrap_iterIPNS_4pairIN3p2p9detection12DeviceVendorEdEEEEvE6__callB8ne200100ERKS8_
FNA:4,38,_ZNSt3__119__to_address_helperINS_11__wrap_iterIPcEEvE6__callB8ne200100ERKS3_
FNA:4,70,_ZNSt3__119__to_address_helperINS_11__wrap_iterIPhEEvE6__callB8ne200100ERKS3_
FNL:5,243,244
FNA:5,81,_ZNSt3__110to_addressB8ne200100IcEEDaPT_
FNF:6
FNH:5
DA:172,13894
DA:173,13894
DA:191,1918063
DA:193,1918063
DA:218,173
DA:219,173
DA:226,0
DA:227,0
DA:236,173
DA:237,173
DA:243,81
DA:244,81
LF:12
LH:10
end_of_record
TN:
SF:/Library/Developer/CommandLineTools/SDKs/MacOSX.sdk/usr/include/c++/v1/__memory/shared_count.h
FNL:0,104,106
FNA:0,87,_ZNSt3__119__shared_weak_countC2B8ne200100El
FNL:1,117,117
FNA:1,141,_ZNSt3__119__shared_weak_count12__add_sharedB8ne200100Ev
FNL:2,118,118
FNA:2,14,_ZNSt3__119__shared_weak_count10__add_weakB8ne200100Ev
FNL:3,119,122
FNA:3,266,_ZNSt3__119__shared_weak_count16__release_sharedB8ne200100Ev
FNL:4,125,125
FNA:4,0,_ZNKSt3__119__shared_weak_count9use_countB8ne200100Ev
FNL:5,33,36
FNA:5,0,_ZNSt3__121__libcpp_relaxed_loadB8ne200100IlEET_PKS1_
FNL:6,53,55
FNA:6,155,_ZNSt3__134__libcpp_atomic_refcount_incrementB8ne200100IlEET_RS1_
FNL:7,62,64
FNA:7,266,_ZNSt3__134__libcpp_atomic_refcount_decrementB8ne200100IlEET_RS1_
FNL:8,82,82
FNA:8,87,_ZNSt3__114__shared_countC2B8ne200100El
FNL:9,88,88
FNA:9,141,_ZNSt3__114__shared_count12__add_sharedB8ne200100Ev
FNL:10,89,95
FNA:10,266,_ZNSt3__114__shared_count16__release_sharedB8ne200100Ev
FNL:11,97,97
FNA:11,0,_ZNKSt3__114__shared_count9use_countB8ne200100Ev
FNF:12
FNH:9
DA:33,0
DA:36,0
DA:53,155
DA:55,155
DA:62,266
DA:64,266
DA:82,87
DA:88,141
DA:89,266
DA:90,266
DA:91,87
DA:92,87
DA:94,179
DA:95,266
DA:97,0
DA:104,87
DA:105,87
DA:106,87
DA:117,141
DA:118,14
DA:119,266
DA:120,266
DA:121,87
DA:122,266
DA:125,0
LF:25
LH:21
end_of_record
TN:
SF:/Library/Developer/CommandLineTools/SDKs/MacOSX.sdk/usr/include/c++/v1/__memory/shared_ptr.h
FNL:0,1059,1060
FNA:0,43,_ZNSt3__1eqB8ne200100IN3p2p5relay14TurnAllocationEEEbRKNS_10shared_ptrIT_EEDn
FNA:0,1,_ZNSt3__1eqB8ne200100IN3p2p9transport12UDPTransportEEEbRKNS_10shared_ptrIT_EEDn
FNL:1,114,115
FNA:1,0,_ZNKSt3__120__shared_ptr_pointerIPNS_6vectorIN5boost4asio2ip20basic_resolver_entryINS4_3udpEEENS_9allocatorIS7_EEEENS_10shared_ptrISA_E27__shared_ptr_default_deleteISA_SA_EENS8_ISA_EEE13__get_deleterERKSt9type_info
FNA:1,0,_ZNKSt3__120__shared_ptr_pointerIPvN5boost4asio6detail10socket_ops12noop_deleterENS_9allocatorIvEEE13__get_deleterERKSt9type_info
FNL:2,121,124
FNA:2,0,_ZNSt3__120__shared_ptr_pointerIPNS_6vectorIN5boost4asio2ip20basic_resolver_entryINS4_3udpEEENS_9allocatorIS7_EEEENS_10shared_ptrISA_E27__shared_ptr_default_deleteISA_SA_EENS8_ISA_EEE16__on_zero_sharedEv
FNA:2,0,_ZNSt3__120__shared_ptr_pointerIPvN5boost4asio6detail10socket_ops12noop_deleterENS_9allocatorIvEEE16__on_zero_sharedEv
FNL:3,1253,1253
FNA:3,14,_ZNKSt3__18weak_ptrIN3p2p9transport12UDPTransportEE7expiredB8ne200100Ev
FNA:3,0,_ZNKSt3__18weak_ptrIvE7expiredB8ne200100Ev
FNL:4,127,135
FNA:4,0,_ZNSt3__120__shared_ptr_pointerIPNS_6vectorIN5boost4asio2ip20basic_resolver_entryINS4_3udpEEENS_9allocatorIS7_EEEENS_10shared_ptrISA_E27__shared_ptr_default_deleteISA_SA_EENS8_ISA_EEE21__on_zero_shared_weakEv
FNA:4,0,_ZNSt3__120__shared_ptr_pointerIPvN5boost4asio6detail10socket_ops12noop_deleterENS_9allocatorIvEEE21__on_zero_shared_weakEv
FNL:5,1276,1276
FNA:5,6,_ZNSt3__18weak_ptrIN3p2p6server10StunServerEEC1Ev
FNA:5,6,_ZNSt3__18weak_ptrIN3p2p6server10StunServerEEC2Ev
FNA:5,14,_ZNSt3__18weak_ptrIN3p2p9transport12UDPTransportEEC1Ev
FNA:5,14,_ZNSt3__18weak_ptrIN3p2p9transport12UDPTransportEEC2Ev
FNL:6,1279,1282
FNA:6,0,_ZNSt3__18weak_ptrIvEC1ERKS1_
FNA:6,0,_ZNSt3__18weak_ptrIvEC2ERKS1_
FNL:7,1286,1289
FNA:7,14,_ZNSt3__18weak_ptrIN3p2p9transport12UDPTransportEEC1IS3_Li0EEERKNS_10shared_ptrIT_EE
FNA:7,14,_ZNSt3__18weak_ptrIN3p2p9transport12UDPTransportEEC2IS3_Li0EEERKNS_10shared_ptrIT_EE
FNA:7,0,_ZNSt3__18weak_ptrIvEC1IvLi0EEERKNS_10shared_ptrIT_EE
FNA:7,0,_ZNSt3__18weak_ptrIvEC2IvLi0EEERKNS_10shared_ptrIT_EE
FNL:8,1313,1316
FNA:8,6,_ZNSt3__18weak_ptrIN3p2p6server10StunServerEED1Ev
FNA:8,6,_ZNSt3__18weak_ptrIN3p2p6server10StunServerEED2Ev
FNA:8,28,_ZNSt3__18weak_ptrIN3p2p9transport12UDPTransportEED1Ev
FNA:8,28,_ZNSt3__18weak_ptrIN3p2p9transport12UDPTransportEED2Ev
FNA:8,0,_ZNSt3__18weak_ptrIvED1Ev
FNA:8,0,_ZNSt3__18weak_ptrIvED2Ev
FNL:9,1346,1348
FNA:9,14,_ZNSt3__18weak_ptrIN3p2p9transport12UDPTransportEEaSIS3_Li0EEERS4_RKNS_10shared_ptrIT_EE
FNL:10,1352,1355
FNA:10,14,_ZNSt3__18weak_ptrIN3p2p9transport12UDPTransportEE4swapERS4_
FNL:11,143
FNA:11,0,_ZNSt3__120__shared_ptr_emplaceIN3p2p3nat10STUNClientENS_9allocatorIS3_EEED0Ev
FNA:11,0,_ZNSt3__120__shared_ptr_emplaceIN3p2p3nat10STUNClientENS_9allocatorIS3_EEED1Ev
FNA:11,0,_ZNSt3__120__shared_ptr_emplaceIN3p2p3nat10STUNClientENS_9allocatorIS3_EEED2Ev
FNA:11,0,_ZNSt3__120__shared_ptr_emplaceIN3p2p5relay14TurnAllocationENS_9allocatorIS3_EEED0Ev
FNA:11,0,_ZNSt3__120__shared_ptr_emplaceIN3p2p5relay14TurnAllocationENS_9allocatorIS3_EEED1Ev
FNA:11,0,_ZNSt3__120__shared_ptr_emplaceIN3p2p5relay14TurnAllocationENS_9allocatorIS3_EEED2Ev
FNA:11,0,_ZNSt3__120__shared_ptr_emplaceIN3p2p9transport12UDPTransportENS_9allocatorIS3_EEED0Ev
FNA:11,0,_ZNSt3__120__shared_ptr_emplaceIN3p2p9transport12UDPTransportENS_9allocatorIS3_EEED1Ev
FNA:11,0,_ZNSt3__120__shared_ptr_emplaceIN3p2p9transport12UDPTransportENS_9allocatorIS3_EEED2Ev
FNA:11,0,_ZNSt3__120__shared_ptr_emplaceIN5boost4asio19basic_stream_socketINS2_2ip3tcpENS2_15any_io_executorEEENS_9allocatorIS7_EEED0Ev
FNA:11,0,_ZNSt3__120__shared_ptr_emplaceIN5boost4asio19basic_stream_socketINS2_2ip3tcpENS2_15any_io_executorEEENS_9allocatorIS7_EEED1Ev
FNA:11,0,_ZNSt3__120__shared_ptr_emplaceIN5boost4asio19basic_stream_socketINS2_2ip3tcpENS2_15any_io_executorEEENS_9allocatorIS7_EEED2Ev
FNA:11,0,_ZNSt3__120__shared_ptr_emplaceIN5boost4asio21basic_datagram_socketINS2_2ip3udpENS2_15any_io_executorEEENS_9allocatorIS7_EEED0Ev
FNA:11,0,_ZNSt3__120__shared_ptr_emplaceIN5boost4asio21basic_datagram_socketINS2_2ip3udpENS2_15any_io_executorEEENS_9allocatorIS7_EEED1Ev
FNA:11,0,_ZNSt3__120__shared_ptr_emplaceIN5boost4asio21basic_datagram_socketINS2_2ip3udpENS2_15any_io_executorEEENS_9allocatorIS7_EEED2Ev
FNA:11,0,_ZNSt3__120__shared_ptr_emplaceIN5boost4asio2ip14basic_endpointINS3_3udpEEENS_9allocatorIS6_EEED0Ev
FNA:11,0,_ZNSt3__120__shared_ptr_emplaceIN5boost4asio2ip14basic_endpointINS3_3udpEEENS_9allocatorIS6_EEED1Ev
FNA:11,0,_ZNSt3__120__shared_ptr_emplaceIN5boost4asio2ip14basic_endpointINS3_3udpEEENS_9allocatorIS6_EEED2Ev
FNA:11,0,_ZNSt3__120__shared_ptr_emplaceIN5boost4asio2ip14basic_resolverINS3_3udpENS2_15any_io_executorEEENS_9allocatorIS7_EEED0Ev
FNA:11,0,_ZNSt3__120__shared_ptr_emplaceIN5boost4asio2ip14basic_resolverINS3_3udpENS2_15any_io_executorEEENS_9allocatorIS7_EEED1Ev
FNA:11,0,_ZNSt3__120__shared_ptr_emplaceIN5boost4asio2ip14basic_resolverINS3_3udpENS2_15any_io_executorEEENS_9allocatorIS7_EEED2Ev
FNA:11,0,_ZNSt3__120__shared_ptr_emplaceIN8nlohmann16json_abi_v3_12_06detail21output_string_adapterIcNS_12basic_stringIcNS_11char_traitsIcEENS_9allocatorIcEEEEEENS8_ISB_EEED0Ev
FNA:11,0,_ZNSt3__120__shared_ptr_emplaceIN8nlohmann16json_abi_v3_12_06detail21output_string_adapterIcNS_12basic_stringIcNS_11char_traitsIcEENS_9allocatorIcEEEEEENS8_ISB_EEED1Ev
FNA:11,0,_ZNSt3__120__shared_ptr_emplaceIN8nlohmann16json_abi_v3_12_06detail21output_string_adapterIcNS_12basic_stringIcNS_11char_traitsIcEENS_9allocatorIcEEEEEENS8_ISB_EEED2Ev
FNA:11,0,_ZNSt3__120__shared_ptr_emplaceINS_6vectorIhNS_9allocatorIhEEEENS2_IS4_EEED0Ev
FNA:11,0,_ZNSt3__120__shared_ptr_emplaceINS_6vectorIhNS_9allocatorIhEEEENS2_IS4_EEED1Ev
FNA:11,0,_ZNSt3__120__shared_ptr_emplaceINS_6vectorIhNS_9allocatorIhEEEENS2_IS4_EEED2Ev
FNL:12,1438,1438
FNA:12,6,_ZNSt3__123enable_shared_from_thisIN3p2p6server10StunServerEEC2B8ne200100Ev
FNA:12,14,_ZNSt3__123enable_shared_from_thisIN3p2p9transport12UDPTransportEEC2B8ne200100Ev
FNL:13,1441,1441
FNA:13,6,_ZNSt3__123enable_shared_from_thisIN3p2p6server10StunServerEED2B8ne200100Ev
FNA:13,14,_ZNSt3__123enable_shared_from_thisIN3p2p9transport12UDPTransportEED2B8ne200100Ev
FNL:14,1444,1444
FNA:14,38,_ZNSt3__123enable_shared_from_thisIN3p2p9transport12UDPTransportEE16shared_from_thisB8ne200100Ev
FNL:15,158,162
FNA:15,0,_ZNSt3__120__shared_ptr_emplaceIN3p2p3nat10STUNClientENS_9allocatorIS3_EEEC1B8ne200100IJRN5boost4asio10io_contextERKNS_12basic_stringIcNS_11char_traitsIcEENS4_IcEEEERtES5_Li0EEES5_DpOT_
FNA:15,0,_ZNSt3__120__shared_ptr_emplaceIN3p2p3nat10STUNClientENS_9allocatorIS3_EEEC2B8ne200100IJRN5boost4asio10io_contextERKNS_12basic_stringIcNS_11char_traitsIcEENS4_IcEEEERtES5_Li0EEES5_DpOT_
FNA:15,34,_ZNSt3__120__shared_ptr_emplaceIN3p2p5relay14TurnAllocationENS_9allocatorIS3_EEEC1B8ne200100IJRNS_12basic_stringIcNS_11char_traitsIcEENS4_IcEEEERKNS2_7AddressERSE_RjRNS2_17TransportProtocolEES5_Li0EEES5_DpOT_
FNA:15,34,_ZNSt3__120__shared_ptr_emplaceIN3p2p5relay14TurnAllocationENS_9allocatorIS3_EEEC2B8ne200100IJRNS_12basic_stringIcNS_11char_traitsIcEENS4_IcEEEERKNS2_7AddressERSE_RjRNS2_17TransportProtocolEES5_Li0EEES5_DpOT_
FNA:15,14,_ZNSt3__120__shared_ptr_emplaceIN3p2p9transport12UDPTransportENS_9allocatorIS3_EEEC1B8ne200100IJRN5boost4asio10io_contextEiES5_Li0EEES5_DpOT_
FNA:15,14,_ZNSt3__120__shared_ptr_emplaceIN3p2p9transport12UDPTransportENS_9allocatorIS3_EEEC2B8ne200100IJRN5boost4asio10io_contextEiES5_Li0EEES5_DpOT_
FNA:15,7,_ZNSt3__120__shared_ptr_emplaceIN5boost4asio19basic_stream_socketINS2_2ip3tcpENS2_15any_io_executorEEENS_9allocatorIS7_EEEC1B8ne200100IJRNS2_10io_contextEES9_Li0EEES9_DpOT_
FNA:15,7,_ZNSt3__120__shared_ptr_emplaceIN5boost4asio19basic_stream_socketINS2_2ip3tcpENS2_15any_io_executorEEENS_9allocatorIS7_EEEC2B8ne200100IJRNS2_10io_contextEES9_Li0EEES9_DpOT_
FNA:15,0,_ZNSt3__120__shared_ptr_emplaceIN5boost4asio21basic_datagram_socketINS2_2ip3udpENS2_15any_io_executorEEENS_9allocatorIS7_EEEC1B8ne200100IJRNS2_10io_contextEES9_Li0EEES9_DpOT_
FNA:15,0,_ZNSt3__120__shared_ptr_emplaceIN5boost4asio21basic_datagram_socketINS2_2ip3udpENS2_15any_io_executorEEENS_9allocatorIS7_EEEC2B8ne200100IJRNS2_10io_contextEES9_Li0EEES9_DpOT_
FNA:15,0,_ZNSt3__120__shared_ptr_emplaceIN5boost4asio2ip14basic_endpointINS3_3udpEEENS_9allocatorIS6_EEEC1B8ne200100IJES8_Li0EEES8_DpOT_
FNA:15,0,_ZNSt3__120__shared_ptr_emplaceIN5boost4asio2ip14basic_endpointINS3_3udpEEENS_9allocatorIS6_EEEC2B8ne200100IJES8_Li0EEES8_DpOT_
FNA:15,0,_ZNSt3__120__shared_ptr_emplaceIN5boost4asio2ip14basic_resolverINS3_3udpENS2_15any_io_executorEEENS_9allocatorIS7_EEEC1B8ne200100IJRNS2_10io_contextEES9_Li0EEES9_DpOT_
FNA:15,0,_ZNSt3__120__shared_ptr_emplaceIN5boost4asio2ip14basic_resolverINS3_3udpENS2_15any_io_executorEEENS_9allocatorIS7_EEEC2B8ne200100IJRNS2_10io_contextEES9_Li0EEES9_DpOT_
FNA:15,19,_ZNSt3__120__shared_ptr_emplaceIN8nlohmann16json_abi_v3_12_06detail21output_string_adapterIcNS_12basic_stringIcNS_11char_traitsIcEENS_9allocatorIcEEEEEENS8_ISB_EEEC1B8ne200100IJRSA_ESC_Li0EEESC_DpOT_
FNA:15,19,_ZNSt3__120__shared_ptr_emplaceIN8nlohmann16json_abi_v3_12_06detail21output_string_adapterIcNS_12basic_stringIcNS_11char_traitsIcEENS_9allocatorIcEEEEEENS8_ISB_EEEC2B8ne200100IJRSA_ESC_Li0EEESC_DpOT_
FNA:15,13,_ZNSt3__120__shared_ptr_emplaceINS_6vectorIhNS_9allocatorIhEEEENS2_IS4_EEEC1B8ne200100IJRKS4_ES5_Li0EEES5_DpOT_
FNA:15,0,_ZNSt3__120__shared_ptr_emplaceINS_6vectorIhNS_9allocatorIhEEEENS2_IS4_EEEC1B8ne200100IJiES5_Li0EEES5_DpOT_
FNA:15,13,_ZNSt3__120__shared_ptr_emplaceINS_6vectorIhNS_9allocatorIhEEEENS2_IS4_EEEC2B8ne200100IJRKS4_ES5_Li0EEES5_DpOT_
FNA:15,0,_ZNSt3__120__shared_ptr_emplaceINS_6vectorIhNS_9allocatorIhEEEENS2_IS4_EEEC2B8ne200100IJiES5_Li0EEES5_DpOT_
FNL:16,164,164
FNA:16,0,_ZNSt3__120__shared_ptr_emplaceIN3p2p3nat10STUNClientENS_9allocatorIS3_EEE11__get_allocB8ne200100Ev
FNA:16,102,_ZNSt3__120__shared_ptr_emplaceIN3p2p5relay14TurnAllocationENS_9allocatorIS3_EEE11__get_allocB8ne200100Ev
FNA:16,42,_ZNSt3__120__shared_ptr_emplaceIN3p2p9transport12UDPTransportENS_9allocatorIS3_EEE11__get_allocB8ne200100Ev
FNA:16,21,_ZNSt3__120__shared_ptr_emplaceIN5boost4asio19basic_stream_socketINS2_2ip3tcpENS2_15any_io_executorEEENS_9allocatorIS7_EEE11__get_allocB8ne200100Ev
FNA:16,0,_ZNSt3__120__shared_ptr_emplaceIN5boost4asio21basic_datagram_socketINS2_2ip3udpENS2_15any_io_executorEEENS_9allocatorIS7_EEE11__get_allocB8ne200100Ev
FNA:16,0,_ZNSt3__120__shared_ptr_emplaceIN5boost4asio2ip14basic_endpointINS3_3udpEEENS_9allocatorIS6_EEE11__get_allocB8ne200100Ev
FNA:16,0,_ZNSt3__120__shared_ptr_emplaceIN5boost4asio2ip14basic_resolverINS3_3udpENS2_15any_io_executorEEENS_9allocatorIS7_EEE11__get_allocB8ne200100Ev
FNA:16,57,_ZNSt3__120__shared_ptr_emplaceIN8nlohmann16json_abi_v3_12_06detail21output_string_adapterIcNS_12basic_stringIcNS_11char_traitsIcEENS_9allocatorIcEEEEEENS8_ISB_EEE11__get_allocB8ne200100Ev
FNA:16,39,_ZNSt3__120__shared_ptr_emplaceINS_6vectorIhNS_9allocatorIhEEEENS2_IS4_EEE11__get_allocB8ne200100Ev
FNL:17,166,166
FNA:17,0,_ZNSt3__120__shared_ptr_emplaceIN3p2p3nat10STUNClientENS_9allocatorIS3_EEE10__get_elemB8ne200100Ev
FNA:17,102,_ZNSt3__120__shared_ptr_emplaceIN3p2p5relay14TurnAllocationENS_9allocatorIS3_EEE10__get_elemB8ne200100Ev
FNA:17,42,_ZNSt3__120__shared_ptr_emplaceIN3p2p9transport12UDPTransportENS_9allocatorIS3_EEE10__get_elemB8ne200100Ev
FNA:17,21,_ZNSt3__120__shared_ptr_emplaceIN5boost4asio19basic_stream_socketINS2_2ip3tcpENS2_15any_io_executorEEENS_9allocatorIS7_EEE10__get_elemB8ne200100Ev
FNA:17,0,_ZNSt3__120__shared_ptr_emplaceIN5boost4asio21basic_datagram_socketINS2_2ip3udpENS2_15any_io_executorEEENS_9allocatorIS7_EEE10__get_elemB8ne200100Ev
FNA:17,0,_ZNSt3__120__shared_ptr_emplaceIN5boost4asio2ip14basic_endpointINS3_3udpEEENS_9allocatorIS6_EEE10__get_elemB8ne200100Ev
FNA:17,0,_ZNSt3__120__shared_ptr_emplaceIN5boost4asio2ip14basic_resolverINS3_3udpENS2_15any_io_executorEEENS_9allocatorIS7_EEE10__get_elemB8ne200100Ev
FNA:17,57,_ZNSt3__120__shared_ptr_emplaceIN8nlohmann16json_abi_v3_12_06detail21output_string_adapterIcNS_12basic_stringIcNS_11char_traitsIcEENS_9allocatorIcEEEEEENS8_ISB_EEE10__get_elemB8ne200100Ev
FNA:17,39,_ZNSt3__120__shared_ptr_emplaceINS_6vectorIhNS_9allocatorIhEEEENS2_IS4_EEE10__get_elemB8ne200100Ev
FNL:18,177,181
FNA:18,0,_ZNSt3__120__shared_ptr_emplaceIN3p2p3nat10STUNClientENS_9allocatorIS3_EEE21__on_zero_shared_implB8ne200100IS5_Li0EEEvv
FNA:18,34,_ZNSt3__120__shared_ptr_emplaceIN3p2p5relay14TurnAllocationENS_9allocatorIS3_EEE21__on_zero_shared_implB8ne200100IS5_Li0EEEvv
FNA:18,14,_ZNSt3__120__shared_ptr_emplaceIN3p2p9transport12UDPTransportENS_9allocatorIS3_EEE21__on_zero_shared_implB8ne200100IS5_Li0EEEvv
FNA:18,7,_ZNSt3__120__shared_ptr_emplaceIN5boost4asio19basic_stream_socketINS2_2ip3tcpENS2_15any_io_executorEEENS_9allocatorIS7_EEE21__on_zero_shared_implB8ne200100IS9_Li0EEEvv
FNA:18,0,_ZNSt3__120__shared_ptr_emplaceIN5boost4asio21basic_datagram_socketINS2_2ip3udpENS2_15any_io_executorEEENS_9allocatorIS7_EEE21__on_zero_shared_implB8ne200100IS9_Li0EEEvv
FNA:18,0,_ZNSt3__120__shared_ptr_emplaceIN5boost4asio2ip14basic_endpointINS3_3udpEEENS_9allocatorIS6_EEE21__on_zero_shared_implB8ne200100IS8_Li0EEEvv
FNA:18,0,_ZNSt3__120__shared_ptr_emplaceIN5boost4asio2ip14basic_resolverINS3_3udpENS2_15any_io_executorEEENS_9allocatorIS7_EEE21__on_zero_shared_implB8ne200100IS9_Li0EEEvv
FNA:18,19,_ZNSt3__120__shared_ptr_emplaceIN8nlohmann16json_abi_v3_12_06detail21output_string_adapterIcNS_12basic_stringIcNS_11char_traitsIcEENS_9allocatorIcEEEEEENS8_ISB_EEE21__on_zero_shared_implB8ne200100ISC_Li0EEEvv
FNA:18,13,_ZNSt3__120__shared_ptr_emplaceINS_6vectorIhNS_9allocatorIhEEEENS2_IS4_EEE21__on_zero_shared_implB8ne200100IS5_Li0EEEvv
FNL:19,183,183
FNA:19,0,_ZNSt3__120__shared_ptr_emplaceIN3p2p3nat10STUNClientENS_9allocatorIS3_EEE16__on_zero_sharedEv
FNA:19,34,_ZNSt3__120__shared_ptr_emplaceIN3p2p5relay14TurnAllocationENS_9allocatorIS3_EEE16__on_zero_sharedEv
FNA:19,14,_ZNSt3__120__shared_ptr_emplaceIN3p2p9transport12UDPTransportENS_9allocatorIS3_EEE16__on_zero_sharedEv
FNA:19,7,_ZNSt3__120__shared_ptr_emplaceIN5boost4asio19basic_stream_socketINS2_2ip3tcpENS2_15any_io_executorEEENS_9allocatorIS7_EEE16__on_zero_sharedEv
FNA:19,0,_ZNSt3__120__shared_ptr_emplaceIN5boost4asio21basic_datagram_socketINS2_2ip3udpENS2_15any_io_executorEEENS_9allocatorIS7_EEE16__on_zero_sharedEv
FNA:19,0,_ZNSt3__120__shared_ptr_emplaceIN5boost4asio2ip14basic_endpointINS3_3udpEEENS_9allocatorIS6_EEE16__on_zero_sharedEv
FNA:19,0,_ZNSt3__120__shared_ptr_emplaceIN5boost4asio2ip14basic_resolverINS3_3udpENS2_15any_io_executorEEENS_9allocatorIS7_EEE16__on_zero_sharedEv
FNA:19,19,_ZNSt3__120__shared_ptr_emplaceIN8nlohmann16json_abi_v3_12_06detail21output_string_adapterIcNS_12basic_stringIcNS_11char_traitsIcEENS_9allocatorIcEEEEEENS8_ISB_EEE16__on_zero_sharedEv
FNA:19,13,_ZNSt3__120__shared_ptr_emplaceINS_6vectorIhNS_9allocatorIhEEEENS2_IS4_EEE16__on_zero_sharedEv
FNL:20,185,191
FNA:20,0,_ZNSt3__120__shared_ptr_emplaceIN3p2p3nat10STUNClientENS_9allocatorIS3_EEE21__on_zero_shared_weakEv
FNA:20,34,_ZNSt3__120__shared_ptr_emplaceIN3p2p5relay14TurnAllocationENS_9allocatorIS3_EEE21__on_zero_shared_weakEv
FNA:20,14,_ZNSt3__120__shared_ptr_emplaceIN3p2p9transport12UDPTransportENS_9allocatorIS3_EEE21__on_zero_shared_weakEv
FNA:20,7,_ZNSt3__120__shared_ptr_emplaceIN5boost4asio19basic_stream_socketINS2_2ip3tcpENS2_15any_io_executorEEENS_9allocatorIS7_EEE21__on_zero_shared_weakEv
FNA:20,0,_ZNSt3__120__shared_ptr_emplaceIN5boost4asio21basic_datagram_socketINS2_2ip3udpENS2_15any_io_executorEEENS_9allocatorIS7_EEE21__on_zero_shared_weakEv
FNA:20,0,_ZNSt3__120__shared_ptr_emplaceIN5boost4asio2ip14basic_endpointINS3_3udpEEENS_9allocatorIS6_EEE21__on_zero_shared_weakEv
FNA:20,0,_ZNSt3__120__shared_ptr_emplaceIN5boost4asio2ip14basic_resolverINS3_3udpENS2_15any_io_executorEEENS_9allocatorIS7_EEE21__on_zero_shared_weakEv
FNA:20,19,_ZNSt3__120__shared_ptr_emplaceIN8nlohmann16json_abi_v3_12_06detail21output_string_adapterIcNS_12basic_stringIcNS_11char_traitsIcEENS_9allocatorIcEEEEEENS8_ISB_EEE21__on_zero_shared_weakEv
FNA:20,13,_ZNSt3__120__shared_ptr_emplaceINS_6vectorIhNS_9allocatorIhEEEENS2_IS4_EEE21__on_zero_shared_weakEv
FNL:21,203,203
FNA:21,0,_ZNSt3__120__shared_ptr_emplaceIN3p2p3nat10STUNClientENS_9allocatorIS3_EEE8_StorageC1B8ne200100EOS5_
FNA:21,0,_ZNSt3__120__shared_ptr_emplaceIN3p2p3nat10STUNClientENS_9allocatorIS3_EEE8_StorageC2B8ne200100EOS5_
FNA:21,34,_ZNSt3__120__shared_ptr_emplaceIN3p2p5relay14TurnAllocationENS_9allocatorIS3_EEE8_StorageC1B8ne200100EOS5_
FNA:21,34,_ZNSt3__120__shared_ptr_emplaceIN3p2p5relay14TurnAllocationENS_9allocatorIS3_EEE8_StorageC2B8ne200100EOS5_
FNA:21,14,_ZNSt3__120__shared_ptr_emplaceIN3p2p9transport12UDPTransportENS_9allocatorIS3_EEE8_StorageC1B8ne200100EOS5_
FNA:21,14,_ZNSt3__120__shared_ptr_emplaceIN3p2p9transport12UDPTransportENS_9allocatorIS3_EEE8_StorageC2B8ne200100EOS5_
FNA:21,7,_ZNSt3__120__shared_ptr_emplaceIN5boost4asio19basic_stream_socketINS2_2ip3tcpENS2_15any_io_executorEEENS_9allocatorIS7_EEE8_StorageC1B8ne200100EOS9_
FNA:21,7,_ZNSt3__120__shared_ptr_emplaceIN5boost4asio19basic_stream_socketINS2_2ip3tcpENS2_15any_io_executorEEENS_9allocatorIS7_EEE8_StorageC2B8ne200100EOS9_
FNA:21,0,_ZNSt3__120__shared_ptr_emplaceIN5boost4asio21basic_datagram_socketINS2_2ip3udpENS2_15any_io_executorEEENS_9allocatorIS7_EEE8_StorageC1B8ne200100EOS9_
FNA:21,0,_ZNSt3__120__shared_ptr_emplaceIN5boost4asio21basic_datagram_socketINS2_2ip3udpENS2_15any_io_executorEEENS_9allocatorIS7_EEE8_StorageC2B8ne200100EOS9_
FNA:21,0,_ZNSt3__120__shared_ptr_emplaceIN5boost4asio2ip14basic_endpointINS3_3udpEEENS_9allocatorIS6_EEE8_StorageC1B8ne200100EOS8_
FNA:21,0,_ZNSt3__120__shared_ptr_emplaceIN5boost4asio2ip14basic_endpointINS3_3udpEEENS_9allocatorIS6_EEE8_StorageC2B8ne200100EOS8_
FNA:21,0,_ZNSt3__120__shared_ptr_emplaceIN5boost4asio2ip14basic_resolverINS3_3udpENS2_15any_io_executorEEENS_9allocatorIS7_EEE8_StorageC1B8ne200100EOS9_
FNA:21,0,_ZNSt3__120__shared_ptr_emplaceIN5boost4asio2ip14basic_resolverINS3_3udpENS2_15any_io_executorEEENS_9allocatorIS7_EEE8_StorageC2B8ne200100EOS9_
FNA:21,19,_ZNSt3__120__shared_ptr_emplaceIN8nlohmann16json_abi_v3_12_06detail21output_string_adapterIcNS_12basic_stringIcNS_11char_traitsIcEENS_9allocatorIcEEEEEENS8_ISB_EEE8_StorageC1B8ne200100EOSC_
FNA:21,19,_ZNSt3__120__shared_ptr_emplaceIN8nlohmann16json_abi_v3_12_06detail21output_string_adapterIcNS_12basic_stringIcNS_11char_traitsIcEENS_9allocatorIcEEEEEENS8_ISB_EEE8_StorageC2B8ne200100EOSC_
FNA:21,13,_ZNSt3__120__shared_ptr_emplaceINS_6vectorIhNS_9allocatorIhEEEENS2_IS4_EEE8_StorageC1B8ne200100EOS5_
FNA:21,13,_ZNSt3__120__shared_ptr_emplaceINS_6vectorIhNS_9allocatorIhEEEENS2_IS4_EEE8_StorageC2B8ne200100EOS5_
FNL:22,204,204
FNA:22,0,_ZNSt3__120__shared_ptr_emplaceIN3p2p3nat10STUNClientENS_9allocatorIS3_EEE8_StorageD1B8ne200100Ev
FNA:22,0,_ZNSt3__120__shared_ptr_emplaceIN3p2p3nat10STUNClientENS_9allocatorIS3_EEE8_StorageD2B8ne200100Ev
FNA:22,34,_ZNSt3__120__shared_ptr_emplaceIN3p2p5relay14TurnAllocationENS_9allocatorIS3_EEE8_StorageD1B8ne200100Ev
FNA:22,34,_ZNSt3__120__shared_ptr_emplaceIN3p2p5relay14TurnAllocationENS_9allocatorIS3_EEE8_StorageD2B8ne200100Ev
FNA:22,14,_ZNSt3__120__shared_ptr_emplaceIN3p2p9transport12UDPTransportENS_9allocatorIS3_EEE8_StorageD1B8ne200100Ev
FNA:22,14,_ZNSt3__120__shared_ptr_emplaceIN3p2p9transport12UDPTransportENS_9allocatorIS3_EEE8_StorageD2B8ne200100Ev
FNA:22,7,_ZNSt3__120__shared_ptr_emplaceIN5boost4asio19basic_stream_socketINS2_2ip3tcpENS2_15any_io_executorEEENS_9allocatorIS7_EEE8_StorageD1B8ne200100Ev
FNA:22,7,_ZNSt3__120__shared_ptr_emplaceIN5boost4asio19basic_stream_socketINS2_2ip3tcpENS2_15any_io_executorEEENS_9allocatorIS7_EEE8_StorageD2B8ne200100Ev
FNA:22,0,_ZNSt3__120__shared_ptr_emplaceIN5boost4asio21basic_datagram_socketINS2_2ip3udpENS2_15any_io_executorEEENS_9allocatorIS7_EEE8_StorageD1B8ne200100Ev
FNA:22,0,_ZNSt3__120__shared_ptr_emplaceIN5boost4asio21basic_datagram_socketINS2_2ip3udpENS2_15any_io_executorEEENS_9allocatorIS7_EEE8_StorageD2B8ne200100Ev
FNA:22,0,_ZNSt3__120__shared_ptr_emplaceIN5boost4asio2ip14basic_endpointINS3_3udpEEENS_9allocatorIS6_EEE8_StorageD1B8ne200100Ev
FNA:22,0,_ZNSt3__120__shared_ptr_emplaceIN5boost4asio2ip14basic_endpointINS3_3udpEEENS_9allocatorIS6_EEE8_StorageD2B8ne200100Ev
FNA:22,0,_ZNSt3__120__shared_ptr_emplaceIN5boost4asio2ip14basic_resolverINS3_3udpENS2_15any_io_executorEEENS_9allocatorIS7_EEE8_StorageD1B8ne200100Ev
FNA:22,0,_ZNSt3__120__shared_ptr_emplaceIN5boost4asio2ip14basic_resolverINS3_3udpENS2_15any_io_executorEEENS_9allocatorIS7_EEE8_StorageD2B8ne200100Ev
FNA:22,19,_ZNSt3__120__shared_ptr_emplaceIN8nlohmann16json_abi_v3_12_06detail21output_string_adapterIcNS_12basic_stringIcNS_11char_traitsIcEENS_9allocatorIcEEEEEENS8_ISB_EEE8_StorageD1B8ne200100Ev
FNA:22,19,_ZNSt3__120__shared_ptr_emplaceIN8nlohmann16json_abi_v3_12_06detail21output_string_adapterIcNS_12basic_stringIcNS_11char_traitsIcEENS_9allocatorIcEEEEEENS8_ISB_EEE8_StorageD2B8ne200100Ev
FNA:22,13,_ZNSt3__120__shared_ptr_emplaceINS_6vectorIhNS_9allocatorIhEEEENS2_IS4_EEE8_StorageD1B8ne200100Ev
FNA:22,13,_ZNSt3__120__shared_ptr_emplaceINS_6vectorIhNS_9allocatorIhEEEENS2_IS4_EEE8_StorageD2B8ne200100Ev
FNL:23,206,207
FNA:23,0,_ZNSt3__120__shared_ptr_emplaceIN3p2p3nat10STUNClientENS_9allocatorIS3_EEE8_Storage11__get_allocB8ne200100Ev
FNA:23,170,_ZNSt3__120__shared_ptr_emplaceIN3p2p5relay14TurnAllocationENS_9allocatorIS3_EEE8_Storage11__get_allocB8ne200100Ev
FNA:23,70,_ZNSt3__120__shared_ptr_emplaceIN3p2p9transport12UDPTransportENS_9allocatorIS3_EEE8_Storage11__get_allocB8ne200100Ev
FNA:23,35,_ZNSt3__120__shared_ptr_emplaceIN5boost4asio19basic_stream_socketINS2_2ip3tcpENS2_15any_io_executorEEENS_9allocatorIS7_EEE8_Storage11__get_allocB8ne200100Ev
FNA:23,0,_ZNSt3__120__shared_ptr_emplaceIN5boost4asio21basic_datagram_socketINS2_2ip3udpENS2_15any_io_executorEEENS_9allocatorIS7_EEE8_Storage11__get_allocB8ne200100Ev
FNA:23,0,_ZNSt3__120__shared_ptr_emplaceIN5boost4asio2ip14basic_endpointINS3_3udpEEENS_9allocatorIS6_EEE8_Storage11__get_allocB8ne200100Ev
FNA:23,0,_ZNSt3__120__shared_ptr_emplaceIN5boost4asio2ip14basic_resolverINS3_3udpENS2_15any_io_executorEEENS_9allocatorIS7_EEE8_Storage11__get_allocB8ne200100Ev
FNA:23,95,_ZNSt3__120__shared_ptr_emplaceIN8nlohmann16json_abi_v3_12_06detail21output_string_adapterIcNS_12basic_stringIcNS_11char_traitsIcEENS_9allocatorIcEEEEEENS8_ISB_EEE8_Storage11__get_allocB8ne200100Ev
FNA:23,65,_ZNSt3__120__shared_ptr_emplaceINS_6vectorIhNS_9allocatorIhEEEENS2_IS4_EEE8_Storage11__get_allocB8ne200100Ev
FNL:24,210,211
FNA:24,0,_ZNSt3__120__shared_ptr_emplaceIN3p2p3nat10STUNClientENS_9allocatorIS3_EEE8_Storage10__get_elemB8ne200100Ev
FNA:24,102,_ZNSt3__120__shared_ptr_emplaceIN3p2p5relay14TurnAllocationENS_9allocatorIS3_EEE8_Storage10__get_elemB8ne200100Ev
FNA:24,42,_ZNSt3__120__shared_ptr_emplaceIN3p2p9transport12UDPTransportENS_9allocatorIS3_EEE8_Storage10__get_elemB8ne200100Ev
FNA:24,21,_ZNSt3__120__shared_ptr_emplaceIN5boost4asio19basic_stream_socketINS2_2ip3tcpENS2_15any_io_executorEEENS_9allocatorIS7_EEE8_Storage10__get_elemB8ne200100Ev
FNA:24,0,_ZNSt3__120__shared_ptr_emplaceIN5boost4asio21basic_datagram_socketINS2_2ip3udpENS2_15any_io_executorEEENS_9allocatorIS7_EEE8_Storage10__get_elemB8ne200100Ev
FNA:24,0,_ZNSt3__120__shared_ptr_emplaceIN5boost4asio2ip14basic_endpointINS3_3udpEEENS_9allocatorIS6_EEE8_Storage10__get_elemB8ne200100Ev
FNA:24,0,_ZNSt3__120__shared_ptr_emplaceIN5boost4asio2ip14basic_resolverINS3_3udpENS2_15any_io_executorEEENS_9allocatorIS7_EEE8_Storage10__get_elemB8ne200100Ev
FNA:24,57,_ZNSt3__120__shared_ptr_emplaceIN8nlohmann16json_abi_v3_12_06detail21output_string_adapterIcNS_12basic_stringIcNS_11char_traitsIcEENS_9allocatorIcEEEEEENS8_ISB_EEE8_Storage10__get_elemB8ne200100Ev
FNA:24,39,_ZNSt3__120__shared_ptr_emplaceINS_6vectorIhNS_9allocatorIhEEEENS2_IS4_EEE8_Storage10__get_elemB8ne200100Ev
FNL:25,326,326
FNA:25,0,_ZNSt3__110shared_ptrIN3p2p3nat10STUNClientEEC1B8ne200100Ev
FNA:25,0,_ZNSt3__110shared_ptrIN3p2p3nat10STUNClientEEC2B8ne200100Ev
FNA:25,78,_ZNSt3__110shared_ptrIN3p2p5relay14TurnAllocationEEC1B8ne200100Ev
FNA:25,78,_ZNSt3__110shared_ptrIN3p2p5relay14TurnAllocationEEC2B8ne200100Ev
FNA:25,14,_ZNSt3__110shared_ptrIN3p2p9transport12UDPTransportEEC1B8ne200100Ev
FNA:25,14,_ZNSt3__110shared_ptrIN3p2p9transport12UDPTransportEEC2B8ne200100Ev
FNA:25,7,_ZNSt3__110shared_ptrIN5boost4asio19basic_stream_socketINS2_2ip3tcpENS2_15any_io_executorEEEEC1B8ne200100Ev
FNA:25,7,_ZNSt3__110shared_ptrIN5boost4asio19basic_stream_socketINS2_2ip3tcpENS2_15any_io_executorEEEEC2B8ne200100Ev
FNA:25,0,_ZNSt3__110shared_ptrIN5boost4asio21basic_datagram_socketINS2_2ip3udpENS2_15any_io_executorEEEEC1B8ne200100Ev
FNA:25,0,_ZNSt3__110shared_ptrIN5boost4asio21basic_datagram_socketINS2_2ip3udpENS2_15any_io_executorEEEEC2B8ne200100Ev
FNA:25,0,_ZNSt3__110shared_ptrIN5boost4asio2ip14basic_endpointINS3_3udpEEEEC1B8ne200100Ev
FNA:25,0,_ZNSt3__110shared_ptrIN5boost4asio2ip14basic_endpointINS3_3udpEEEEC2B8ne200100Ev
FNA:25,0,_ZNSt3__110shared_ptrIN5boost4asio2ip14basic_resolverINS3_3udpENS2_15any_io_executorEEEEC1B8ne200100Ev
FNA:25,0,_ZNSt3__110shared_ptrIN5boost4asio2ip14basic_resolverINS3_3udpENS2_15any_io_executorEEEEC2B8ne200100Ev
FNA:25,19,_ZNSt3__110shared_ptrIN8nlohmann16json_abi_v3_12_06detail21output_string_adapterIcNS_12basic_stringIcNS_11char_traitsIcEENS_9allocatorIcEEEEEEEC1B8ne200100Ev
FNA:25,19,_ZNSt3__110shared_ptrIN8nlohmann16json_abi_v3_12_06detail21output_string_adapterIcNS_12basic_stringIcNS_11char_traitsIcEENS_9allocatorIcEEEEEEEC2B8ne200100Ev
FNA:25,0,_ZNSt3__110shared_ptrINS_6vectorIN5boost4asio2ip20basic_resolver_entryINS4_3udpEEENS_9allocatorIS7_EEEEEC1B8ne200100Ev
FNA:25,0,_ZNSt3__110shared_ptrINS_6vectorIN5boost4asio2ip20basic_resolver_entryINS4_3udpEEENS_9allocatorIS7_EEEEEC2B8ne200100Ev
FNA:25,13,_ZNSt3__110shared_ptrINS_6vectorIhNS_9allocatorIhEEEEEC1B8ne200100Ev
FNA:25,13,_ZNSt3__110shared_ptrINS_6vectorIhNS_9allocatorIhEEEEEC2B8ne200100Ev
FNA:25,0,_ZNSt3__110shared_ptrIvEC1B8ne200100Ev
FNA:25,0,_ZNSt3__110shared_ptrIvEC2B8ne200100Ev
FNL:26,328,328
FNA:26,5,_ZNSt3__110shared_ptrIN3p2p5relay14TurnAllocationEEC1B8ne200100EDn
FNA:26,5,_ZNSt3__110shared_ptrIN3p2p5relay14TurnAllocationEEC2B8ne200100EDn
FNL:27,341,348
FNA:27,0,_ZNSt3__110shared_ptrINS_6vectorIN5boost4asio2ip20basic_resolver_entryINS4_3udpEEENS_9allocatorIS7_EEEEEC1B8ne200100ISA_Li0EEEPT_
FNA:27,0,_ZNSt3__110shared_ptrINS_6vectorIN5boost4asio2ip20basic_resolver_entryINS4_3udpEEENS_9allocatorIS7_EEEEEC2B8ne200100ISA_Li0EEEPT_
FNL:28,351,369
FNA:28,0,_ZNSt3__110shared_ptrIvEC1B8ne200100IvN5boost4asio6detail10socket_ops12noop_deleterELi0EEEPT_T0_
FNA:28,0,_ZNSt3__110shared_ptrIvEC2B8ne200100IvN5boost4asio6detail10socket_ops12noop_deleterELi0EEEPT_T0_
FNL:29,455,460
FNA:29,14,_ZNSt3__110shared_ptrIN3p2p9transport12UDPTransportEEC1B8ne200100IS3_EERKNS0_IT_EEPS3_
FNA:29,14,_ZNSt3__110shared_ptrIN3p2p9transport12UDPTransportEEC2B8ne200100IS3_EERKNS0_IT_EEPS3_
FNL:30,473,476
FNA:30,43,_ZNSt3__110shared_ptrIN3p2p5relay14TurnAllocationEEC1B8ne200100ERKS4_
FNA:30,43,_ZNSt3__110shared_ptrIN3p2p5relay14TurnAllocationEEC2B8ne200100ERKS4_
FNA:30,38,_ZNSt3__110shared_ptrIN3p2p9transport12UDPTransportEEC1B8ne200100ERKS4_
FNA:30,38,_ZNSt3__110shared_ptrIN3p2p9transport12UDPTransportEEC2B8ne200100ERKS4_
FNA:30,14,_ZNSt3__110shared_ptrIN5boost4asio19basic_stream_socketINS2_2ip3tcpENS2_15any_io_executorEEEEC1B8ne200100ERKS8_
FNA:30,14,_ZNSt3__110shared_ptrIN5boost4asio19basic_stream_socketINS2_2ip3tcpENS2_15any_io_executorEEEEC2B8ne200100ERKS8_
FNA:30,0,_ZNSt3__110shared_ptrIN5boost4asio21basic_datagram_socketINS2_2ip3udpENS2_15any_io_executorEEEEC1B8ne200100ERKS8_
FNA:30,0,_ZNSt3__110shared_ptrIN5boost4asio21basic_datagram_socketINS2_2ip3udpENS2_15any_io_executorEEEEC2B8ne200100ERKS8_
FNA:30,0,_ZNSt3__110shared_ptrIN5boost4asio2ip14basic_resolverINS3_3udpENS2_15any_io_executorEEEEC1B8ne200100ERKS8_
FNA:30,0,_ZNSt3__110shared_ptrIN5boost4asio2ip14basic_resolverINS3_3udpENS2_15any_io_executorEEEEC2B8ne200100ERKS8_
FNA:30,19,_ZNSt3__110shared_ptrIN8nlohmann16json_abi_v3_12_06detail23output_adapter_protocolIcEEEC1B8ne200100ERKS6_
FNA:30,19,_ZNSt3__110shared_ptrIN8nlohmann16json_abi_v3_12_06detail23output_adapter_protocolIcEEEC2B8ne200100ERKS6_
FNA:30,0,_ZNSt3__110shared_ptrINS_6vectorIN5boost4asio2ip20basic_resolver_entryINS4_3udpEEENS_9allocatorIS7_EEEEEC1B8ne200100ERKSB_
FNA:30,0,_ZNSt3__110shared_ptrINS_6vectorIN5boost4asio2ip20basic_resolver_entryINS4_3udpEEENS_9allocatorIS7_EEEEEC2B8ne200100ERKSB_
FNA:30,13,_ZNSt3__110shared_ptrINS_6vectorIhNS_9allocatorIhEEEEEC1B8ne200100ERKS5_
FNA:30,13,_ZNSt3__110shared_ptrINS_6vectorIhNS_9allocatorIhEEEEEC2B8ne200100ERKS5_
FNL:31,484,487
FNA:31,10,_ZNSt3__110shared_ptrIN3p2p5relay14TurnAllocationEEC1B8ne200100EOS4_
FNA:31,10,_ZNSt3__110shared_ptrIN3p2p5relay14TurnAllocationEEC2B8ne200100EOS4_
FNA:31,76,_ZNSt3__110shared_ptrIN3p2p9transport12UDPTransportEEC1B8ne200100EOS4_
FNA:31,76,_ZNSt3__110shared_ptrIN3p2p9transport12UDPTransportEEC2B8ne200100EOS4_
FNA:31,15,_ZNSt3__110shared_ptrIN5boost4asio19basic_stream_socketINS2_2ip3tcpENS2_15any_io_executorEEEEC1B8ne200100EOS8_
FNA:31,15,_ZNSt3__110shared_ptrIN5boost4asio19basic_stream_socketINS2_2ip3tcpENS2_15any_io_executorEEEEC2B8ne200100EOS8_
FNA:31,0,_ZNSt3__110shared_ptrIN5boost4asio21basic_datagram_socketINS2_2ip3udpENS2_15any_io_executorEEEEC1B8ne200100EOS8_
FNA:31,0,_ZNSt3__110shared_ptrIN5boost4asio21basic_datagram_socketINS2_2ip3udpENS2_15any_io_executorEEEEC2B8ne200100EOS8_
FNA:31,0,_ZNSt3__110shared_ptrIN5boost4asio2ip14basic_resolverINS3_3udpENS2_15any_io_executorEEEEC1B8ne200100EOS8_
FNA:31,0,_ZNSt3__110shared_ptrIN5boost4asio2ip14basic_resolverINS3_3udpENS2_15any_io_executorEEEEC2B8ne200100EOS8_
FNA:31,19,_ZNSt3__110shared_ptrIN8nlohmann16json_abi_v3_12_06detail23output_adapter_protocolIcEEEC1B8ne200100EOS6_
FNA:31,19,_ZNSt3__110shared_ptrIN8nlohmann16json_abi_v3_12_06detail23output_adapter_protocolIcEEEC2B8ne200100EOS6_
FNA:31,0,_ZNSt3__110shared_ptrINS_6vectorIN5boost4asio2ip20basic_resolver_entryINS4_3udpEEENS_9allocatorIS7_EEEEEC1B8ne200100EOSB_
FNA:31,0,_ZNSt3__110shared_ptrINS_6vectorIN5boost4asio2ip20basic_resolver_entryINS4_3udpEEENS_9allocatorIS7_EEEEEC2B8ne200100EOSB_
FNA:31,26,_ZNSt3__110shared_ptrINS_6vectorIhNS_9allocatorIhEEEEEC1B8ne200100EOS5_
FNA:31,26,_ZNSt3__110shared_ptrINS_6vectorIhNS_9allocatorIhEEEEEC2B8ne200100EOS5_
FNL:32,490,493
FNA:32,19,_ZNSt3__110shared_ptrIN8nlohmann16json_abi_v3_12_06detail23output_adapter_protocolIcEEEC1B8ne200100INS3_21output_string_adapterIcNS_12basic_stringIcNS_11char_traitsIcEENS_9allocatorIcEEEEEELi0EEEONS0_IT_EE
FNA:32,19,_ZNSt3__110shared_ptrIN8nlohmann16json_abi_v3_12_06detail23output_adapter_protocolIcEEEC2B8ne200100INS3_21output_string_adapterIcNS_12basic_stringIcNS_11char_traitsIcEENS_9allocatorIcEEEEEELi0EEEONS0_IT_EE
FNL:33,496,500
FNA:33,38,_ZNSt3__110shared_ptrIN3p2p9transport12UDPTransportEEC1B8ne200100IS3_Li0EEERKNS_8weak_ptrIT_EE
FNA:33,38,_ZNSt3__110shared_ptrIN3p2p9transport12UDPTransportEEC2B8ne200100IS3_Li0EEERKNS_8weak_ptrIT_EE
FNL:34,556,559
FNA:34,0,_ZNSt3__110shared_ptrIN3p2p3nat10STUNClientEED1B8ne200100Ev
FNA:34,0,_ZNSt3__110shared_ptrIN3p2p3nat10STUNClientEED2B8ne200100Ev
FNA:34,136,_ZNSt3__110shared_ptrIN3p2p5relay14TurnAllocationEED1B8ne200100Ev
FNA:34,136,_ZNSt3__110shared_ptrIN3p2p5relay14TurnAllocationEED2B8ne200100Ev
FNA:34,180,_ZNSt3__110shared_ptrIN3p2p9transport12UDPTransportEED1B8ne200100Ev
FNA:34,180,_ZNSt3__110shared_ptrIN3p2p9transport12UDPTransportEED2B8ne200100Ev
FNA:34,36,_ZNSt3__110shared_ptrIN5boost4asio19basic_stream_socketINS2_2ip3tcpENS2_15any_io_executorEEEED1B8ne200100Ev
FNA:34,36,_ZNSt3__110shared_ptrIN5boost4asio19basic_stream_socketINS2_2ip3tcpENS2_15any_io_executorEEEED2B8ne200100Ev
FNA:34,0,_ZNSt3__110shared_ptrIN5boost4asio21basic_datagram_socketINS2_2ip3udpENS2_15any_io_executorEEEED1B8ne200100Ev
FNA:34,0,_ZNSt3__110shared_ptrIN5boost4asio21basic_datagram_socketINS2_2ip3udpENS2_15any_io_executorEEEED2B8ne200100Ev
FNA:34,0,_ZNSt3__110shared_ptrIN5boost4asio2ip14basic_endpointINS3_3udpEEEED1B8ne200100Ev
FNA:34,0,_ZNSt3__110shared_ptrIN5boost4asio2ip14basic_endpointINS3_3udpEEEED2B8ne200100Ev
FNA:34,0,_ZNSt3__110shared_ptrIN5boost4asio2ip14basic_resolverINS3_3udpENS2_15any_io_executorEEEED1B8ne200100Ev
FNA:34,0,_ZNSt3__110shared_ptrIN5boost4asio2ip14basic_resolverINS3_3udpENS2_15any_io_executorEEEED2B8ne200100Ev
FNA:34,19,_ZNSt3__110shared_ptrIN8nlohmann16json_abi_v3_12_06detail21output_string_adapterIcNS_12basic_stringIcNS_11char_traitsIcEENS_9allocatorIcEEEEEEED1B8ne200100Ev
FNA:34,19,_ZNSt3__110shared_ptrIN8nlohmann16json_abi_v3_12_06detail21output_string_adapterIcNS_12basic_stringIcNS_11char_traitsIcEENS_9allocatorIcEEEEEEED2B8ne200100Ev
FNA:34,57,_ZNSt3__110shared_ptrIN8nlohmann16json_abi_v3_12_06detail23output_adapter_protocolIcEEED1B8ne200100Ev
FNA:34,57,_ZNSt3__110shared_ptrIN8nlohmann16json_abi_v3_12_06detail23output_adapter_protocolIcEEED2B8ne200100Ev
FNA:34,0,_ZNSt3__110shared_ptrINS_6vectorIN5boost4asio2ip20basic_resolver_entryINS4_3udpEEENS_9allocatorIS7_EEEEED1B8ne200100Ev
FNA:34,0,_ZNSt3__110shared_ptrINS_6vectorIN5boost4asio2ip20basic_resolver_entryINS4_3udpEEENS_9allocatorIS7_EEEEED2B8ne200100Ev
FNA:34,52,_ZNSt3__110shared_ptrINS_6vectorIhNS_9allocatorIhEEEEED1B8ne200100Ev
FNA:34,52,_ZNSt3__110shared_ptrINS_6vectorIhNS_9allocatorIhEEEEED2B8ne200100Ev
FNA:34,0,_ZNSt3__110shared_ptrIvED1B8ne200100Ev
FNA:34,0,_ZNSt3__110shared_ptrIvED2B8ne200100Ev
FNL:35,561,563
FNA:35,34,_ZNSt3__110shared_ptrIN3p2p5relay14TurnAllocationEEaSB8ne200100ERKS4_
FNL:36,572,574
FNA:36,10,_ZNSt3__110shared_ptrIN3p2p5relay14TurnAllocationEEaSB8ne200100EOS4_
FNA:36,0,_ZNSt3__110shared_ptrINS_6vectorIN5boost4asio2ip20basic_resolver_entryINS4_3udpEEENS_9allocatorIS7_EEEEEaSB8ne200100EOSB_
FNL:37,603,606
FNA:37,44,_ZNSt3__110shared_ptrIN3p2p5relay14TurnAllocationEE4swapB8ne200100ERS4_
FNA:37,0,_ZNSt3__110shared_ptrINS_6vectorIN5boost4asio2ip20basic_resolver_entryINS4_3udpEEENS_9allocatorIS7_EEEEE4swapB8ne200100ERSB_
FNA:37,0,_ZNSt3__110shared_ptrIvE4swapB8ne200100ERS1_
FNL:38,608,608
FNA:38,0,_ZNSt3__110shared_ptrIvE5resetB8ne200100Ev
FNL:39,611,613
FNA:39,0,_ZNSt3__110shared_ptrINS_6vectorIN5boost4asio2ip20basic_resolver_entryINS4_3udpEEENS_9allocatorIS7_EEEEE5resetB8ne200100ISA_Li0EEEvPT_
FNL:40,616,618
FNA:40,0,_ZNSt3__110shared_ptrIvE5resetB8ne200100IvN5boost4asio6detail10socket_ops12noop_deleterELi0EEEvPT_T0_
FNL:41,628,628
FNA:41,46,_ZNKSt3__110shared_ptrIN3p2p5relay14TurnAllocationEE3getB8ne200100Ev
FNA:41,1,_ZNKSt3__110shared_ptrIN3p2p9transport12UDPTransportEE3getB8ne200100Ev
FNA:41,0,_ZNKSt3__110shared_ptrINS_6vectorIN5boost4asio2ip20basic_resolver_entryINS4_3udpEEENS_9allocatorIS7_EEEEE3getB8ne200100Ev
FNL:42,630,630
FNA:42,1,_ZNKSt3__110shared_ptrIN3p2p5relay14TurnAllocationEEdeB8ne200100Ev
FNA:42,0,_ZNKSt3__110shared_ptrIN3p2p9transport12UDPTransportEEdeB8ne200100Ev
FNA:42,10,_ZNKSt3__110shared_ptrIN5boost4asio19basic_stream_socketINS2_2ip3tcpENS2_15any_io_executorEEEEdeB8ne200100Ev
FNA:42,0,_ZNKSt3__110shared_ptrIN5boost4asio2ip14basic_endpointINS3_3udpEEEEdeB8ne200100Ev
FNA:42,0,_ZNKSt3__110shared_ptrINS_6vectorIN5boost4asio2ip20basic_resolver_entryINS4_3udpEEENS_9allocatorIS7_EEEEEdeB8ne200100Ev
FNA:42,13,_ZNKSt3__110shared_ptrINS_6vectorIhNS_9allocatorIhEEEEEdeB8ne200100Ev
FNL:43,632,634
FNA:43,0,_ZNKSt3__110shared_ptrIN3p2p3nat10STUNClientEEptB8ne200100Ev
FNA:43,54,_ZNKSt3__110shared_ptrIN3p2p5relay14TurnAllocationEEptB8ne200100Ev
FNA:43,72,_ZNKSt3__110shared_ptrIN3p2p9transport12UDPTransportEEptB8ne200100Ev
FNA:43,1,_ZNKSt3__110shared_ptrIN5boost4asio19basic_stream_socketINS2_2ip3tcpENS2_15any_io_executorEEEEptB8ne200100Ev
FNA:43,0,_ZNKSt3__110shared_ptrIN5boost4asio21basic_datagram_socketINS2_2ip3udpENS2_15any_io_executorEEEEptB8ne200100Ev
FNA:43,0,_ZNKSt3__110shared_ptrIN5boost4asio2ip14basic_resolverINS3_3udpENS2_15any_io_executorEEEEptB8ne200100Ev
FNA:43,866,_ZNKSt3__110shared_ptrIN8nlohmann16json_abi_v3_12_06detail23output_adapter_protocolIcEEEptB8ne200100Ev
FNA:43,0,_ZNKSt3__110shared_ptrINS_6vectorIN5boost4asio2ip20basic_resolver_entryINS4_3udpEEENS_9allocatorIS7_EEEEEptB8ne200100Ev
FNA:43,0,_ZNKSt3__110shared_ptrINS_6vectorIhNS_9allocatorIhEEEEEptB8ne200100Ev
FNL:44,643,643
FNA:44,45,_ZNKSt3__110shared_ptrIN3p2p5relay14TurnAllocationEEcvbB8ne200100Ev
FNA:44,1,_ZNKSt3__110shared_ptrIN3p2p9transport12UDPTransportEEcvbB8ne200100Ev
FNA:44,0,_ZNKSt3__110shared_ptrINS_6vectorIN5boost4asio2ip20basic_resolver_entryINS4_3udpEEENS_9allocatorIS7_EEEEEcvbB8ne200100Ev
FNL:45,672,678
FNA:45,0,_ZNSt3__110shared_ptrIN3p2p3nat10STUNClientEE27__create_with_control_blockB8ne200100IS3_NS_20__shared_ptr_emplaceIS3_NS_9allocatorIS3_EEEEEES4_PT_PT0_
FNA:45,34,_ZNSt3__110shared_ptrIN3p2p5relay14TurnAllocationEE27__create_with_control_blockB8ne200100IS3_NS_20__shared_ptr_emplaceIS3_NS_9allocatorIS3_EEEEEES4_PT_PT0_
FNA:45,14,_ZNSt3__110shared_ptrIN3p2p9transport12UDPTransportEE27__create_with_control_blockB8ne200100IS3_NS_20__shared_ptr_emplaceIS3_NS_9allocatorIS3_EEEEEES4_PT_PT0_
FNA:45,7,_ZNSt3__110shared_ptrIN5boost4asio19basic_stream_socketINS2_2ip3tcpENS2_15any_io_executorEEEE27__create_with_control_blockB8ne200100IS7_NS_20__shared_ptr_emplaceIS7_NS_9allocatorIS7_EEEEEES8_PT_PT0_
FNA:45,0,_ZNSt3__110shared_ptrIN5boost4asio21basic_datagram_socketINS2_2ip3udpENS2_15any_io_executorEEEE27__create_with_control_blockB8ne200100IS7_NS_20__shared_ptr_emplaceIS7_NS_9allocatorIS7_EEEEEES8_PT_PT0_
FNA:45,0,_ZNSt3__110shared_ptrIN5boost4asio2ip14basic_endpointINS3_3udpEEEE27__create_with_control_blockB8ne200100IS6_NS_20__shared_ptr_emplaceIS6_NS_9allocatorIS6_EEEEEES7_PT_PT0_
FNA:45,0,_ZNSt3__110shared_ptrIN5boost4asio2ip14basic_resolverINS3_3udpENS2_15any_io_executorEEEE27__create_with_control_blockB8ne200100IS7_NS_20__shared_ptr_emplaceIS7_NS_9allocatorIS7_EEEEEES8_PT_PT0_
FNA:45,19,_ZNSt3__110shared_ptrIN8nlohmann16json_abi_v3_12_06detail21output_string_adapterIcNS_12basic_stringIcNS_11char_traitsIcEENS_9allocatorIcEEEEEEE27__create_with_control_blockB8ne200100ISB_NS_20__shared_ptr_emplaceISB_NS8_ISB_EEEEEESC_PT_PT0_
FNA:45,13,_ZNSt3__110shared_ptrINS_6vectorIhNS_9allocatorIhEEEEE27__create_with_control_blockB8ne200100IS4_NS_20__shared_ptr_emplaceIS4_NS2_IS4_EEEEEES5_PT_PT0_
FNL:46,694,699
FNA:46,14,_ZNSt3__110shared_ptrIN3p2p9transport12UDPTransportEE18__enable_weak_thisB8ne200100IS3_S3_Li0EEEvPKNS_23enable_shared_from_thisIT_EEPT0_
FNL:47,701,701
FNA:47,0,_ZNSt3__110shared_ptrIN3p2p3nat10STUNClientEE18__enable_weak_thisB8ne200100Ez
FNA:47,34,_ZNSt3__110shared_ptrIN3p2p5relay14TurnAllocationEE18__enable_weak_thisB8ne200100Ez
FNA:47,7,_ZNSt3__110shared_ptrIN5boost4asio19basic_stream_socketINS2_2ip3tcpENS2_15any_io_executorEEEE18__enable_weak_thisB8ne200100Ez
FNA:47,0,_ZNSt3__110shared_ptrIN5boost4asio21basic_datagram_socketINS2_2ip3udpENS2_15any_io_executorEEEE18__enable_weak_thisB8ne200100Ez
FNA:47,0,_ZNSt3__110shared_ptrIN5boost4asio2ip14basic_endpointINS3_3udpEEEE18__enable_weak_thisB8ne200100Ez
FNA:47,0,_ZNSt3__110shared_ptrIN5boost4asio2ip14basic_resolverINS3_3udpENS2_15any_io_executorEEEE18__enable_weak_thisB8ne200100Ez
FNA:47,19,_ZNSt3__110shared_ptrIN8nlohmann16json_abi_v3_12_06detail21output_string_adapterIcNS_12basic_stringIcNS_11char_traitsIcEENS_9allocatorIcEEEEEEE18__enable_weak_thisB8ne200100Ez
FNA:47,0,_ZNSt3__110shared_ptrINS_6vectorIN5boost4asio2ip20basic_resolver_entryINS4_3udpEEENS_9allocatorIS7_EEEEE18__enable_weak_thisB8ne200100Ez
FNA:47,13,_ZNSt3__110shared_ptrINS_6vectorIhNS_9allocatorIhEEEEE18__enable_weak_thisB8ne200100Ez
FNA:47,0,_ZNSt3__110shared_ptrIvE18__enable_weak_thisB8ne200100Ez
FNL:48,729,737
FNA:48,0,_ZNSt3__115allocate_sharedB8ne200100IN3p2p3nat10STUNClientENS_9allocatorIS3_EEJRN5boost4asio10io_contextERKNS_12basic_stringIcNS_11char_traitsIcEENS4_IcEEEERtELi0EEENS_10shared_ptrIT_EERKT0_DpOT1_
FNA:48,34,_ZNSt3__115allocate_sharedB8ne200100IN3p2p5relay14TurnAllocationENS_9allocatorIS3_EEJRNS_12basic_stringIcNS_11char_traitsIcEENS4_IcEEEERKNS2_7AddressERSC_RjRNS2_17TransportProtocolEELi0EEENS_10shared_ptrIT_EERKT0_DpOT1_
FNA:48,14,_ZNSt3__115allocate_sharedB8ne200100IN3p2p9transport12UDPTransportENS_9allocatorIS3_EEJRN5boost4asio10io_contextEiELi0EEENS_10shared_ptrIT_EERKT0_DpOT1_
FNA:48,7,_ZNSt3__115allocate_sharedB8ne200100IN5boost4asio19basic_stream_socketINS2_2ip3tcpENS2_15any_io_executorEEENS_9allocatorIS7_EEJRNS2_10io_contextEELi0EEENS_10shared_ptrIT_EERKT0_DpOT1_
FNA:48,0,_ZNSt3__115allocate_sharedB8ne200100IN5boost4asio21basic_datagram_socketINS2_2ip3udpENS2_15any_io_executorEEENS_9allocatorIS7_EEJRNS2_10io_contextEELi0EEENS_10shared_ptrIT_EERKT0_DpOT1_
FNA:48,0,_ZNSt3__115allocate_sharedB8ne200100IN5boost4asio2ip14basic_endpointINS3_3udpEEENS_9allocatorIS6_EEJELi0EEENS_10shared_ptrIT_EERKT0_DpOT1_
FNA:48,0,_ZNSt3__115allocate_sharedB8ne200100IN5boost4asio2ip14basic_resolverINS3_3udpENS2_15any_io_executorEEENS_9allocatorIS7_EEJRNS2_10io_contextEELi0EEENS_10shared_ptrIT_EERKT0_DpOT1_
FNA:48,19,_ZNSt3__115allocate_sharedB8ne200100IN8nlohmann16json_abi_v3_12_06detail21output_string_adapterIcNS_12basic_stringIcNS_11char_traitsIcEENS_9allocatorIcEEEEEENS8_ISB_EEJRSA_ELi0EEENS_10shared_ptrIT_EERKT0_DpOT1_
FNA:48,13,_ZNSt3__115allocate_sharedB8ne200100INS_6vectorIhNS_9allocatorIhEEEENS2_IS4_EEJRKS4_ELi0EEENS_10shared_ptrIT_EERKT0_DpOT1_
FNA:48,0,_ZNSt3__115allocate_sharedB8ne200100INS_6vectorIhNS_9allocatorIhEEEENS2_IS4_EEJiELi0EEENS_10shared_ptrIT_EERKT0_DpOT1_
FNL:49,740,741
FNA:49,0,_ZNSt3__111make_sharedB8ne200100IN3p2p3nat10STUNClientEJRN5boost4asio10io_contextERKNS_12basic_stringIcNS_11char_traitsIcEENS_9allocatorIcEEEERtELi0EEENS_10shared_ptrIT_EEDpOT0_
FNA:49,34,_ZNSt3__111make_sharedB8ne200100IN3p2p5relay14TurnAllocationEJRNS_12basic_stringIcNS_11char_traitsIcEENS_9allocatorIcEEEERKNS2_7AddressERSB_RjRNS2_17TransportProtocolEELi0EEENS_10shared_ptrIT_EEDpOT0_
FNA:49,14,_ZNSt3__111make_sharedB8ne200100IN3p2p9transport12UDPTransportEJRN5boost4asio10io_contextEiELi0EEENS_10shared_ptrIT_EEDpOT0_
FNA:49,7,_ZNSt3__111make_sharedB8ne200100IN5boost4asio19basic_stream_socketINS2_2ip3tcpENS2_15any_io_executorEEEJRNS2_10io_contextEELi0EEENS_10shared_ptrIT_EEDpOT0_
FNA:49,0,_ZNSt3__111make_sharedB8ne200100IN5boost4asio21basic_datagram_socketINS2_2ip3udpENS2_15any_io_executorEEEJRNS2_10io_contextEELi0EEENS_10shared_ptrIT_EEDpOT0_
FNA:49,0,_ZNSt3__111make_sharedB8ne200100IN5boost4asio2ip14basic_endpointINS3_3udpEEEJELi0EEENS_10shared_ptrIT_EEDpOT0_
FNA:49,0,_ZNSt3__111make_sharedB8ne200100IN5boost4asio2ip14basic_resolverINS3_3udpENS2_15any_io_executorEEEJRNS2_10io_contextEELi0EEENS_10shared_ptrIT_EEDpOT0_
FNA:49,19,_ZNSt3__111make_sharedB8ne200100IN8nlohmann16json_abi_v3_12_06detail21output_string_adapterIcNS_12basic_stringIcNS_11char_traitsIcEENS_9allocatorIcEEEEEEJRSA_ELi0EEENS_10shared_ptrIT_EEDpOT0_
FNA:49,13,_ZNSt3__111make_sharedB8ne200100INS_6vectorIhNS_9allocatorIhEEEEJRKS4_ELi0EEENS_10shared_ptrIT_EEDpOT0_
FNA:49,0,_ZNSt3__111make_sharedB8ne200100INS_6vectorIhNS_9allocatorIhEEEEJiELi0EEENS_10shared_ptrIT_EEDpOT0_
FNL:50,76,76
FNA:50,0,_ZNSt3__112bad_weak_ptrC1B8ne200100Ev
FNA:50,0,_ZNSt3__112bad_weak_ptrC2B8ne200100Ev
FNL:51,83,85
FNA:51,0,_ZNSt3__120__throw_bad_weak_ptrB8ne200100Ev
FNL:52,95
FNA:52,0,_ZNSt3__120__shared_ptr_pointerIPNS_6vectorIN5boost4asio2ip20basic_resolver_entryINS4_3udpEEENS_9allocatorIS7_EEEENS_10shared_ptrISA_E27__shared_ptr_default_deleteISA_SA_EENS8_ISA_EEED0Ev
FNA:52,0,_ZNSt3__120__shared_ptr_pointerIPNS_6vectorIN5boost4asio2ip20basic_resolver_entryINS4_3udpEEENS_9allocatorIS7_EEEENS_10shared_ptrISA_E27__shared_ptr_default_deleteISA_SA_EENS8_ISA_EEED1Ev
FNA:52,0,_ZNSt3__120__shared_ptr_pointerIPNS_6vectorIN5boost4asio2ip20basic_resolver_entryINS4_3udpEEENS_9allocatorIS7_EEEENS_10shared_ptrISA_E27__shared_ptr_default_deleteISA_SA_EENS8_ISA_EEED2Ev
FNA:52,0,_ZNSt3__120__shared_ptr_pointerIPvN5boost4asio6detail10socket_ops12noop_deleterENS_9allocatorIvEEED0Ev
FNA:52,0,_ZNSt3__120__shared_ptr_pointerIPvN5boost4asio6detail10socket_ops12noop_deleterENS_9allocatorIvEEED1Ev
FNA:52,0,_ZNSt3__120__shared_ptr_pointerIPvN5boost4asio6detail10socket_ops12noop_deleterENS_9allocatorIvEEED2Ev
FNL:53,99,100
FNA:53,0,_ZNSt3__120__shared_ptr_pointerIPNS_6vectorIN5boost4asio2ip20basic_resolver_entryINS4_3udpEEENS_9allocatorIS7_EEEENS_10shared_ptrISA_E27__shared_ptr_default_deleteISA_SA_EENS8_ISA_EEEC1B8ne200100ESB_SF_SG_
FNA:53,0,_ZNSt3__120__shared_ptr_pointerIPNS_6vectorIN5boost4asio2ip20basic_resolver_entryINS4_3udpEEENS_9allocatorIS7_EEEENS_10shared_ptrISA_E27__shared_ptr_default_deleteISA_SA_EENS8_ISA_EEEC2B8ne200100ESB_SF_SG_
FNA:53,0,_ZNSt3__120__shared_ptr_pointerIPvN5boost4asio6detail10socket_ops12noop_deleterENS_9allocatorIvEEEC1B8ne200100ES1_S6_S8_
FNA:53,0,_ZNSt3__120__shared_ptr_pointerIPvN5boost4asio6detail10socket_ops12noop_deleterENS_9allocatorIvEEEC2B8ne200100ES1_S6_S8_
FNF:54
FNH:40
DA:76,0
DA:83,0
DA:85,0
DA:99,0
DA:100,0
DA:114,0
DA:115,0
DA:121,0
DA:122,0
DA:123,0
DA:124,0
DA:127,0
DA:132,0
DA:133,0
DA:134,0
DA:135,0
DA:158,174
DA:160,87
DA:161,87
DA:162,174
DA:164,261
DA:166,261
DA:177,87
DA:179,87
DA:180,87
DA:181,87
DA:183,87
DA:185,87
DA:188,87
DA:189,87
DA:190,87
DA:191,87
DA:203,174
DA:204,174
DA:206,435
DA:207,435
DA:210,261
DA:211,261
DA:326,262
DA:328,10
DA:341,0
DA:342,0
DA:345,0
DA:346,0
DA:347,0
DA:348,0
DA:351,0
DA:358,0
DA:362,0
DA:364,0
DA:365,0
DA:366,0
DA:367,0
DA:369,0
DA:455,28
DA:456,14
DA:457,28
DA:458,14
DA:459,14
DA:460,28
DA:473,254
DA:474,127
DA:475,127
DA:476,254
DA:484,292
DA:485,146
DA:486,146
DA:487,292
DA:490,38
DA:491,19
DA:492,19
DA:493,38
DA:496,76
DA:497,76
DA:498,38
DA:499,0
DA:500,76
DA:556,960
DA:557,480
DA:558,266
DA:559,960
DA:561,34
DA:562,34
DA:563,34
DA:572,10
DA:573,10
DA:574,10
DA:603,44
DA:604,44
DA:605,44
DA:606,44
DA:608,0
DA:611,0
DA:612,0
DA:613,0
DA:616,0
DA:617,0
DA:618,0
DA:628,47
DA:630,24
DA:632,993
DA:634,993
DA:643,46
DA:672,87
DA:673,87
DA:674,87
DA:675,87
DA:676,87
DA:677,87
DA:678,87
DA:694,14
DA:696,14
DA:697,14
DA:698,14
DA:699,14
DA:701,73
DA:729,87
DA:732,87
DA:733,87
DA:734,87
DA:735,87
DA:736,87
DA:737,87
DA:740,87
DA:741,87
DA:1059,44
DA:1060,44
DA:1253,14
DA:1276,40
DA:1279,0
DA:1280,0
DA:1281,0
DA:1282,0
DA:1286,28
DA:1287,14
DA:1288,14
DA:1289,28
DA:1313,68
DA:1314,34
DA:1315,14
DA:1316,68
DA:1346,14
DA:1347,14
DA:1348,14
DA:1352,14
DA:1353,14
DA:1354,14
DA:1355,14
DA:1438,20
DA:1441,20
DA:1444,38
LF:151
LH:109
end_of_record
TN:
SF:/Library/Developer/CommandLineTools/SDKs/MacOSX.sdk/usr/include/c++/v1/__memory/swap_allocator.h
FNL:0,38,38
FNA:0,17,_ZNSt3__116__swap_allocatorB8ne200100INS_9allocatorImEEEEvRT_S4_NS_17integral_constantIbLb0EEE
FNL:1,41,50
FNA:1,17,_ZNSt3__116__swap_allocatorB8ne200100INS_9allocatorImEEEEvRT_S4_
FNF:2
FNH:2
DA:38,17
DA:41,17
DA:48,17
DA:49,17
DA:50,17
LF:5
LH:5
end_of_record
TN:
SF:/Library/Developer/CommandLineTools/SDKs/MacOSX.sdk/usr/include/c++/v1/__memory/uninitialized_algorithms.h
FNL:0,517,520
FNA:0,0,_ZNSt3__119__allocator_destroyB8ne200100INS_9allocatorIN3p2p5relay13StunAttributeEEENS_16reverse_iteratorIPS4_EES8_EEvRT_T0_T1_
FNA:0,3,_ZNSt3__119__allocator_destroyB8ne200100INS_9allocatorIN3p2p5relay13StunAttributeEEEPS4_S6_EEvRT_T0_T1_
FNA:0,0,_ZNSt3__119__allocator_destroyB8ne200100INS_9allocatorIN3p2p5relay7AddressEEENS_16reverse_iteratorIPS4_EES8_EEvRT_T0_T1_
FNA:0,0,_ZNSt3__119__allocator_destroyB8ne200100INS_9allocatorIN3p2p8protocol13StunAttributeEEENS_16reverse_iteratorIPS4_EES8_EEvRT_T0_T1_
FNA:0,37,_ZNSt3__119__allocator_destroyB8ne200100INS_9allocatorIN3p2p8protocol13StunAttributeEEEPS4_S6_EEvRT_T0_T1_
FNA:0,0,_ZNSt3__119__allocator_destroyB8ne200100INS_9allocatorIN5boost4asio2ip20basic_resolver_entryINS4_3udpEEEEENS_16reverse_iteratorIPS7_EESB_EEvRT_T0_T1_
FNA:0,0,_ZNSt3__119__allocator_destroyB8ne200100INS_9allocatorIN5boost4asio2ip20basic_resolver_entryINS4_3udpEEEEEPS7_S9_EEvRT_T0_T1_
FNA:0,0,_ZNSt3__119__allocator_destroyB8ne200100INS_9allocatorIN8nlohmann16json_abi_v3_12_010basic_jsonINS_3mapENS_6vectorENS_12basic_stringIcNS_11char_traitsIcEENS1_IcEEEEbxydS1_NS3_14adl_serializerENS6_IhNS1_IhEEEEvEEEENS_16reverse_iteratorIPSF_EESJ_EEvRT_T0_T1_
FNA:0,36,_ZNSt3__119__allocator_destroyB8ne200100INS_9allocatorIN8nlohmann16json_abi_v3_12_010basic_jsonINS_3mapENS_6vectorENS_12basic_stringIcNS_11char_traitsIcEENS1_IcEEEEbxydS1_NS3_14adl_serializerENS6_IhNS1_IhEEEEvEEEEPSF_SH_EEvRT_T0_T1_
FNA:0,0,_ZNSt3__119__allocator_destroyB8ne200100INS_9allocatorINS_6threadEEENS_16reverse_iteratorIPS2_EES6_EEvRT_T0_T1_
FNA:0,37,_ZNSt3__119__allocator_destroyB8ne200100INS_9allocatorINS_6threadEEEPS2_S4_EEvRT_T0_T1_
FNA:0,0,_ZNSt3__119__allocator_destroyB8ne200100INS_9allocatorIhEENS_16reverse_iteratorIPhEES5_EEvRT_T0_T1_
FNL:1,526,527
FNA:1,3,_ZNSt3__129_AllocatorDestroyRangeReverseINS_9allocatorIN3p2p5relay13StunAttributeEEEPS4_EC1B8ne200100ERS5_RS6_S9_
FNA:1,3,_ZNSt3__129_AllocatorDestroyRangeReverseINS_9allocatorIN3p2p5relay13StunAttributeEEEPS4_EC2B8ne200100ERS5_RS6_S9_
FNA:1,1,_ZNSt3__129_AllocatorDestroyRangeReverseINS_9allocatorIN3p2p5relay7AddressEEEPS4_EC1B8ne200100ERS5_RS6_S9_
FNA:1,1,_ZNSt3__129_AllocatorDestroyRangeReverseINS_9allocatorIN3p2p5relay7AddressEEEPS4_EC2B8ne200100ERS5_RS6_S9_
FNA:1,37,_ZNSt3__129_AllocatorDestroyRangeReverseINS_9allocatorIN3p2p8protocol13StunAttributeEEEPS4_EC1B8ne200100ERS5_RS6_S9_
FNA:1,37,_ZNSt3__129_AllocatorDestroyRangeReverseINS_9allocatorIN3p2p8protocol13StunAttributeEEEPS4_EC2B8ne200100ERS5_RS6_S9_
FNA:1,0,_ZNSt3__129_AllocatorDestroyRangeReverseINS_9allocatorIN5boost4asio2ip20basic_resolver_entryINS4_3udpEEEEEPS7_EC1B8ne200100ERS8_RS9_SC_
FNA:1,0,_ZNSt3__129_AllocatorDestroyRangeReverseINS_9allocatorIN5boost4asio2ip20basic_resolver_entryINS4_3udpEEEEEPS7_EC2B8ne200100ERS8_RS9_SC_
FNA:1,36,_ZNSt3__129_AllocatorDestroyRangeReverseINS_9allocatorIN8nlohmann16json_abi_v3_12_010basic_jsonINS_3mapENS_6vectorENS_12basic_stringIcNS_11char_traitsIcEENS1_IcEEEEbxydS1_NS3_14adl_serializerENS6_IhNS1_IhEEEEvEEEEPSF_EC1B8ne200100ERSG_RSH_SK_
FNA:1,36,_ZNSt3__129_AllocatorDestroyRangeReverseINS_9allocatorIN8nlohmann16json_abi_v3_12_010basic_jsonINS_3mapENS_6vectorENS_12basic_stringIcNS_11char_traitsIcEENS1_IcEEEEbxydS1_NS3_14adl_serializerENS6_IhNS1_IhEEEEvEEEEPSF_EC2B8ne200100ERSG_RSH_SK_
FNA:1,37,_ZNSt3__129_AllocatorDestroyRangeReverseINS_9allocatorINS_6threadEEEPS2_EC1B8ne200100ERS3_RS4_S7_
FNA:1,37,_ZNSt3__129_AllocatorDestroyRangeReverseINS_9allocatorINS_6threadEEEPS2_EC2B8ne200100ERS3_RS4_S7_
FNA:1,80,_ZNSt3__129_AllocatorDestroyRangeReverseINS_9allocatorIhEEPhEC1B8ne200100ERS2_RS3_S6_
FNA:1,80,_ZNSt3__129_AllocatorDestroyRangeReverseINS_9allocatorIhEEPhEC2B8ne200100ERS2_RS3_S6_
FNL:2,529,531
FNA:2,0,_ZNKSt3__129_AllocatorDestroyRangeReverseINS_9allocatorIN3p2p5relay13StunAttributeEEEPS4_EclB8ne200100Ev
FNA:2,0,_ZNKSt3__129_AllocatorDestroyRangeReverseINS_9allocatorIN3p2p5relay7AddressEEEPS4_EclB8ne200100Ev
FNA:2,0,_ZNKSt3__129_AllocatorDestroyRangeReverseINS_9allocatorIN3p2p8protocol13StunAttributeEEEPS4_EclB8ne200100Ev
FNA:2,0,_ZNKSt3__129_AllocatorDestroyRangeReverseINS_9allocatorIN5boost4asio2ip20basic_resolver_entryINS4_3udpEEEEEPS7_EclB8ne200100Ev
FNA:2,0,_ZNKSt3__129_AllocatorDestroyRangeReverseINS_9allocatorIN8nlohmann16json_abi_v3_12_010basic_jsonINS_3mapENS_6vectorENS_12basic_stringIcNS_11char_traitsIcEENS1_IcEEEEbxydS1_NS3_14adl_serializerENS6_IhNS1_IhEEEEvEEEEPSF_EclB8ne200100Ev
FNA:2,0,_ZNKSt3__129_AllocatorDestroyRangeReverseINS_9allocatorINS_6threadEEEPS2_EclB8ne200100Ev
FNA:2,0,_ZNKSt3__129_AllocatorDestroyRangeReverseINS_9allocatorIhEEPhEclB8ne200100Ev
FNL:3,545,556
FNA:3,1,_ZNSt3__135__uninitialized_allocator_copy_implB8ne200100INS_9allocatorIN3p2p5relay7AddressEEEPKS4_S7_PS4_EET2_RT_T0_T1_S9_
FNA:3,0,_ZNSt3__135__uninitialized_allocator_copy_implB8ne200100INS_9allocatorIN8nlohmann16json_abi_v3_12_010basic_jsonINS_3mapENS_6vectorENS_12basic_stringIcNS_11char_traitsIcEENS1_IcEEEEbxydS1_NS3_14adl_serializerENS6_IhNS1_IhEEEEvEEEEPSF_SH_SH_EET2_RT_T0_T1_SI_
FNA:3,0,_ZNSt3__135__uninitialized_allocator_copy_implB8ne200100INS_9allocatorIhEEPKcS4_PhEET2_RT_T0_T1_S6_
FNA:3,61,_ZNSt3__135__uninitialized_allocator_copy_implB8ne200100INS_9allocatorIhEEPKhS4_PhEET2_RT_T0_T1_S6_
FNA:3,19,_ZNSt3__135__uninitialized_allocator_copy_implB8ne200100INS_9allocatorIhEEPcS3_PhEET2_RT_T0_T1_S5_
FNL:4,572,581
FNA:4,60,_ZNSt3__135__uninitialized_allocator_copy_implB8ne200100INS_9allocatorIhEEhhLi0EEEPT1_RT_PT0_S8_S4_
FNL:5,587,591
FNA:5,1,_ZNSt3__130__uninitialized_allocator_copyB8ne200100INS_9allocatorIN3p2p5relay7AddressEEEPKS4_S7_PS4_EET2_RT_T0_T1_S9_
FNA:5,0,_ZNSt3__130__uninitialized_allocator_copyB8ne200100INS_9allocatorIN8nlohmann16json_abi_v3_12_010basic_jsonINS_3mapENS_6vectorENS_12basic_stringIcNS_11char_traitsIcEENS1_IcEEEEbxydS1_NS3_14adl_serializerENS6_IhNS1_IhEEEEvEEEEPSF_SH_SH_EET2_RT_T0_T1_SI_
FNA:5,0,_ZNSt3__130__uninitialized_allocator_copyB8ne200100INS_9allocatorIhEENS_11__wrap_iterIPKcEES6_PhEET2_RT_T0_T1_S8_
FNA:5,9,_ZNSt3__130__uninitialized_allocator_copyB8ne200100INS_9allocatorIhEENS_11__wrap_iterIPKhEES6_PhEET2_RT_T0_T1_S8_
FNA:5,19,_ZNSt3__130__uninitialized_allocator_copyB8ne200100INS_9allocatorIhEENS_11__wrap_iterIPcEES5_PhEET2_RT_T0_T1_S7_
FNA:5,35,_ZNSt3__130__uninitialized_allocator_copyB8ne200100INS_9allocatorIhEENS_11__wrap_iterIPhEES5_S4_EET2_RT_T0_T1_S6_
FNA:5,52,_ZNSt3__130__uninitialized_allocator_copyB8ne200100INS_9allocatorIhEEPKhS4_PhEET2_RT_T0_T1_S6_
FNA:5,25,_ZNSt3__130__uninitialized_allocator_copyB8ne200100INS_9allocatorIhEEPhS3_S3_EET2_RT_T0_T1_S4_
FNL:6,619,649
FNA:6,3,_ZNSt3__134__uninitialized_allocator_relocateB8ne200100INS_9allocatorIN3p2p5relay13StunAttributeEEEPS4_EEvRT_T0_S9_S9_
FNA:6,37,_ZNSt3__134__uninitialized_allocator_relocateB8ne200100INS_9allocatorIN3p2p8protocol13StunAttributeEEEPS4_EEvRT_T0_S9_S9_
FNA:6,0,_ZNSt3__134__uninitialized_allocator_relocateB8ne200100INS_9allocatorIN5boost4asio2ip20basic_resolver_entryINS4_3udpEEEEEPS7_EEvRT_T0_SC_SC_
FNA:6,36,_ZNSt3__134__uninitialized_allocator_relocateB8ne200100INS_9allocatorIN8nlohmann16json_abi_v3_12_010basic_jsonINS_3mapENS_6vectorENS_12basic_stringIcNS_11char_traitsIcEENS1_IcEEEEbxydS1_NS3_14adl_serializerENS6_IhNS1_IhEEEEvEEEEPSF_EEvRT_T0_SK_SK_
FNA:6,20,_ZNSt3__134__uninitialized_allocator_relocateB8ne200100INS_9allocatorINS_10unique_ptrIN3p2p7testing10TestClientENS_14default_deleteIS5_EEEEEEPS8_EEvRT_T0_SD_SD_
FNA:6,0,_ZNSt3__134__uninitialized_allocator_relocateB8ne200100INS_9allocatorINS_12basic_stringIcNS_11char_traitsIcEENS1_IcEEEEEEPS6_EEvRT_T0_SB_SB_
FNA:6,28,_ZNSt3__134__uninitialized_allocator_relocateB8ne200100INS_9allocatorINS_4pairIN3p2p9detection12DeviceVendorEdEEEEPS6_EEvRT_T0_SB_SB_
FNA:6,5,_ZNSt3__134__uninitialized_allocator_relocateB8ne200100INS_9allocatorINS_5arrayIhLm12EEEEEPS3_EEvRT_T0_S8_S8_
FNA:6,37,_ZNSt3__134__uninitialized_allocator_relocateB8ne200100INS_9allocatorINS_6threadEEEPS2_EEvRT_T0_S7_S7_
FNA:6,25,_ZNSt3__134__uninitialized_allocator_relocateB8ne200100INS_9allocatorIPN8nlohmann16json_abi_v3_12_010basic_jsonINS_3mapENS_6vectorENS_12basic_stringIcNS_11char_traitsIcEENS1_IcEEEEbxydS1_NS3_14adl_serializerENS6_IhNS1_IhEEEEvEEEEPSG_EEvRT_T0_SL_SL_
FNA:6,127,_ZNSt3__134__uninitialized_allocator_relocateB8ne200100INS_9allocatorIcEEPcEEvRT_T0_S6_S6_
FNA:6,562,_ZNSt3__134__uninitialized_allocator_relocateB8ne200100INS_9allocatorIhEEPhEEvRT_T0_S6_S6_
FNA:6,4,_ZNSt3__134__uninitialized_allocator_relocateB8ne200100INS_9allocatorItEEPtEEvRT_T0_S6_S6_
FNF:7
FNH:6
DA:517,113
DA:518,337
DA:519,224
DA:520,113
DA:526,388
DA:527,388
DA:529,0
DA:530,0
DA:531,0
DA:545,81
DA:546,81
DA:548,81
DA:549,26572
DA:550,26491
DA:551,26491
DA:552,26491
DA:554,81
DA:555,81
DA:556,81
DA:572,60
DA:581,60
DA:587,141
DA:588,141
DA:589,141
DA:590,141
DA:591,141
DA:619,884
DA:628,113
DA:629,113
DA:630,113
DA:631,113
DA:632,337
DA:634,224
DA:638,224
DA:639,224
DA:641,113
DA:642,113
DA:643,113
DA:645,1542
DA:646,771
DA:647,771
DA:649,884
LF:42
LH:39
end_of_record
TN:
SF:/Library/Developer/CommandLineTools/SDKs/MacOSX.sdk/usr/include/c++/v1/__memory/unique_ptr.h
FNL:0,196,196
FNA:0,13,_ZNSt3__110unique_ptrIN3p2p3did10DIDStorageENS_14default_deleteIS3_EEEC1B8ne200100ILb1EvEEv
FNA:0,13,_ZNSt3__110unique_ptrIN3p2p3did10DIDStorageENS_14default_deleteIS3_EEEC2B8ne200100ILb1EvEEv
FNA:0,11,_ZNSt3__110unique_ptrIN3p2p3did7DIDAuthENS_14default_deleteIS3_EEEC1B8ne200100ILb1EvEEv
FNA:0,11,_ZNSt3__110unique_ptrIN3p2p3did7DIDAuthENS_14default_deleteIS3_EEEC2B8ne200100ILb1EvEEv
FNA:0,26,_ZNSt3__110unique_ptrIN3p2p5relay11TokenBucketENS_14default_deleteIS3_EEEC1B8ne200100ILb1EvEEv
FNA:0,26,_ZNSt3__110unique_ptrIN3p2p5relay11TokenBucketENS_14default_deleteIS3_EEEC2B8ne200100ILb1EvEEv
FNA:0,18,_ZNSt3__110unique_ptrIN3p2p5relay17AllocationManagerENS_14default_deleteIS3_EEEC1B8ne200100ILb1EvEEv
FNA:0,18,_ZNSt3__110unique_ptrIN3p2p5relay17AllocationManagerENS_14default_deleteIS3_EEEC2B8ne200100ILb1EvEEv
FNA:0,6,_ZNSt3__110unique_ptrIN3p2p6server10StunServerENS_14default_deleteIS3_EEEC1B8ne200100ILb1EvEEv
FNA:0,6,_ZNSt3__110unique_ptrIN3p2p6server10StunServerENS_14default_deleteIS3_EEEC2B8ne200100ILb1EvEEv
FNA:0,25,_ZNSt3__110unique_ptrIN5boost4asio10io_contextENS_14default_deleteIS3_EEEC1B8ne200100ILb1EvEEv
FNA:0,25,_ZNSt3__110unique_ptrIN5boost4asio10io_contextENS_14default_deleteIS3_EEEC2B8ne200100ILb1EvEEv
FNA:0,6,_ZNSt3__110unique_ptrIN5boost4asio21basic_datagram_socketINS2_2ip3udpENS2_15any_io_executorEEENS_14default_deleteIS7_EEEC1B8ne200100ILb1EvEEv
FNA:0,6,_ZNSt3__110unique_ptrIN5boost4asio21basic_datagram_socketINS2_2ip3udpENS2_15any_io_executorEEENS_14default_deleteIS7_EEEC2B8ne200100ILb1EvEEv
FNA:0,6,_ZNSt3__110unique_ptrIN5boost4asio21basic_socket_acceptorINS2_2ip3tcpENS2_15any_io_executorEEENS_14default_deleteIS7_EEEC1B8ne200100ILb1EvEEv
FNA:0,6,_ZNSt3__110unique_ptrIN5boost4asio21basic_socket_acceptorINS2_2ip3tcpENS2_15any_io_executorEEENS_14default_deleteIS7_EEEC2B8ne200100ILb1EvEEv
FNA:0,185,_ZNSt3__110unique_ptrINS_12basic_stringIcNS_11char_traitsIcEENS_9allocatorIcEEEENS_14default_deleteIS6_EEEC1B8ne200100ILb1EvEEv
FNA:0,185,_ZNSt3__110unique_ptrINS_12basic_stringIcNS_11char_traitsIcEENS_9allocatorIcEEEENS_14default_deleteIS6_EEEC2B8ne200100ILb1EvEEv
FNL:1,199,199
FNA:1,2,_ZNSt3__110unique_ptrIN3p2p5relay11StunMessageENS_14default_deleteIS3_EEEC1B8ne200100ILb1EvEEDn
FNA:1,2,_ZNSt3__110unique_ptrIN3p2p5relay11StunMessageENS_14default_deleteIS3_EEEC2B8ne200100ILb1EvEEDn
FNA:1,3,_ZNSt3__110unique_ptrIN3p2p8protocol7MessageENS_14default_deleteIS3_EEEC1B8ne200100ILb1EvEEDn
FNA:1,3,_ZNSt3__110unique_ptrIN3p2p8protocol7MessageENS_14default_deleteIS3_EEEC2B8ne200100ILb1EvEEDn
FNL:2,202,204
FNA:2,13,_ZNSt3__110unique_ptrIN3p2p3did10DIDStorageENS_14default_deleteIS3_EEEC1B8ne200100ILb1EvEEPS3_
FNA:2,13,_ZNSt3__110unique_ptrIN3p2p3did10DIDStorageENS_14default_deleteIS3_EEEC2B8ne200100ILb1EvEEPS3_
FNA:2,11,_ZNSt3__110unique_ptrIN3p2p3did7DIDAuthENS_14default_deleteIS3_EEEC1B8ne200100ILb1EvEEPS3_
FNA:2,11,_ZNSt3__110unique_ptrIN3p2p3did7DIDAuthENS_14default_deleteIS3_EEEC2B8ne200100ILb1EvEEPS3_
FNA:2,8,_ZNSt3__110unique_ptrIN3p2p5relay11StunMessageENS_14default_deleteIS3_EEEC1B8ne200100ILb1EvEEPS3_
FNA:2,8,_ZNSt3__110unique_ptrIN3p2p5relay11StunMessageENS_14default_deleteIS3_EEEC2B8ne200100ILb1EvEEPS3_
FNA:2,15,_ZNSt3__110unique_ptrIN3p2p5relay11TokenBucketENS_14default_deleteIS3_EEEC1B8ne200100ILb1EvEEPS3_
FNA:2,15,_ZNSt3__110unique_ptrIN3p2p5relay11TokenBucketENS_14default_deleteIS3_EEEC2B8ne200100ILb1EvEEPS3_
FNA:2,18,_ZNSt3__110unique_ptrIN3p2p5relay17AllocationManagerENS_14default_deleteIS3_EEEC1B8ne200100ILb1EvEEPS3_
FNA:2,18,_ZNSt3__110unique_ptrIN3p2p5relay17AllocationManagerENS_14default_deleteIS3_EEEC2B8ne200100ILb1EvEEPS3_
FNA:2,6,_ZNSt3__110unique_ptrIN3p2p6server10StunServerENS_14default_deleteIS3_EEEC1B8ne200100ILb1EvEEPS3_
FNA:2,6,_ZNSt3__110unique_ptrIN3p2p6server10StunServerENS_14default_deleteIS3_EEEC2B8ne200100ILb1EvEEPS3_
FNA:2,50,_ZNSt3__110unique_ptrIN3p2p7testing10TestClientENS_14default_deleteIS3_EEEC1B8ne200100ILb1EvEEPS3_
FNA:2,50,_ZNSt3__110unique_ptrIN3p2p7testing10TestClientENS_14default_deleteIS3_EEEC2B8ne200100ILb1EvEEPS3_
FNA:2,17,_ZNSt3__110unique_ptrIN3p2p8protocol7MessageENS_14default_deleteIS3_EEEC1B8ne200100ILb1EvEEPS3_
FNA:2,17,_ZNSt3__110unique_ptrIN3p2p8protocol7MessageENS_14default_deleteIS3_EEEC2B8ne200100ILb1EvEEPS3_
FNA:2,25,_ZNSt3__110unique_ptrIN5boost4asio10io_contextENS_14default_deleteIS3_EEEC1B8ne200100ILb1EvEEPS3_
FNA:2,25,_ZNSt3__110unique_ptrIN5boost4asio10io_contextENS_14default_deleteIS3_EEEC2B8ne200100ILb1EvEEPS3_
FNA:2,6,_ZNSt3__110unique_ptrIN5boost4asio21basic_datagram_socketINS2_2ip3udpENS2_15any_io_executorEEENS_14default_deleteIS7_EEEC1B8ne200100ILb1EvEEPS7_
FNA:2,6,_ZNSt3__110unique_ptrIN5boost4asio21basic_datagram_socketINS2_2ip3udpENS2_15any_io_executorEEENS_14default_deleteIS7_EEEC2B8ne200100ILb1EvEEPS7_
FNA:2,6,_ZNSt3__110unique_ptrIN5boost4asio21basic_socket_acceptorINS2_2ip3tcpENS2_15any_io_executorEEENS_14default_deleteIS7_EEEC1B8ne200100ILb1EvEEPS7_
FNA:2,6,_ZNSt3__110unique_ptrIN5boost4asio21basic_socket_acceptorINS2_2ip3tcpENS2_15any_io_executorEEENS_14default_deleteIS7_EEEC2B8ne200100ILb1EvEEPS7_
FNA:2,4,_ZNSt3__110unique_ptrINS_12basic_stringIcNS_11char_traitsIcEENS_9allocatorIcEEEENS_14default_deleteIS6_EEEC1B8ne200100ILb1EvEEPS6_
FNA:2,4,_ZNSt3__110unique_ptrINS_12basic_stringIcNS_11char_traitsIcEENS_9allocatorIcEEEENS_14default_deleteIS6_EEEC2B8ne200100ILb1EvEEPS6_
FNA:2,181,_ZNSt3__110unique_ptrINS_15__thread_structENS_14default_deleteIS1_EEEC1B8ne200100ILb1EvEEPS1_
FNA:2,181,_ZNSt3__110unique_ptrINS_15__thread_structENS_14default_deleteIS1_EEEC2B8ne200100ILb1EvEEPS1_
FNA:2,0,_ZNSt3__110unique_ptrINS_5tupleIJNS0_INS_15__thread_structENS_14default_deleteIS2_EEEEMN3p2p5relay17AllocationManagerEFvvEPS8_EEENS3_ISC_EEEC1B8ne200100ILb1EvEEPSC_
FNA:2,0,_ZNSt3__110unique_ptrINS_5tupleIJNS0_INS_15__thread_structENS_14default_deleteIS2_EEEEMN3p2p5relay17AllocationManagerEFvvEPS8_EEENS3_ISC_EEEC2B8ne200100ILb1EvEEPSC_
FNA:2,12,_ZNSt3__110unique_ptrINS_5tupleIJNS0_INS_15__thread_structENS_14default_deleteIS2_EEEEZN14StunServerTest5SetUpEvEUlvE_EEENS3_IS8_EEEC1B8ne200100ILb1EvEEPS8_
FNA:2,12,_ZNSt3__110unique_ptrINS_5tupleIJNS0_INS_15__thread_structENS_14default_deleteIS2_EEEEZN14StunServerTest5SetUpEvEUlvE_EEENS3_IS8_EEEC2B8ne200100ILb1EvEEPS8_
FNA:2,10,_ZNSt3__110unique_ptrINS_5tupleIJNS0_INS_15__thread_structENS_14default_deleteIS2_EEEEZN16UDPTransportTest14run_io_contextEvEUlvE_EEENS3_IS8_EEEC1B8ne200100ILb1EvEEPS8_
FNA:2,10,_ZNSt3__110unique_ptrINS_5tupleIJNS0_INS_15__thread_structENS_14default_deleteIS2_EEEEZN16UDPTransportTest14run_io_contextEvEUlvE_EEENS3_IS8_EEEC2B8ne200100ILb1EvEEPS8_
FNA:2,200,_ZNSt3__110unique_ptrINS_5tupleIJNS0_INS_15__thread_structENS_14default_deleteIS2_EEEEZN29MultiClientTest_LoadTest_Test8TestBodyEvE3$_0EEENS3_IS8_EEEC1B8ne200100ILb1EvEEPS8_
FNA:2,200,_ZNSt3__110unique_ptrINS_5tupleIJNS0_INS_15__thread_structENS_14default_deleteIS2_EEEEZN29MultiClientTest_LoadTest_Test8TestBodyEvE3$_0EEENS3_IS8_EEEC2B8ne200100ILb1EvEEPS8_
FNA:2,20,_ZNSt3__110unique_ptrINS_5tupleIJNS0_INS_15__thread_structENS_14default_deleteIS2_EEEEZN32MultiClientTest_MeshNetwork_Test8TestBodyEvE3$_0EEENS3_IS8_EEEC1B8ne200100ILb1EvEEPS8_
FNA:2,20,_ZNSt3__110unique_ptrINS_5tupleIJNS0_INS_15__thread_structENS_14default_deleteIS2_EEEEZN32MultiClientTest_MeshNetwork_Test8TestBodyEvE3$_0EEENS3_IS8_EEEC2B8ne200100ILb1EvEEPS8_
FNA:2,2,_ZNSt3__110unique_ptrINS_5tupleIJNS0_INS_15__thread_structENS_14default_deleteIS2_EEEEZN3p2p6server10StunServer17handle_tcp_acceptENS_10shared_ptrIN5boost4asio19basic_stream_socketINSB_2ip3tcpENSB_15any_io_executorEEEEERKNSA_6system10error_codeEE3$_0EEENS3_ISN_EEEC1B8ne200100ILb1EvEEPSN_
FNA:2,2,_ZNSt3__110unique_ptrINS_5tupleIJNS0_INS_15__thread_structENS_14default_deleteIS2_EEEEZN3p2p6server10StunServer17handle_tcp_acceptENS_10shared_ptrIN5boost4asio19basic_stream_socketINSB_2ip3tcpENSB_15any_io_executorEEEEERKNSA_6system10error_codeEE3$_0EEENS3_ISN_EEEC2B8ne200100ILb1EvEEPSN_
FNA:2,20,_ZNSt3__110unique_ptrINS_5tupleIJNS0_INS_15__thread_structENS_14default_deleteIS2_EEEEZN41MultiClientTest_TenConcurrentClients_Test8TestBodyEvE3$_0EEENS3_IS8_EEEC1B8ne200100ILb1EvEEPS8_
FNA:2,20,_ZNSt3__110unique_ptrINS_5tupleIJNS0_INS_15__thread_structENS_14default_deleteIS2_EEEEZN41MultiClientTest_TenConcurrentClients_Test8TestBodyEvE3$_0EEENS3_IS8_EEEC2B8ne200100ILb1EvEEPS8_
FNA:2,8,_ZNSt3__110unique_ptrINS_5tupleIJNS0_INS_15__thread_structENS_14default_deleteIS2_EEEEZN42BandwidthLimiterTest_ConcurrentAccess_Test8TestBodyEvE3$_0iEEENS3_IS8_EEEC1B8ne200100ILb1EvEEPS8_
FNA:2,8,_ZNSt3__110unique_ptrINS_5tupleIJNS0_INS_15__thread_structENS_14default_deleteIS2_EEEEZN42BandwidthLimiterTest_ConcurrentAccess_Test8TestBodyEvE3$_0iEEENS3_IS8_EEEC2B8ne200100ILb1EvEEPS8_
FNA:2,40,_ZNSt3__110unique_ptrINS_5tupleIJNS0_INS_15__thread_structENS_14default_deleteIS2_EEEEZN43MultiClientTest_ConcurrentStunBindings_Test8TestBodyEvE3$_0EEENS3_IS8_EEEC1B8ne200100ILb1EvEEPS8_
FNA:2,40,_ZNSt3__110unique_ptrINS_5tupleIJNS0_INS_15__thread_structENS_14default_deleteIS2_EEEEZN43MultiClientTest_ConcurrentStunBindings_Test8TestBodyEvE3$_0EEENS3_IS8_EEEC2B8ne200100ILb1EvEEPS8_
FNA:2,30,_ZNSt3__110unique_ptrINS_5tupleIJNS0_INS_15__thread_structENS_14default_deleteIS2_EEEEZN46MultiClientTest_ConcurrentTurnAllocations_Test8TestBodyEvE3$_0EEENS3_IS8_EEEC1B8ne200100ILb1EvEEPS8_
FNA:2,30,_ZNSt3__110unique_ptrINS_5tupleIJNS0_INS_15__thread_structENS_14default_deleteIS2_EEEEZN46MultiClientTest_ConcurrentTurnAllocations_Test8TestBodyEvE3$_0EEENS3_IS8_EEEC2B8ne200100ILb1EvEEPS8_
FNA:2,20,_ZNSt3__110unique_ptrINS_5tupleIJNS0_INS_15__thread_structENS_14default_deleteIS2_EEEEZN48AllocationManagerTest_ConcurrentAllocations_Test8TestBodyEvE3$_0EEENS3_IS8_EEEC1B8ne200100ILb1EvEEPS8_
FNA:2,20,_ZNSt3__110unique_ptrINS_5tupleIJNS0_INS_15__thread_structENS_14default_deleteIS2_EEEEZN48AllocationManagerTest_ConcurrentAllocations_Test8TestBodyEvE3$_0EEENS3_IS8_EEEC2B8ne200100ILb1EvEEPS8_
FNA:2,0,_ZNSt3__110unique_ptrINS_6vectorIN5boost4asio2ip20basic_resolver_entryINS4_3udpEEENS_9allocatorIS7_EEEENS_14default_deleteISA_EEEC1B8ne200100ILb1EvEEPSA_
FNA:2,0,_ZNSt3__110unique_ptrINS_6vectorIN5boost4asio2ip20basic_resolver_entryINS4_3udpEEENS_9allocatorIS7_EEEENS_14default_deleteISA_EEEC2B8ne200100ILb1EvEEPSA_
FNL:3,207,209
FNA:3,0,_ZNSt3__110unique_ptrIN8nlohmann16json_abi_v3_12_027byte_container_with_subtypeINS_6vectorIhNS_9allocatorIhEEEEEEZNS2_10basic_jsonINS_3mapES4_NS_12basic_stringIcNS_11char_traitsIcEENS5_IcEEEEbxydS5_NS2_14adl_serializerES7_vE6createIS8_JEEEPT_DpOT0_EUlPS8_E_EC1B8ne200100ILb1EvEESO_NS_16__dependent_typeINS_27__unique_ptr_deleter_sfinaeISP_EEXT_EE15__lval_ref_typeE
FNA:3,0,_ZNSt3__110unique_ptrIN8nlohmann16json_abi_v3_12_027byte_container_with_subtypeINS_6vectorIhNS_9allocatorIhEEEEEEZNS2_10basic_jsonINS_3mapES4_NS_12basic_stringIcNS_11char_traitsIcEENS5_IcEEEEbxydS5_NS2_14adl_serializerES7_vE6createIS8_JEEEPT_DpOT0_EUlPS8_E_EC2B8ne200100ILb1EvEESO_NS_16__dependent_typeINS_27__unique_ptr_deleter_sfinaeISP_EEXT_EE15__lval_ref_typeE
FNA:3,0,_ZNSt3__110unique_ptrIN8nlohmann16json_abi_v3_12_027byte_container_with_subtypeINS_6vectorIhNS_9allocatorIhEEEEEEZNS2_10basic_jsonINS_3mapES4_NS_12basic_stringIcNS_11char_traitsIcEENS5_IcEEEEbxydS5_NS2_14adl_serializerES7_vE6createIS8_JRKS8_EEEPT_DpOT0_EUlPS8_E_EC1B8ne200100ILb1EvEESQ_NS_16__dependent_typeINS_27__unique_ptr_deleter_sfinaeISR_EEXT_EE15__lval_ref_typeE
FNA:3,0,_ZNSt3__110unique_ptrIN8nlohmann16json_abi_v3_12_027byte_container_with_subtypeINS_6vectorIhNS_9allocatorIhEEEEEEZNS2_10basic_jsonINS_3mapES4_NS_12basic_stringIcNS_11char_traitsIcEENS5_IcEEEEbxydS5_NS2_14adl_serializerES7_vE6createIS8_JRKS8_EEEPT_DpOT0_EUlPS8_E_EC2B8ne200100ILb1EvEESQ_NS_16__dependent_typeINS_27__unique_ptr_deleter_sfinaeISR_EEXT_EE15__lval_ref_typeE
FNA:3,0,_ZNSt3__110unique_ptrINS_12basic_stringIcNS_11char_traitsIcEENS_9allocatorIcEEEEZN8nlohmann16json_abi_v3_12_010basic_jsonINS_3mapENS_6vectorES6_bxydS4_NS8_14adl_serializerENSB_IhNS4_IhEEEEvE6createIS6_JRA1_KcEEEPT_DpOT0_EUlPS6_E_EC1B8ne200100ILb1EvEESP_NS_16__dependent_typeINS_27__unique_ptr_deleter_sfinaeISQ_EEXT_EE15__lval_ref_typeE
FNA:3,0,_ZNSt3__110unique_ptrINS_12basic_stringIcNS_11char_traitsIcEENS_9allocatorIcEEEEZN8nlohmann16json_abi_v3_12_010basic_jsonINS_3mapENS_6vectorES6_bxydS4_NS8_14adl_serializerENSB_IhNS4_IhEEEEvE6createIS6_JRA1_KcEEEPT_DpOT0_EUlPS6_E_EC2B8ne200100ILb1EvEESP_NS_16__dependent_typeINS_27__unique_ptr_deleter_sfinaeISQ_EEXT_EE15__lval_ref_typeE
FNA:3,144,_ZNSt3__110unique_ptrINS_12basic_stringIcNS_11char_traitsIcEENS_9allocatorIcEEEEZN8nlohmann16json_abi_v3_12_010basic_jsonINS_3mapENS_6vectorES6_bxydS4_NS8_14adl_serializerENSB_IhNS4_IhEEEEvE6createIS6_JRKS6_EEEPT_DpOT0_EUlPS6_E_EC1B8ne200100ILb1EvEESO_NS_16__dependent_typeINS_27__unique_ptr_deleter_sfinaeISP_EEXT_EE15__lval_ref_typeE
FNA:3,144,_ZNSt3__110unique_ptrINS_12basic_stringIcNS_11char_traitsIcEENS_9allocatorIcEEEEZN8nlohmann16json_abi_v3_12_010basic_jsonINS_3mapENS_6vectorES6_bxydS4_NS8_14adl_serializerENSB_IhNS4_IhEEEEvE6createIS6_JRKS6_EEEPT_DpOT0_EUlPS6_E_EC2B8ne200100ILb1EvEESO_NS_16__dependent_typeINS_27__unique_ptr_deleter_sfinaeISP_EEXT_EE15__lval_ref_typeE
FNA:3,44,_ZNSt3__110unique_ptrINS_3mapINS_12basic_stringIcNS_11char_traitsIcEENS_9allocatorIcEEEEN8nlohmann16json_abi_v3_12_010basic_jsonIS1_NS_6vectorES7_bxydS5_NS9_14adl_serializerENSB_IhNS5_IhEEEEvEENS_4lessIvEENS5_INS_4pairIKS7_SF_EEEEEEZNSF_6createISM_JEEEPT_DpOT0_EUlPSM_E_EC1B8ne200100ILb1EvEEST_NS_16__dependent_typeINS_27__unique_ptr_deleter_sfinaeISU_EEXT_EE15__lval_ref_typeE
FNA:3,44,_ZNSt3__110unique_ptrINS_3mapINS_12basic_stringIcNS_11char_traitsIcEENS_9allocatorIcEEEEN8nlohmann16json_abi_v3_12_010basic_jsonIS1_NS_6vectorES7_bxydS5_NS9_14adl_serializerENSB_IhNS5_IhEEEEvEENS_4lessIvEENS5_INS_4pairIKS7_SF_EEEEEEZNSF_6createISM_JEEEPT_DpOT0_EUlPSM_E_EC2B8ne200100ILb1EvEEST_NS_16__dependent_typeINS_27__unique_ptr_deleter_sfinaeISU_EEXT_EE15__lval_ref_typeE
