TN:
SF:/Users/liuhongbo/work/p2p-platform/p2p-cpp/include/p2p/protocol/message.hpp
FNL:0,110
FNA:0,0,_ZN3p2p8protocol18ChannelDataMessageD0Ev
FNA:0,5,_ZN3p2p8protocol18ChannelDataMessageD1Ev
FNA:0,5,_ZN3p2p8protocol18ChannelDataMessageD2Ev
FNL:1,121
FNA:1,0,_ZN3p2p8protocol16KeepaliveMessageD0Ev
FNA:1,0,_ZN3p2p8protocol16KeepaliveMessageD1Ev
FNA:1,0,_ZN3p2p8protocol16KeepaliveMessageD2Ev
FNL:2,130
FNA:2,0,_ZN3p2p8protocol17DisconnectMessageD0Ev
FNA:2,2,_ZN3p2p8protocol17DisconnectMessageD1Ev
FNA:2,2,_ZN3p2p8protocol17DisconnectMessageD2Ev
FNL:3,37,37
FNA:3,17,_ZN3p2p8protocol7MessageD0Ev
FNA:3,27,_ZN3p2p8protocol7MessageD1Ev
FNA:3,39,_ZN3p2p8protocol7MessageD2Ev
FNL:4,40,40
FNA:4,6,_ZNK3p2p8protocol7Message4typeEv
FNL:5,41,41
FNA:5,2,_ZNK3p2p8protocol7Message10sender_didEv
FNL:6,42,42
FNA:6,2,_ZNK3p2p8protocol7Message12receiver_didEv
FNL:7,43,43
FNA:7,2,_ZNK3p2p8protocol7Message10message_idEv
FNL:8,44,44
FNA:8,7,_ZNK3p2p8protocol7Message10channel_idEv
FNL:9,45,45
FNA:9,5,_ZNK3p2p8protocol7Message7payloadEv
FNL:10,46,46
FNA:10,3,_ZNK3p2p8protocol7Message9timestampEv
FNL:11,47,47
FNA:11,10,_ZNK3p2p8protocol7Message8metadataEv
FNL:12,50,50
FNA:12,6,_ZN3p2p8protocol7Message14set_channel_idEi
FNL:13,51,51
FNA:13,5,_ZN3p2p8protocol7Message11set_payloadERKNSt3__16vectorIhNS2_9allocatorIhEEEE
FNL:14,53,55
FNA:14,18,_ZN3p2p8protocol7Message12add_metadataERKNSt3__112basic_stringIcNS2_11char_traitsIcEENS2_9allocatorIcEEEESA_
FNL:15,86
FNA:15,0,_ZN3p2p8protocol16HandshakeMessageD0Ev
FNA:15,5,_ZN3p2p8protocol16HandshakeMessageD1Ev
FNA:15,5,_ZN3p2p8protocol16HandshakeMessageD2Ev
FNF:16
FNH:15
DA:37,83
DA:40,6
DA:41,2
DA:42,2
DA:43,2
DA:44,7
DA:45,5
DA:46,3
DA:47,10
DA:50,6
DA:51,5
DA:53,18
DA:54,18
DA:55,18
LF:14
LH:14
end_of_record
TN:
SF:/Users/liuhongbo/work/p2p-platform/p2p-cpp/include/p2p/protocol/stun.hpp
FNL:0,53,57
FNA:0,39,_ZN3p2p8protocol13StunAttributeC1EOS1_
FNA:0,39,_ZN3p2p8protocol13StunAttributeC2EOS1_
FNA:0,76,_ZN3p2p8protocol13StunAttributeD1Ev
FNA:0,76,_ZN3p2p8protocol13StunAttributeD2Ev
FNL:1,57,58
FNA:1,37,_ZN3p2p8protocol13StunAttributeC1ENS0_17StunAttributeTypeENSt3__16vectorIhNS3_9allocatorIhEEEE
FNA:1,37,_ZN3p2p8protocol13StunAttributeC2ENS0_17StunAttributeTypeENSt3__16vectorIhNS3_9allocatorIhEEEE
FNL:2,62
FNA:2,31,_ZN3p2p8protocol11StunMessageC1EOS1_
FNA:2,31,_ZN3p2p8protocol11StunMessageC2EOS1_
FNA:2,98,_ZN3p2p8protocol11StunMessageD1Ev
FNA:2,98,_ZN3p2p8protocol11StunMessageD2Ev
FNL:3,64,65
FNA:3,67,_ZN3p2p8protocol11StunMessageC1ENS0_15StunMessageTypeENSt3__15arrayIhLm12EEE
FNA:3,67,_ZN3p2p8protocol11StunMessageC2ENS0_15StunMessageTypeENSt3__15arrayIhLm12EEE
FNL:4,68,68
FNA:4,28,_ZNK3p2p8protocol11StunMessage12message_typeEv
FNL:5,69,69
FNA:5,31,_ZNK3p2p8protocol11StunMessage14transaction_idEv
FNL:6,70,70
FNA:6,4,_ZNK3p2p8protocol11StunMessage10attributesEv
FNL:7,73,75
FNA:7,37,_ZN3p2p8protocol11StunMessage13add_attributeENS0_13StunAttributeE
FNL:8,78,85
FNA:8,9,_ZNK3p2p8protocol11StunMessage13get_attributeENS0_17StunAttributeTypeE
FNF:9
FNH:9
DA:57,74
DA:58,74
DA:64,201
DA:65,201
DA:68,28
DA:69,31
DA:70,4
DA:73,37
DA:74,37
DA:75,37
DA:78,9
DA:79,10
DA:80,10
DA:81,9
DA:84,0
DA:85,9
LF:16
LH:15
end_of_record
TN:
SF:/Users/liuhongbo/work/p2p-platform/p2p-cpp/include/p2p/servers/relay/allocation_manager.hpp
FNL:0,28,38
FNA:0,34,_ZN3p2p5relay14TurnAllocationD1Ev
FNA:0,34,_ZN3p2p5relay14TurnAllocationD2Ev
FNL:1,38,38
FNA:1,11,_ZNK3p2p5relay14TurnAllocation15GetAllocationIdEv
FNL:2,39,39
FNA:2,6,_ZNK3p2p5relay14TurnAllocation13GetClientAddrEv
FNL:3,40,40
FNA:3,8,_ZNK3p2p5relay14TurnAllocation12GetRelayAddrEv
FNL:4,42,42
FNA:4,1,_ZNK3p2p5relay14TurnAllocation12GetTransportEv
FNL:5,57,57
FNA:5,4,_ZNK3p2p5relay14TurnAllocation12GetBytesSentEv
FNL:6,58,58
FNA:6,4,_ZNK3p2p5relay14TurnAllocation16GetBytesReceivedEv
FNF:7
FNH:7
DA:38,11
DA:39,6
DA:40,8
DA:42,1
DA:57,4
DA:58,4
LF:6
LH:6
end_of_record
TN:
SF:/Users/liuhongbo/work/p2p-platform/p2p-cpp/include/p2p/servers/relay/bandwidth_limiter.hpp
FNL:0,146
FNA:0,13,_ZN3p2p5relay16BandwidthLimiter18AllocationLimitersC1Ev
FNA:0,13,_ZN3p2p5relay16BandwidthLimiter18AllocationLimitersC2Ev
FNA:0,13,_ZN3p2p5relay16BandwidthLimiter18AllocationLimitersD1Ev
FNA:0,13,_ZN3p2p5relay16BandwidthLimiter18AllocationLimitersD2Ev
FNL:1,167
FNA:1,5,_ZN3p2p5relay17ThroughputMonitorD1Ev
FNA:1,5,_ZN3p2p5relay17ThroughputMonitorD2Ev
FNL:2,24,64
FNA:2,37,_ZN3p2p5relay11TokenBucketD1Ev
FNA:2,37,_ZN3p2p5relay11TokenBucketD2Ev
FNL:3,64,68
FNA:3,9,_ZN3p2p5relay14BandwidthLimitC1Ev
FNA:3,9,_ZN3p2p5relay14BandwidthLimitC2Ev
FNL:4,70,71
FNA:4,10,_ZN3p2p5relay14BandwidthLimitC1Eyyy
FNA:4,10,_ZN3p2p5relay14BandwidthLimitC2Eyyy
FNL:5,77,83
FNA:5,13,_ZN3p2p5relay14BandwidthStatsC1Ev
FNA:5,13,_ZN3p2p5relay14BandwidthStatsC2Ev
FNL:6,91
FNA:6,9,_ZN3p2p5relay16BandwidthLimiterD1Ev
FNA:6,9,_ZN3p2p5relay16BandwidthLimiterD2Ev
FNF:7
FNH:7
DA:64,18
DA:65,9
DA:66,9
DA:67,9
DA:68,18
DA:70,20
DA:71,20
DA:77,13
DA:78,13
DA:79,13
DA:80,13
DA:81,13
DA:82,13
DA:83,13
LF:14
LH:14
end_of_record
TN:
SF:/Users/liuhongbo/work/p2p-platform/p2p-cpp/include/p2p/servers/relay/turn_message.hpp
FNL:0,100,105
FNA:0,1,_ZN3p2p5relay13StunAttributeC1EOS1_
FNA:0,1,_ZN3p2p5relay13StunAttributeC2EOS1_
FNA:0,4,_ZN3p2p5relay13StunAttributeD1Ev
FNA:0,4,_ZN3p2p5relay13StunAttributeD2Ev
FNL:1,105,106
FNA:1,3,_ZN3p2p5relay13StunAttributeC1ENS0_13AttributeTypeENSt3__16vectorIhNS3_9allocatorIhEEEE
FNA:1,3,_ZN3p2p5relay13StunAttributeC2ENS0_13AttributeTypeENSt3__16vectorIhNS3_9allocatorIhEEEE
FNL:2,112
FNA:2,13,_ZN3p2p5relay11StunMessageD1Ev
FNA:2,13,_ZN3p2p5relay11StunMessageD2Ev
FNL:3,119,124
FNA:3,13,_ZN3p2p5relay11StunMessageC1Ev
FNA:3,13,_ZN3p2p5relay11StunMessageC2Ev
FNL:4,150
FNA:4,68,_ZN3p2p5relay7AddressC1EOS1_
FNA:4,72,_ZN3p2p5relay7AddressC1ERKS1_
FNA:4,68,_ZN3p2p5relay7AddressC2EOS1_
FNA:4,72,_ZN3p2p5relay7AddressC2ERKS1_
FNA:4,214,_ZN3p2p5relay7AddressD1Ev
FNA:4,214,_ZN3p2p5relay7AddressD2Ev
FNL:5,154,154
FNA:5,0,_ZN3p2p5relay7AddressC1Ev
FNA:5,0,_ZN3p2p5relay7AddressC2Ev
FNL:6,155,156
FNA:6,74,_ZN3p2p5relay7AddressC1ENSt3__112basic_stringIcNS2_11char_traitsIcEENS2_9allocatorIcEEEEt
FNA:6,74,_ZN3p2p5relay7AddressC2ENSt3__112basic_stringIcNS2_11char_traitsIcEENS2_9allocatorIcEEEEt
FNL:7,158,159
FNA:7,4,_ZNK3p2p5relay7AddresseqERKS1_
FNL:8,167,169
FNA:8,116,_ZNK3p2p5relay7Address8ToStringEv
FNF:9
FNH:8
DA:105,6
DA:106,6
DA:119,39
DA:120,13
DA:121,13
DA:122,26
DA:123,13
DA:124,26
DA:154,0
DA:155,148
DA:156,148
DA:158,4
DA:159,4
DA:167,116
DA:168,116
DA:169,0
LF:16
LH:14
end_of_record
TN:
SF:/Users/liuhongbo/work/p2p-platform/p2p-cpp/include/servers/did/did_server.hpp
FNL:0,12,18
FNA:0,1,_ZN3p2p3did15DIDServerConfigC1ERKS1_
FNA:0,1,_ZN3p2p3did15DIDServerConfigC1Ev
FNA:0,1,_ZN3p2p3did15DIDServerConfigC2ERKS1_
FNA:0,1,_ZN3p2p3did15DIDServerConfigC2Ev
FNA:0,2,_ZN3p2p3did15DIDServerConfigD1Ev
FNA:0,2,_ZN3p2p3did15DIDServerConfigD2Ev
FNF:1
FNH:1
DA:12,2
DA:13,1
DA:14,1
DA:15,1
DA:16,1
DA:17,1
DA:18,1
LF:7
LH:7
end_of_record
TN:
SF:/Users/liuhongbo/work/p2p-platform/p2p-cpp/src/detection/device_detector.cpp
FNL:0,10,12
FNA:0,10,_ZN3p2p9detection14DeviceDetectorC1Ev
FNA:0,10,_ZN3p2p9detection14DeviceDetectorC2Ev
FNL:1,14,302
FNA:1,10,_ZN3p2p9detection14DeviceDetector19initialize_profilesEv
FNL:2,304,354
FNA:2,5,_ZNK3p2p9detection14DeviceDetector6detectENS0_7NATTypeENS0_12PortStrategyEibb
FNL:3,355,363
FNA:3,282,_ZZNK3p2p9detection14DeviceDetector6detectENS0_7NATTypeENS0_12PortStrategyEibbENK3$_0clINSt3__14pairINS0_12DeviceVendorEdEES9_EEDaRKT_RKT0_
FNL:4,365,371
FNA:4,2,_ZNK3p2p9detection14DeviceDetector11get_profileENS0_12DeviceVendorE
FNL:5,373,374
FNA:5,1,_ZNK3p2p9detection14DeviceDetector16get_all_profilesEv
FNF:6
FNH:6
DA:10,20
DA:11,10
DA:12,20
DA:14,10
DA:16,50
DA:21,10
DA:22,10
DA:26,10
DA:28,10
DA:32,50
DA:37,10
DA:38,10
DA:42,10
DA:44,10
DA:48,50
DA:53,10
DA:54,10
DA:58,10
DA:60,10
DA:64,50
DA:69,10
DA:70,10
DA:74,10
DA:76,10
DA:80,50
DA:85,10
DA:86,10
DA:90,10
DA:92,10
DA:96,50
DA:101,10
DA:102,10
DA:106,10
DA:108,10
DA:112,50
DA:117,10
DA:118,10
DA:122,10
DA:124,10
DA:128,50
DA:133,10
DA:134,10
DA:138,10
DA:140,10
DA:144,50
DA:149,10
DA:150,10
DA:154,10
DA:156,10
DA:160,50
DA:165,10
DA:166,10
DA:170,10
DA:172,10
DA:176,50
DA:181,10
DA:182,10
DA:186,10
DA:188,10
DA:192,50
DA:197,10
DA:198,10
DA:202,10
DA:204,10
DA:208,50
DA:213,10
DA:214,10
DA:218,10
DA:220,10
DA:224,50
DA:229,10
DA:230,10
DA:234,10
DA:236,10
DA:240,50
DA:245,10
DA:246,10
DA:250,10
DA:252,10
DA:256,50
DA:261,10
DA:262,10
DA:266,10
DA:268,10
DA:272,50
DA:277,10
DA:278,10
DA:282,10
DA:284,10
DA:288,50
DA:293,10
DA:294,10
DA:298,10
DA:300,10
DA:302,10
DA:304,5
DA:311,5
DA:313,373
DA:314,90
DA:316,85
DA:319,85
DA:320,27
DA:321,27
DA:324,85
DA:325,40
DA:326,40
DA:329,85
DA:330,51
DA:331,51
DA:332,51
DA:335,85
DA:336,46
DA:337,46
DA:340,85
DA:341,43
DA:342,43
DA:344,85
DA:345,69
DA:346,69
DA:349,5
DA:350,0
DA:354,5
DA:355,282
DA:357,15
DA:359,10
DA:360,5
DA:362,15
DA:363,5
DA:365,2
DA:366,2
DA:367,2
DA:368,0
DA:370,2
DA:371,2
DA:373,1
DA:374,1
LF:136
LH:134
end_of_record
TN:
SF:/Users/liuhongbo/work/p2p-platform/p2p-cpp/src/detection/device_vendor.cpp
FNL:0,31,41
FNA:0,7,_ZN3p2p9detection9to_stringENS0_7NATTypeE
FNL:1,43,51
FNA:1,7,_ZN3p2p9detection9to_stringENS0_12PortStrategyE
FNL:2,53,64
FNA:2,2,_ZN3p2p9detection9to_stringENS0_13PunchStrategyE
FNL:3,66,85
FNA:3,4,_ZN3p2p9detection25device_vendor_from_stringERKNSt3__112basic_stringIcNS1_11char_traitsIcEENS1_9allocatorIcEEEE
FNL:4,7,29
FNA:4,3,_ZN3p2p9detection9to_stringENS0_12DeviceVendorE
FNF:5
FNH:5
DA:7,3
DA:8,3
DA:9,1
DA:10,0
DA:11,0
DA:12,0
DA:13,0
DA:14,0
DA:15,0
DA:16,1
DA:17,0
DA:18,0
DA:19,0
DA:20,0
DA:21,0
DA:22,0
DA:23,0
DA:24,1
DA:25,0
DA:26,0
DA:27,0
DA:29,3
DA:31,7
DA:32,7
DA:33,0
DA:34,2
DA:35,0
DA:36,2
DA:37,2
DA:38,1
DA:39,0
DA:41,7
DA:43,7
DA:44,7
DA:45,4
DA:46,1
DA:47,2
DA:48,0
DA:49,0
DA:51,7
DA:53,2
DA:54,2
DA:55,1
DA:56,0
DA:57,0
DA:58,0
DA:59,1
DA:60,0
DA:61,0
DA:62,0
DA:64,2
DA:66,4
DA:67,4
DA:68,3
DA:69,3
DA:70,3
DA:71,3
DA:72,3
DA:73,3
DA:74,3
DA:75,2
DA:76,2
DA:77,2
DA:78,2
DA:79,2
DA:80,2
DA:81,2
DA:82,2
DA:83,1
DA:84,1
DA:85,4
LF:71
LH:44
end_of_record
TN:
SF:/Users/liuhongbo/work/p2p-platform/p2p-cpp/src/nat/stun_client.cpp
FNL:0,0,11
FNA:0,1,__cxx_global_var_init
FNA:0,1,__cxx_global_var_init.1
FNA:0,1,__cxx_global_var_init.10
FNA:0,1,__cxx_global_var_init.11
FNA:0,1,__cxx_global_var_init.12
FNA:0,1,__cxx_global_var_init.14
FNA:0,1,__cxx_global_var_init.15
FNA:0,1,__cxx_global_var_init.2
FNA:0,1,__cxx_global_var_init.3
FNA:0,1,__cxx_global_var_init.4
FNA:0,1,__cxx_global_var_init.5
FNA:0,1,__cxx_global_var_init.6
FNA:0,1,__cxx_global_var_init.7
FNA:0,1,__cxx_global_var_init.8
FNA:0,1,__cxx_global_var_init.9
FNL:1,11,19
FNA:1,8,_ZN3p2p3nat10STUNClientC1ERN5boost4asio10io_contextERKNSt3__112basic_stringIcNS6_11char_traitsIcEENS6_9allocatorIcEEEEt
FNA:1,8,_ZN3p2p3nat10STUNClientC2ERN5boost4asio10io_contextERKNSt3__112basic_stringIcNS6_11char_traitsIcEENS6_9allocatorIcEEEEt
FNL:2,131,149
FNA:2,0,_ZN3p2p3nat10STUNClient12send_requestENSt3__18functionIFvNS2_8optionalINS2_12basic_stringIcNS2_11char_traitsIcEENS2_9allocatorIcEEEEEENS4_ItEEEEE
FNL:3,150,165
FNA:3,0,_ZZN3p2p3nat10STUNClient12send_requestENSt3__18functionIFvNS2_8optionalINS2_12basic_stringIcNS2_11char_traitsIcEENS2_9allocatorIcEEEEEENS4_ItEEEEEEN3$_0C1EOSF_
FNA:3,0,_ZZN3p2p3nat10STUNClient12send_requestENSt3__18functionIFvNS2_8optionalINS2_12basic_stringIcNS2_11char_traitsIcEENS2_9allocatorIcEEEEEENS4_ItEEEEEEN3$_0C2EOSF_
FNA:3,0,_ZZN3p2p3nat10STUNClient12send_requestENSt3__18functionIFvNS2_8optionalINS2_12basic_stringIcNS2_11char_traitsIcEENS2_9allocatorIcEEEEEENS4_ItEEEEEEN3$_0D1Ev
FNA:3,0,_ZZN3p2p3nat10STUNClient12send_requestENSt3__18functionIFvNS2_8optionalINS2_12basic_stringIcNS2_11char_traitsIcEENS2_9allocatorIcEEEEEENS4_ItEEEEEEN3$_0D2Ev
FNA:3,0,_ZZN3p2p3nat10STUNClient12send_requestENSt3__18functionIFvNS2_8optionalINS2_12basic_stringIcNS2_11char_traitsIcEENS2_9allocatorIcEEEEEENS4_ItEEEEEENK3$_0clERKN5boost6system10error_codeENSG_4asio2ip22basic_resolver_resultsINSM_3udpEEE
FNL:4,166,178
FNA:4,0,_ZZZN3p2p3nat10STUNClient12send_requestENSt3__18functionIFvNS2_8optionalINS2_12basic_stringIcNS2_11char_traitsIcEENS2_9allocatorIcEEEEEENS4_ItEEEEEENK3$_0clERKN5boost6system10error_codeENSG_4asio2ip22basic_resolver_resultsINSM_3udpEEEENKUlSK_mE_clESK_m
FNA:4,0,_ZZZN3p2p3nat10STUNClient12send_requestENSt3__18functionIFvNS2_8optionalINS2_12basic_stringIcNS2_11char_traitsIcEENS2_9allocatorIcEEEEEENS4_ItEEEEEENK3$_0clERKN5boost6system10error_codeENSG_4asio2ip22basic_resolver_resultsINSM_3udpEEEENUlSK_mE_C1EOSQ_
FNA:4,0,_ZZZN3p2p3nat10STUNClient12send_requestENSt3__18functionIFvNS2_8optionalINS2_12basic_stringIcNS2_11char_traitsIcEENS2_9allocatorIcEEEEEENS4_ItEEEEEENK3$_0clERKN5boost6system10error_codeENSG_4asio2ip22basic_resolver_resultsINSM_3udpEEEENUlSK_mE_C2EOSQ_
FNA:4,0,_ZZZN3p2p3nat10STUNClient12send_requestENSt3__18functionIFvNS2_8optionalINS2_12basic_stringIcNS2_11char_traitsIcEENS2_9allocatorIcEEEEEENS4_ItEEEEEENK3$_0clERKN5boost6system10error_codeENSG_4asio2ip22basic_resolver_resultsINSM_3udpEEEENUlSK_mE_D1Ev
FNA:4,0,_ZZZN3p2p3nat10STUNClient12send_requestENSt3__18functionIFvNS2_8optionalINS2_12basic_stringIcNS2_11char_traitsIcEENS2_9allocatorIcEEEEEENS4_ItEEEEEENK3$_0clERKN5boost6system10error_codeENSG_4asio2ip22basic_resolver_resultsINSM_3udpEEEENUlSK_mE_D2Ev
FNL:5,179,197
FNA:5,0,_ZZZZN3p2p3nat10STUNClient12send_requestENSt3__18functionIFvNS2_8optionalINS2_12basic_stringIcNS2_11char_traitsIcEENS2_9allocatorIcEEEEEENS4_ItEEEEEENK3$_0clERKN5boost6system10error_codeENSG_4asio2ip22basic_resolver_resultsINSM_3udpEEEENKUlSK_mE_clESK_mENKUlSK_mE_clESK_m
FNA:5,0,_ZZZZN3p2p3nat10STUNClient12send_requestENSt3__18functionIFvNS2_8optionalINS2_12basic_stringIcNS2_11char_traitsIcEENS2_9allocatorIcEEEEEENS4_ItEEEEEENK3$_0clERKN5boost6system10error_codeENSG_4asio2ip22basic_resolver_resultsINSM_3udpEEEENKUlSK_mE_clESK_mENUlSK_mE_C1EOSR_
FNA:5,0,_ZZZZN3p2p3nat10STUNClient12send_requestENSt3__18functionIFvNS2_8optionalINS2_12basic_stringIcNS2_11char_traitsIcEENS2_9allocatorIcEEEEEENS4_ItEEEEEENK3$_0clERKN5boost6system10error_codeENSG_4asio2ip22basic_resolver_resultsINSM_3udpEEEENKUlSK_mE_clESK_mENUlSK_mE_C2EOSR_
FNA:5,0,_ZZZZN3p2p3nat10STUNClient12send_requestENSt3__18functionIFvNS2_8optionalINS2_12basic_stringIcNS2_11char_traitsIcEENS2_9allocatorIcEEEEEENS4_ItEEEEEENK3$_0clERKN5boost6system10error_codeENSG_4asio2ip22basic_resolver_resultsINSM_3udpEEEENKUlSK_mE_clESK_mENUlSK_mE_D1Ev
FNA:5,0,_ZZZZN3p2p3nat10STUNClient12send_requestENSt3__18functionIFvNS2_8optionalINS2_12basic_stringIcNS2_11char_traitsIcEENS2_9allocatorIcEEEEEENS4_ItEEEEEENK3$_0clERKN5boost6system10error_codeENSG_4asio2ip22basic_resolver_resultsINSM_3udpEEEENKUlSK_mE_clESK_mENUlSK_mE_D2Ev
FNL:6,199,205
FNA:6,0,_ZN3p2p3nat15detect_nat_typeERN5boost4asio10io_contextERKNSt3__112basic_stringIcNS5_11char_traitsIcEENS5_9allocatorIcEEEEtNS5_8functionIFvRKNS0_18NATDetectionResultEEEE
FNL:7,207,228
FNA:7,0,_ZZN3p2p3nat15detect_nat_typeERN5boost4asio10io_contextERKNSt3__112basic_stringIcNS5_11char_traitsIcEENS5_9allocatorIcEEEEtNS5_8functionIFvRKNS0_18NATDetectionResultEEEEEN3$_0C1EOSK_
FNA:7,0,_ZZN3p2p3nat15detect_nat_typeERN5boost4asio10io_contextERKNSt3__112basic_stringIcNS5_11char_traitsIcEENS5_9allocatorIcEEEEtNS5_8functionIFvRKNS0_18NATDetectionResultEEEEEN3$_0C1ERKSK_
FNA:7,0,_ZZN3p2p3nat15detect_nat_typeERN5boost4asio10io_contextERKNSt3__112basic_stringIcNS5_11char_traitsIcEENS5_9allocatorIcEEEEtNS5_8functionIFvRKNS0_18NATDetectionResultEEEEEN3$_0C2EOSK_
FNA:7,0,_ZZN3p2p3nat15detect_nat_typeERN5boost4asio10io_contextERKNSt3__112basic_stringIcNS5_11char_traitsIcEENS5_9allocatorIcEEEEtNS5_8functionIFvRKNS0_18NATDetectionResultEEEEEN3$_0C2ERKSK_
FNA:7,0,_ZZN3p2p3nat15detect_nat_typeERN5boost4asio10io_contextERKNSt3__112basic_stringIcNS5_11char_traitsIcEENS5_9allocatorIcEEEEtNS5_8functionIFvRKNS0_18NATDetectionResultEEEEEN3$_0D1Ev
FNA:7,0,_ZZN3p2p3nat15detect_nat_typeERN5boost4asio10io_contextERKNSt3__112basic_stringIcNS5_11char_traitsIcEENS5_9allocatorIcEEEEtNS5_8functionIFvRKNS0_18NATDetectionResultEEEEEN3$_0D2Ev
FNA:7,0,_ZZN3p2p3nat15detect_nat_typeERN5boost4asio10io_contextERKNSt3__112basic_stringIcNS5_11char_traitsIcEENS5_9allocatorIcEEEEtNS5_8functionIFvRKNS0_18NATDetectionResultEEEEENK3$_0clENS5_8optionalISB_EENSL_ItEE
FNL:8,21,52
FNA:8,3,_ZN3p2p3nat10STUNClient17pack_stun_requestEv
FNL:9,230,234
FNA:9,6,_ZN3p2p3nat18is_nat_p2p_capableENS0_7NATTypeE
FNL:10,55,129
FNA:10,6,_ZN3p2p3nat10STUNClient20unpack_stun_responseERKNSt3__16vectorIhNS2_9allocatorIhEEEE
FNF:11
FNH:5
DA:11,16
DA:14,8
DA:15,8
DA:16,8
DA:17,8
DA:18,8
DA:19,16
DA:21,3
DA:22,3
DA:23,3
DA:26,3
DA:29,3
DA:30,3
DA:31,3
DA:32,3
DA:33,39
DA:34,36
DA:38,3
DA:39,3
DA:42,3
DA:43,3
DA:46,3
DA:49,3
DA:51,3
DA:52,3
DA:55,6
DA:56,6
DA:57,1
DA:61,5
DA:62,5
DA:63,1
DA:67,4
DA:70,4
DA:71,4
DA:72,4
DA:73,4
DA:74,4
DA:76,4
DA:77,1
DA:81,3
DA:82,2
DA:83,2
DA:85,2
DA:86,2
DA:89,6
DA:90,4
DA:91,4
DA:92,2
DA:93,2
DA:98,2
DA:99,2
DA:101,2
DA:103,0
DA:105,1
DA:106,1
DA:107,1
DA:108,1
DA:109,3
DA:110,2
DA:111,2
DA:112,1
DA:116,1
DA:117,1
DA:119,1
DA:121,0
DA:124,0
DA:125,0
DA:128,1
DA:129,6
DA:131,0
DA:135,0
DA:138,0
DA:139,0
DA:140,0
DA:141,0
DA:143,0
DA:146,0
DA:147,0
DA:148,0
DA:149,0
DA:150,0
DA:154,0
DA:155,0
DA:156,0
DA:159,0
DA:160,0
DA:163,0
DA:164,0
DA:165,0
DA:166,0
DA:167,0
DA:168,0
DA:169,0
DA:173,0
DA:174,0
DA:176,0
DA:177,0
DA:178,0
DA:179,0
DA:183,0
DA:184,0
DA:185,0
DA:188,0
DA:189,0
DA:190,0
DA:191,0
DA:193,0
DA:195,0
DA:197,0
DA:199,0
DA:205,0
DA:207,0
DA:211,0
DA:213,0
DA:214,0
DA:215,0
DA:216,0
DA:219,0
DA:220,0
DA:224,0
DA:226,0
DA:227,0
DA:228,0
DA:230,6
DA:231,11
DA:232,5
DA:233,4
DA:234,3
LF:128
LH:70
end_of_record
TN:
SF:/Users/liuhongbo/work/p2p-platform/p2p-cpp/src/protocol/message.cpp
FNL:0,102,153
FNA:0,20,_ZN3p2p8protocol7Message6decodeERKNSt3__16vectorIhNS2_9allocatorIhEEEE
FNL:1,15,18
FNA:1,39,_ZN3p2p8protocol12_GLOBAL__N_120current_timestamp_msEv
FNL:2,156,164
FNA:2,5,_ZN3p2p8protocol16HandshakeMessageC1ERKNSt3__112basic_stringIcNS2_11char_traitsIcEENS2_9allocatorIcEEEESA_b
FNA:2,5,_ZN3p2p8protocol16HandshakeMessageC2ERKNSt3__112basic_stringIcNS2_11char_traitsIcEENS2_9allocatorIcEEEESA_b
FNL:3,166,169
FNA:3,2,_ZN3p2p8protocol16HandshakeMessage18set_public_addressERKNSt3__112basic_stringIcNS2_11char_traitsIcEENS2_9allocatorIcEEEEt
FNL:4,171,174
FNA:4,1,_ZN3p2p8protocol16HandshakeMessage17set_local_addressERKNSt3__112basic_stringIcNS2_11char_traitsIcEENS2_9allocatorIcEEEEt
FNL:5,176,178
FNA:5,2,_ZN3p2p8protocol16HandshakeMessage12set_nat_typeERKNSt3__112basic_stringIcNS2_11char_traitsIcEENS2_9allocatorIcEEEE
FNL:6,180,188
FNA:6,5,_ZN3p2p8protocol16HandshakeMessage14add_capabilityERKNSt3__112basic_stringIcNS2_11char_traitsIcEENS2_9allocatorIcEEEE
FNL:7,190,197
FNA:7,0,_ZNK3p2p8protocol16HandshakeMessage14public_addressEv
FNL:8,199,206
FNA:8,0,_ZNK3p2p8protocol16HandshakeMessage13local_addressEv
FNL:9,208,214
FNA:9,0,_ZNK3p2p8protocol16HandshakeMessage8nat_typeEv
FNL:10,216,229
FNA:10,0,_ZNK3p2p8protocol16HandshakeMessage12capabilitiesEv
FNL:11,22,31
FNA:11,27,_ZN3p2p8protocol7MessageC1ENS0_11MessageTypeERKNSt3__112basic_stringIcNS3_11char_traitsIcEENS3_9allocatorIcEEEESB_
FNA:11,39,_ZN3p2p8protocol7MessageC2ENS0_11MessageTypeERKNSt3__112basic_stringIcNS3_11char_traitsIcEENS3_9allocatorIcEEEESB_
FNL:12,232,240
FNA:12,5,_ZN3p2p8protocol18ChannelDataMessageC1ERKNSt3__112basic_stringIcNS2_11char_traitsIcEENS2_9allocatorIcEEEESA_iRKNS2_6vectorIhNS6_IhEEEE
FNA:12,5,_ZN3p2p8protocol18ChannelDataMessageC2ERKNSt3__112basic_stringIcNS2_11char_traitsIcEENS2_9allocatorIcEEEESA_iRKNS2_6vectorIhNS6_IhEEEE
FNL:13,243,247
FNA:13,0,_ZN3p2p8protocol16KeepaliveMessageC1ERKNSt3__112basic_stringIcNS2_11char_traitsIcEENS2_9allocatorIcEEEESA_
FNA:13,0,_ZN3p2p8protocol16KeepaliveMessageC2ERKNSt3__112basic_stringIcNS2_11char_traitsIcEENS2_9allocatorIcEEEESA_
FNL:14,250,258
FNA:14,2,_ZN3p2p8protocol17DisconnectMessageC1ERKNSt3__112basic_stringIcNS2_11char_traitsIcEENS2_9allocatorIcEEEESA_SA_
FNA:14,2,_ZN3p2p8protocol17DisconnectMessageC2ERKNSt3__112basic_stringIcNS2_11char_traitsIcEENS2_9allocatorIcEEEESA_SA_
FNL:15,33,49
FNA:15,39,_ZN3p2p8protocol7Message19generate_message_idEv
FNL:16,51,100
FNA:16,19,_ZNK3p2p8protocol7Message6encodeEv
FNF:17
FNH:12
DA:15,39
DA:16,39
DA:17,39
DA:18,39
DA:22,105
DA:25,39
DA:26,39
DA:27,39
DA:28,39
DA:29,39
DA:30,66
DA:31,66
DA:33,39
DA:34,39
DA:35,39
DA:36,39
DA:38,39
DA:39,39
DA:41,1287
DA:42,1248
DA:43,1248
DA:44,156
DA:45,156
DA:46,1248
DA:48,39
DA:49,6513
DA:51,19
DA:53,19
DA:54,19
DA:55,19
DA:56,19
DA:57,19
DA:58,19
DA:60,19
DA:61,6
DA:62,6
DA:63,13
DA:66,19
DA:67,7
DA:68,7
DA:71,19
DA:72,19
DA:75,19
DA:76,19
DA:78,19
DA:79,19
DA:82,19
DA:83,19
DA:84,19
DA:85,19
DA:88,19
DA:89,19
DA:90,19
DA:91,19
DA:94,19
DA:97,19
DA:99,19
DA:100,19
DA:102,20
DA:103,20
DA:104,1
DA:108,57
DA:109,38
DA:110,38
DA:111,19
DA:113,57
DA:114,38
DA:115,38
DA:116,19
DA:118,19
DA:119,1
DA:124,18
DA:125,18
DA:127,17
DA:128,17
DA:129,17
DA:131,17
DA:133,17
DA:134,17
DA:136,17
DA:137,6
DA:138,6
DA:140,17
DA:141,7
DA:142,7
DA:145,17
DA:146,4
DA:147,4
DA:149,17
DA:150,18
DA:151,1
DA:152,1
DA:153,21
DA:156,10
DA:159,10
DA:160,5
DA:161,5
DA:162,10
DA:163,5
DA:164,10
DA:166,2
DA:167,2
DA:168,2
DA:169,2
DA:171,1
DA:172,1
DA:173,1
DA:174,1
DA:176,2
DA:177,2
DA:178,2
DA:180,5
DA:182,5
DA:183,5
DA:184,3
DA:185,3
DA:186,2
DA:188,5
DA:190,0
DA:191,0
DA:192,0
DA:193,0
DA:194,0
DA:196,0
DA:197,0
DA:199,0
DA:200,0
DA:201,0
DA:202,0
DA:203,0
DA:205,0
DA:206,0
DA:208,0
DA:209,0
DA:210,0
DA:211,0
DA:213,0
DA:214,0
DA:216,0
DA:217,0
DA:218,0
DA:219,0
DA:222,0
DA:223,0
DA:224,0
DA:225,0
DA:226,0
DA:228,0
DA:229,0
DA:232,10
DA:236,5
DA:237,10
DA:238,5
DA:239,5
DA:240,10
DA:243,0
DA:245,0
DA:246,0
DA:247,0
DA:250,4
DA:253,2
DA:254,4
DA:255,2
DA:256,1
DA:257,1
DA:258,4
LF:166
LH:131
end_of_record
TN:
SF:/Users/liuhongbo/work/p2p-platform/p2p-cpp/src/protocol/stun.cpp
FNL:0,115,166
FNA:0,15,_ZN3p2p8protocol25create_xor_mapped_addressERKNSt3__112basic_stringIcNS1_11char_traitsIcEENS1_9allocatorIcEEEEtRKNS1_5arrayIhLm12EEE
FNL:1,169,223
FNA:1,4,_ZN3p2p8protocol24parse_xor_mapped_addressERKNSt3__16vectorIhNS1_9allocatorIhEEEERKNS1_5arrayIhLm12EEE
FNL:2,226,254
FNA:2,3,_ZN3p2p8protocol21create_error_responseERKNSt3__15arrayIhLm12EEENS0_13StunErrorCodeERKNS1_12basic_stringIcNS1_11char_traitsIcEENS1_9allocatorIcEEEE
FNL:3,63,112
FNA:3,33,_ZN3p2p8protocol11StunMessage5parseEPKhm
FNL:4,9,60
FNA:4,32,_ZNK3p2p8protocol11StunMessage9serializeEv
FNF:5
FNH:5
DA:9,32
DA:10,32
DA:13,32
DA:14,50
DA:16,18
DA:17,36
DA:19,18
DA:22,18
DA:23,36
DA:25,18
DA:28,18
DA:31,18
DA:32,18
DA:36,32
DA:37,64
DA:39,32
DA:42,32
DA:43,64
DA:45,32
DA:48,32
DA:49,64
DA:51,32
DA:54,32
DA:57,32
DA:59,32
DA:60,32
DA:63,33
DA:64,33
DA:65,2
DA:69,31
DA:70,31
DA:71,31
DA:73,31
DA:74,0
DA:79,31
DA:82,31
DA:85,31
DA:86,31
DA:88,48
DA:89,17
DA:90,17
DA:91,17
DA:94,17
DA:96,17
DA:97,0
DA:101,17
DA:102,17
DA:103,17
DA:104,17
DA:107,17
DA:108,17
DA:109,17
DA:111,31
DA:112,33
DA:115,15
DA:120,15
DA:123,15
DA:124,15
DA:127,15
DA:130,15
DA:133,15
DA:134,15
DA:135,30
DA:137,15
DA:140,15
DA:141,15
DA:143,15
DA:146,13
DA:147,13
DA:150,65
DA:151,52
DA:152,52
DA:153,13
DA:156,2
DA:159,34
DA:160,32
DA:161,32
DA:162,32
DA:165,15
DA:166,15
DA:169,4
DA:173,4
DA:174,0
DA:177,4
DA:180,4
DA:181,4
DA:184,4
DA:185,4
DA:187,4
DA:188,2
DA:189,0
DA:194,10
DA:195,8
DA:196,8
DA:200,2
DA:202,2
DA:203,2
DA:204,2
DA:205,0
DA:210,34
DA:211,32
DA:212,32
DA:213,32
DA:217,2
DA:219,2
DA:222,0
DA:223,4
DA:226,3
DA:231,3
DA:235,3
DA:236,3
DA:237,3
DA:239,3
DA:240,3
DA:241,3
DA:242,3
DA:243,3
DA:246,3
DA:248,3
DA:250,3
DA:253,3
DA:254,3
LF:122
LH:116
end_of_record
TN:
SF:/Users/liuhongbo/work/p2p-platform/p2p-cpp/src/servers/did/did_auth.cpp
FNL:0,10,12
FNA:0,9,_ZN3p2p3did7DIDAuth13GenerateTokenERKNSt3__112basic_stringIcNS2_11char_traitsIcEENS2_9allocatorIcEEEE
FNL:1,15,17
FNA:1,4,_ZN3p2p3did7DIDAuth13ValidateTokenERKNSt3__112basic_stringIcNS2_11char_traitsIcEENS2_9allocatorIcEEEE
FNL:2,20,22
FNA:2,3,_ZN3p2p3did7DIDAuth10ExtractDIDERKNSt3__112basic_stringIcNS2_11char_traitsIcEENS2_9allocatorIcEEEE
FNL:3,6,8
FNA:3,11,_ZN3p2p3did7DIDAuthC1ERKNSt3__112basic_stringIcNS2_11char_traitsIcEENS2_9allocatorIcEEEE
FNA:3,11,_ZN3p2p3did7DIDAuthC2ERKNSt3__112basic_stringIcNS2_11char_traitsIcEENS2_9allocatorIcEEEE
FNF:4
FNH:4
DA:6,22
DA:7,22
DA:8,22
DA:10,9
DA:12,9
DA:15,4
DA:17,4
DA:20,3
DA:22,3
LF:9
LH:9
end_of_record
TN:
SF:/Users/liuhongbo/work/p2p-platform/p2p-cpp/src/servers/did/did_crypto.cpp
FNL:0,13,15
FNA:0,5,_ZN3p2p3did9DIDCrypto4SignERKNSt3__112basic_stringIcNS2_11char_traitsIcEENS2_9allocatorIcEEEESA_
FNL:1,18,20
FNA:1,3,_ZN3p2p3did9DIDCrypto6VerifyERKNSt3__112basic_stringIcNS2_11char_traitsIcEENS2_9allocatorIcEEEESA_SA_
FNL:2,23,25
FNA:2,7,_ZN3p2p3did9DIDCrypto4HashERKNSt3__112basic_stringIcNS2_11char_traitsIcEENS2_9allocatorIcEEEE
FNL:3,8,10
FNA:3,3,_ZN3p2p3did9DIDCrypto15GenerateKeyPairEv
FNF:4
FNH:4
DA:8,3
DA:10,3
DA:13,5
DA:15,5
DA:18,3
DA:20,3
DA:23,7
DA:25,7
LF:8
LH:8
end_of_record
TN:
SF:/Users/liuhongbo/work/p2p-platform/p2p-cpp/src/servers/did/did_handler.cpp
FNL:0,7,9
FNA:0,0,_ZN3p2p3did16HandleDIDRequestEv
FNF:1
FNH:0
DA:7,0
DA:9,0
LF:2
LH:0
end_of_record
TN:
SF:/Users/liuhongbo/work/p2p-platform/p2p-cpp/src/servers/did/did_server.cpp
FNL:0,0,7
FNA:0,1,__cxx_global_var_init
FNA:0,1,__cxx_global_var_init.1
FNA:0,1,__cxx_global_var_init.10
FNA:0,1,__cxx_global_var_init.11
FNA:0,1,__cxx_global_var_init.12
FNA:0,1,__cxx_global_var_init.13
FNA:0,1,__cxx_global_var_init.2
FNA:0,1,__cxx_global_var_init.3
FNA:0,1,__cxx_global_var_init.5
FNA:0,1,__cxx_global_var_init.6
FNA:0,1,__cxx_global_var_init.7
FNA:0,1,__cxx_global_var_init.8
FNA:0,1,__cxx_global_var_init.9
FNL:1,11,13
FNA:1,1,_ZN3p2p3did9DIDServerD1Ev
FNA:1,1,_ZN3p2p3did9DIDServerD2Ev
FNL:2,15,19
FNA:2,0,_ZN3p2p3did9DIDServer3RunEv
FNL:3,21,26
FNA:3,1,_ZN3p2p3did9DIDServer4StopEv
FNL:4,7,9
FNA:4,1,_ZN3p2p3did9DIDServerC1ERKNS0_15DIDServerConfigE
FNA:4,1,_ZN3p2p3did9DIDServerC2ERKNS0_15DIDServerConfigE
FNF:5
FNH:4
DA:7,3
DA:8,2
DA:9,2
DA:11,2
DA:12,1
DA:13,2
DA:15,0
DA:16,0
DA:17,0
DA:18,0
DA:19,0
DA:21,1
DA:22,1
DA:23,0
DA:24,0
DA:25,0
DA:26,1
LF:17
LH:9
end_of_record
TN:
SF:/Users/liuhongbo/work/p2p-platform/p2p-cpp/src/servers/did/did_storage.cpp
FNL:0,10,12
FNA:0,15,_ZN3p2p3did10DIDStorage5StoreERKNSt3__112basic_stringIcNS2_11char_traitsIcEENS2_9allocatorIcEEEESA_
FNL:1,15,17
FNA:1,7,_ZN3p2p3did10DIDStorage8RetrieveERKNSt3__112basic_stringIcNS2_11char_traitsIcEENS2_9allocatorIcEEEE
FNL:2,20,22
FNA:2,4,_ZN3p2p3did10DIDStorage6DeleteERKNSt3__112basic_stringIcNS2_11char_traitsIcEENS2_9allocatorIcEEEE
FNL:3,6,8
FNA:3,13,_ZN3p2p3did10DIDStorageC1ERKNSt3__112basic_stringIcNS2_11char_traitsIcEENS2_9allocatorIcEEEEt
FNA:3,13,_ZN3p2p3did10DIDStorageC2ERKNSt3__112basic_stringIcNS2_11char_traitsIcEENS2_9allocatorIcEEEEt
FNF:4
FNH:4
DA:6,26
DA:7,26
DA:8,26
DA:10,15
DA:12,15
DA:15,7
DA:17,7
DA:20,4
DA:22,4
LF:9
LH:9
end_of_record
TN:
SF:/Users/liuhongbo/work/p2p-platform/p2p-cpp/src/servers/relay/allocation_manager.cpp
FNL:0,104,114
FNA:0,34,_ZN3p2p5relay17AllocationManager20GenerateAllocationIdEv
FNL:1,116,158
FNA:1,37,_ZN3p2p5relay17AllocationManager16CreateAllocationERKNS0_7AddressERKNSt3__112basic_stringIcNS5_11char_traitsIcEENS5_9allocatorIcEEEENS0_17TransportProtocolEj
FNL:2,160,166
FNA:2,5,_ZN3p2p5relay17AllocationManager13GetAllocationERKNSt3__112basic_stringIcNS2_11char_traitsIcEENS2_9allocatorIcEEEE
FNL:3,168,177
FNA:3,3,_ZN3p2p5relay17AllocationManager21GetAllocationByClientERKNS0_7AddressE
FNL:4,179,188
FNA:4,1,_ZN3p2p5relay17AllocationManager20GetAllocationByRelayERKNS0_7AddressE
FNL:5,18,31
FNA:5,34,_ZN3p2p5relay14TurnAllocationC1ENSt3__112basic_stringIcNS2_11char_traitsIcEENS2_9allocatorIcEEEENS0_7AddressES9_jNS0_17TransportProtocolE
FNA:5,34,_ZN3p2p5relay14TurnAllocationC2ENSt3__112basic_stringIcNS2_11char_traitsIcEENS2_9allocatorIcEEEENS0_7AddressES9_jNS0_17TransportProtocolE
FNL:6,190,202
FNA:6,2,_ZN3p2p5relay17AllocationManager17RefreshAllocationERKNSt3__112basic_stringIcNS2_11char_traitsIcEENS2_9allocatorIcEEEEj
FNL:7,204,223
FNA:7,2,_ZN3p2p5relay17AllocationManager16DeleteAllocationERKNSt3__112basic_stringIcNS2_11char_traitsIcEENS2_9allocatorIcEEEE
FNL:8,225,242
FNA:8,1,_ZN3p2p5relay17AllocationManager14CleanupExpiredEv
FNL:9,244,249
FNA:9,0,_ZN3p2p5relay17AllocationManager11CleanupLoopEv
FNL:10,251,273
FNA:10,2,_ZNK3p2p5relay17AllocationManager8GetStatsEv
FNL:11,33,36
FNA:11,8,_ZNK3p2p5relay14TurnAllocation9IsExpiredEv
FNL:12,39,43
FNA:12,2,_ZNK3p2p5relay14TurnAllocation16GetRemainingTimeEv
FNL:13,46,50
FNA:13,2,_ZN3p2p5relay14TurnAllocation7RefreshEj
FNL:14,52,56
FNA:14,2,_ZN3p2p5relay14TurnAllocation13AddPermissionERKNS0_7AddressE
FNL:15,58,61
FNA:15,2,_ZNK3p2p5relay14TurnAllocation13HasPermissionERKNS0_7AddressE
FNL:16,63,66
FNA:16,0,_ZN3p2p5relay14TurnAllocation16RemovePermissionERKNS0_7AddressE
FNL:17,68,70
FNA:17,2,_ZN3p2p5relay14TurnAllocation10RecordSentEm
FNL:18,72,74
FNA:18,2,_ZN3p2p5relay14TurnAllocation14RecordReceivedEm
FNL:19,78,86
FNA:19,20,_ZN3p2p5relay17AllocationManagerC1Ettjm
FNA:19,20,_ZN3p2p5relay17AllocationManagerC2Ettjm
FNL:20,88,90
FNA:20,20,_ZN3p2p5relay17AllocationManagerD1Ev
FNA:20,20,_ZN3p2p5relay17AllocationManagerD2Ev
FNL:21,92,95
FNA:21,0,_ZN3p2p5relay17AllocationManager5StartEv
FNL:22,97,102
FNA:22,32,_ZN3p2p5relay17AllocationManager4StopEv
FNF:23
FNH:20
DA:18,102
DA:24,34
DA:25,34
DA:26,34
DA:27,34
DA:28,34
DA:29,34
DA:30,68
DA:31,34
DA:33,8
DA:34,8
DA:35,8
DA:36,8
DA:39,2
DA:40,2
DA:41,2
DA:42,2
DA:43,2
DA:46,2
DA:47,2
DA:48,2
DA:49,2
DA:50,2
DA:52,2
DA:53,2
DA:54,2
DA:55,2
DA:56,2
DA:58,2
DA:59,2
DA:60,2
DA:61,2
DA:63,0
DA:64,0
DA:65,0
DA:66,0
DA:68,2
DA:69,2
DA:70,2
DA:72,2
DA:73,2
DA:74,2
DA:78,60
DA:83,20
DA:84,20
DA:85,40
DA:86,20
DA:88,40
DA:89,20
DA:90,40
DA:92,0
DA:93,0
DA:94,0
DA:95,0
DA:97,32
DA:98,32
DA:99,32
DA:100,0
DA:101,0
DA:102,32
DA:104,34
DA:105,34
DA:106,34
DA:107,34
DA:109,34
DA:110,34
DA:111,34
DA:112,34
DA:113,34
DA:114,34
DA:116,37
DA:122,37
DA:125,37
DA:126,2
DA:130,35
DA:131,1
DA:135,34
DA:136,34
DA:137,0
DA:141,34
DA:142,34
DA:143,34
DA:145,68
DA:147,34
DA:153,34
DA:154,34
DA:155,34
DA:157,34
DA:158,37
DA:160,5
DA:163,5
DA:164,5
DA:165,5
DA:166,5
DA:168,3
DA:171,3
DA:172,3
DA:173,3
DA:174,2
DA:176,1
DA:177,3
DA:179,1
DA:182,1
DA:183,1
DA:184,1
DA:185,1
DA:187,0
DA:188,1
DA:190,2
DA:194,2
DA:195,2
DA:196,0
DA:199,2
DA:200,2
DA:201,2
DA:202,2
DA:204,2
DA:205,2
DA:207,2
DA:208,2
DA:209,0
DA:212,2
DA:215,2
DA:218,2
DA:219,2
DA:220,2
DA:222,2
DA:223,2
DA:225,1
DA:226,1
DA:229,1
DA:230,3
DA:231,2
DA:232,0
DA:233,0
DA:235,1
DA:237,1
DA:238,0
DA:241,1
DA:242,1
DA:244,0
DA:245,0
DA:246,0
DA:247,0
DA:249,0
DA:251,2
DA:252,2
DA:255,2
DA:256,2
DA:257,2
DA:258,2
DA:260,2
DA:261,2
DA:262,2
DA:264,10
DA:265,4
DA:266,4
DA:267,4
DA:268,4
DA:269,4
DA:273,2
LF:161
LH:139
end_of_record
TN:
SF:/Users/liuhongbo/work/p2p-platform/p2p-cpp/src/servers/relay/bandwidth_limiter.cpp
FNL:0,106,115
FNA:0,1,_ZN3p2p5relay16BandwidthLimiter8SetLimitERKNSt3__112basic_stringIcNS2_11char_traitsIcEENS2_9allocatorIcEEEERKNS0_14BandwidthLimitE
FNL:1,117,121
FNA:1,1,_ZN3p2p5relay16BandwidthLimiter16RemoveAllocationERKNSt3__112basic_stringIcNS2_11char_traitsIcEENS2_9allocatorIcEEEE
FNL:2,123,127
FNA:2,1,_ZNK3p2p5relay16BandwidthLimiter8GetStatsERKNSt3__112basic_stringIcNS2_11char_traitsIcEENS2_9allocatorIcEEEE
FNL:3,129,134
FNA:3,3,_ZNK3p2p5relay16BandwidthLimiter14GetGlobalStatsEv
FNL:4,13,18
FNA:4,37,_ZN3p2p5relay11TokenBucketC1Eyy
FNA:4,37,_ZN3p2p5relay11TokenBucketC2Eyy
FNL:5,139,141
FNA:5,5,_ZN3p2p5relay17ThroughputMonitorC1Ej
FNA:5,5,_ZN3p2p5relay17ThroughputMonitorC2Ej
FNL:6,143,147
FNA:6,13,_ZN3p2p5relay17ThroughputMonitor10RecordReadEm
FNL:7,149,153
FNA:7,3,_ZN3p2p5relay17ThroughputMonitor11RecordWriteEm
FNL:8,155,165
FNA:8,16,_ZN3p2p5relay17ThroughputMonitor17CleanupOldSamplesEv
FNL:9,167,180
FNA:9,4,_ZNK3p2p5relay17ThroughputMonitor11GetReadRateEv
FNL:10,182,195
FNA:10,3,_ZNK3p2p5relay17ThroughputMonitor12GetWriteRateEv
FNL:11,197,203
FNA:11,1,_ZNK3p2p5relay17ThroughputMonitor8GetStatsEv
FNL:12,20,30
FNA:12,109,_ZN3p2p5relay11TokenBucket6RefillEv
FNL:13,32,43
FNA:13,109,_ZN3p2p5relay11TokenBucket7ConsumeEy
FNL:14,45,48
FNA:14,7,_ZNK3p2p5relay11TokenBucket18GetAvailableTokensEv
FNL:15,52,56
FNA:15,9,_ZN3p2p5relay16BandwidthLimiterC1ERKNS0_14BandwidthLimitE
FNA:15,9,_ZN3p2p5relay16BandwidthLimiterC2ERKNS0_14BandwidthLimitE
FNL:16,58,80
FNA:16,49,_ZN3p2p5relay16BandwidthLimiter12ThrottleReadERKNSt3__112basic_stringIcNS2_11char_traitsIcEENS2_9allocatorIcEEEEm
FNL:17,82,104
FNA:17,3,_ZN3p2p5relay16BandwidthLimiter13ThrottleWriteERKNSt3__112basic_stringIcNS2_11char_traitsIcEENS2_9allocatorIcEEEEm
FNF:18
FNH:18
DA:13,111
DA:14,37
DA:15,37
DA:16,37
DA:17,74
DA:18,74
DA:20,109
DA:21,109
DA:22,109
DA:24,109
DA:25,109
DA:26,102
DA:27,102
DA:29,109
DA:30,109
DA:32,109
DA:33,109
DA:35,109
DA:37,109
DA:38,108
DA:39,108
DA:42,1
DA:43,109
DA:45,7
DA:46,7
DA:47,7
DA:48,7
DA:52,27
DA:53,9
DA:54,9
DA:55,18
DA:56,18
DA:58,49
DA:60,49
DA:61,0
DA:64,49
DA:67,49
DA:68,49
DA:69,11
DA:70,11
DA:71,11
DA:72,11
DA:74,49
DA:75,49
DA:76,49
DA:79,0
DA:80,49
DA:82,3
DA:84,3
DA:85,0
DA:88,3
DA:91,3
DA:92,3
DA:93,2
DA:94,2
DA:95,2
DA:96,2
DA:98,3
DA:99,3
DA:100,3
DA:103,0
DA:104,3
DA:106,1
DA:110,1
DA:112,1
DA:113,1
DA:114,1
DA:115,1
DA:117,1
DA:118,1
DA:119,1
DA:120,1
DA:121,1
DA:123,1
DA:124,1
DA:125,1
DA:126,1
DA:127,1
DA:129,3
DA:131,3
DA:132,3
DA:133,3
DA:134,3
DA:139,15
DA:140,10
DA:141,10
DA:143,13
DA:144,13
DA:145,13
DA:146,13
DA:147,13
DA:149,3
DA:150,3
DA:151,3
DA:152,3
DA:153,3
DA:155,16
DA:156,16
DA:158,16
DA:159,0
DA:162,16
DA:163,0
DA:165,16
DA:167,4
DA:168,4
DA:170,4
DA:171,1
DA:174,3
DA:175,16
DA:176,13
DA:179,3
DA:180,4
DA:182,3
DA:183,3
DA:185,3
DA:186,1
DA:189,2
DA:190,5
DA:191,3
DA:194,2
DA:195,3
DA:197,1
DA:199,1
DA:200,1
DA:201,1
DA:202,1
DA:203,1
LF:127
LH:121
end_of_record
TN:
SF:/Users/liuhongbo/work/p2p-platform/p2p-cpp/src/servers/relay/port_pool.cpp
FNL:0,13,31
FNA:0,24,_ZN3p2p5relay8PortPoolC1Ett
FNA:0,24,_ZN3p2p5relay8PortPoolC2Ett
FNL:1,33,60
FNA:1,44,_ZN3p2p5relay8PortPool7AcquireEv
FNL:2,62,76
FNA:2,3,_ZN3p2p5relay8PortPool7ReleaseEt
FNL:3,78,81
FNA:3,4,_ZNK3p2p5relay8PortPool14AvailableCountEv
FNL:4,83,87
FNA:4,2,_ZNK3p2p5relay8PortPool15UsagePercentageEv
FNF:5
FNH:5
DA:13,72
DA:14,24
DA:15,24
DA:16,24
DA:17,48
DA:19,24
DA:20,0
DA:23,24
DA:24,0
DA:28,888
DA:29,864
DA:30,864
DA:31,48
DA:33,44
DA:34,44
DA:37,44
DA:38,44
DA:39,0
DA:43,44
DA:44,44
DA:47,44
DA:48,627
DA:49,627
DA:50,598
DA:51,44
DA:52,44
DA:54,554
DA:55,554
DA:56,583
DA:59,0
DA:60,44
DA:62,3
DA:63,3
DA:64,0
DA:67,3
DA:69,3
DA:70,3
DA:71,3
DA:72,3
DA:75,0
DA:76,3
DA:78,4
DA:79,4
DA:80,4
DA:81,4
DA:83,2
DA:84,2
DA:85,2
DA:86,2
DA:87,2
LF:50
LH:44
end_of_record
TN:
SF:/Users/liuhongbo/work/p2p-platform/p2p-cpp/src/servers/relay/turn_message.cpp
FNL:0,112,119
FNA:0,4,_ZNK3p2p5relay11StunMessage12GetAttributeENS0_13AttributeTypeE
FNL:1,121,123
FNA:1,3,_ZN3p2p5relay11StunMessage12AddAttributeENS0_13AttributeTypeENSt3__16vectorIhNS3_9allocatorIhEEEE
FNL:2,125,153
FNA:2,0,_ZN3p2p5relay20CreateXorAddressAttrERKNS0_7AddressERKNSt3__15arrayIhLm12EEE
FNL:3,13,67
FNA:3,9,_ZN3p2p5relay11StunMessage5ParseEPKhm
FNL:4,155,178
FNA:4,0,_ZN3p2p5relay19ParseXorAddressAttrERKNSt3__16vectorIhNS1_9allocatorIhEEEERKNS1_5arrayIhLm12EEE
FNL:5,180,184
FNA:5,2,_ZN3p2p5relay18CreateLifetimeAttrEj
FNL:6,187,194
FNA:6,1,_ZN3p2p5relay17ParseLifetimeAttrERKNSt3__16vectorIhNS1_9allocatorIhEEEE
FNL:7,196,211
FNA:7,1,_ZN3p2p5relay19CreateErrorCodeAttrENS0_9ErrorCodeERKNSt3__112basic_stringIcNS2_11char_traitsIcEENS2_9allocatorIcEEEE
FNL:8,213,226
FNA:8,0,_ZN3p2p5relay19CreateErrorResponseERKNSt3__15arrayIhLm12EEENS0_9ErrorCodeERKNS1_12basic_stringIcNS1_11char_traitsIcEENS1_9allocatorIcEEEE
FNL:9,69,110
FNA:9,1,_ZNK3p2p5relay11StunMessage9SerializeEv
FNF:10
FNH:7
DA:13,9
DA:14,9
DA:15,1
DA:18,8
DA:22,8
DA:23,8
DA:26,8
DA:27,8
DA:30,8
DA:31,8
DA:33,8
DA:34,1
DA:37,7
DA:40,7
DA:41,7
DA:43,7
DA:45,0
DA:46,0
DA:47,0
DA:48,0
DA:50,0
DA:53,0
DA:55,0
DA:56,0
DA:59,0
DA:60,0
DA:62,0
DA:63,0
DA:64,0
DA:66,7
DA:67,9
DA:69,1
DA:71,1
DA:72,1
DA:73,0
DA:74,0
DA:76,0
DA:78,0
DA:79,0
DA:81,0
DA:82,0
DA:85,0
DA:86,0
DA:90,1
DA:91,1
DA:93,1
DA:94,1
DA:95,1
DA:97,2
DA:99,1
DA:100,2
DA:102,1
DA:103,2
DA:105,1
DA:106,1
DA:107,1
DA:109,1
DA:110,1
DA:112,4
DA:113,7
DA:114,6
DA:115,3
DA:118,1
DA:119,4
DA:121,3
DA:122,3
DA:123,3
DA:125,0
DA:129,0
DA:132,0
DA:133,0
DA:136,0
DA:137,0
DA:138,0
DA:140,0
DA:144,0
DA:147,0
DA:148,0
DA:150,0
DA:152,0
DA:153,0
DA:155,0
DA:159,0
DA:160,0
DA:165,0
DA:166,0
DA:167,0
DA:171,0
DA:172,0
DA:175,0
DA:177,0
DA:178,0
DA:180,2
DA:181,2
DA:182,2
DA:184,2
DA:187,1
DA:188,1
DA:189,0
DA:192,1
DA:193,1
DA:194,1
DA:196,1
DA:197,1
DA:199,1
DA:200,1
DA:201,1
DA:203,1
DA:204,1
DA:205,1
DA:206,1
DA:208,1
DA:210,1
DA:211,1
DA:213,0
DA:218,0
DA:219,0
DA:220,0
DA:221,0
DA:223,0
DA:225,0
DA:226,0
LF:122
LH:66
end_of_record
TN:
SF:/Users/liuhongbo/work/p2p-platform/p2p-cpp/src/servers/stun/stun_server.cpp
FNL:0,0,8
FNA:0,1,__cxx_global_var_init
FNA:0,1,__cxx_global_var_init.1
FNA:0,1,__cxx_global_var_init.13
FNA:0,1,__cxx_global_var_init.14
FNA:0,1,__cxx_global_var_init.15
FNA:0,1,__cxx_global_var_init.16
FNA:0,1,__cxx_global_var_init.17
FNA:0,1,__cxx_global_var_init.18
FNA:0,1,__cxx_global_var_init.19
FNA:0,1,__cxx_global_var_init.2
FNA:0,1,__cxx_global_var_init.20
FNA:0,1,__cxx_global_var_init.21
FNA:0,1,__cxx_global_var_init.23
FNA:0,1,__cxx_global_var_init.24
FNA:0,1,__cxx_global_var_init.3
FNL:1,104,107
FNA:1,12,_ZZN3p2p6server10StunServer17handle_udp_packetEPKhmRKN5boost4asio2ip14basic_endpointINS6_3udpEEEENK3$_0clERKNS4_6system10error_codeEm
FNL:2,110,114
FNA:2,7,_ZN3p2p6server10StunServer16start_tcp_acceptEv
FNL:3,115,119
FNA:3,14,_ZZN3p2p6server10StunServer16start_tcp_acceptEvEN3$_0C1EOS2_
FNA:3,14,_ZZN3p2p6server10StunServer16start_tcp_acceptEvEN3$_0C2EOS2_
FNA:3,21,_ZZN3p2p6server10StunServer16start_tcp_acceptEvEN3$_0D1Ev
FNA:3,21,_ZZN3p2p6server10StunServer16start_tcp_acceptEvEN3$_0D2Ev
FNA:3,5,_ZZN3p2p6server10StunServer16start_tcp_acceptEvENK3$_0clERKN5boost6system10error_codeE
FNL:4,121,122
FNA:4,5,_ZN3p2p6server10StunServer17handle_tcp_acceptENSt3__110shared_ptrIN5boost4asio19basic_stream_socketINS5_2ip3tcpENS5_15any_io_executorEEEEERKNS4_6system10error_codeE
FNL:5,124,131
FNA:5,1,_ZZN3p2p6server10StunServer17handle_tcp_acceptENSt3__110shared_ptrIN5boost4asio19basic_stream_socketINS5_2ip3tcpENS5_15any_io_executorEEEEERKNS4_6system10error_codeEEN3$_0C1EOSG_
FNA:5,1,_ZZN3p2p6server10StunServer17handle_tcp_acceptENSt3__110shared_ptrIN5boost4asio19basic_stream_socketINS5_2ip3tcpENS5_15any_io_executorEEEEERKNS4_6system10error_codeEEN3$_0C2EOSG_
FNA:5,2,_ZZN3p2p6server10StunServer17handle_tcp_acceptENSt3__110shared_ptrIN5boost4asio19basic_stream_socketINS5_2ip3tcpENS5_15any_io_executorEEEEERKNS4_6system10error_codeEEN3$_0D1Ev
FNA:5,2,_ZZN3p2p6server10StunServer17handle_tcp_acceptENSt3__110shared_ptrIN5boost4asio19basic_stream_socketINS5_2ip3tcpENS5_15any_io_executorEEEEERKNS4_6system10error_codeEEN3$_0D2Ev
FNA:5,1,_ZZN3p2p6server10StunServer17handle_tcp_acceptENSt3__110shared_ptrIN5boost4asio19basic_stream_socketINS5_2ip3tcpENS5_15any_io_executorEEEEERKNS4_6system10error_codeEENK3$_0clEv
FNL:6,133,169
FNA:6,1,_ZN3p2p6server10StunServer17handle_tcp_clientENSt3__110shared_ptrIN5boost4asio19basic_stream_socketINS5_2ip3tcpENS5_15any_io_executorEEEEE
FNL:7,172,200
FNA:7,14,_ZN3p2p6server10StunServer20process_stun_messageEPKhmRKNSt3__112basic_stringIcNS4_11char_traitsIcEENS4_9allocatorIcEEEEt
FNL:8,18,20
FNA:8,6,_ZN3p2p6server10StunServerD1Ev
FNA:8,6,_ZN3p2p6server10StunServerD2Ev
FNL:9,202,226
FNA:9,12,_ZN3p2p6server10StunServer23create_binding_responseERKNS_8protocol11StunMessageERKNSt3__112basic_stringIcNS6_11char_traitsIcEENS6_9allocatorIcEEEEt
FNL:10,22,56
FNA:10,6,_ZN3p2p6server10StunServer5startEv
FNL:11,58,74
FNA:11,12,_ZN3p2p6server10StunServer4stopEv
FNL:12,77,80
FNA:12,19,_ZN3p2p6server10StunServer17start_udp_receiveEv
FNL:13,8,16
FNA:13,6,_ZN3p2p6server10StunServerC1ERN5boost4asio10io_contextERKNSt3__112basic_stringIcNS6_11char_traitsIcEENS6_9allocatorIcEEEEtt
FNA:13,6,_ZN3p2p6server10StunServerC2ERN5boost4asio10io_contextERKNSt3__112basic_stringIcNS6_11char_traitsIcEENS6_9allocatorIcEEEEtt
FNL:14,81,85
FNA:14,18,_ZZN3p2p6server10StunServer17start_udp_receiveEvENK3$_0clERKN5boost6system10error_codeEm
FNL:15,87,92
FNA:15,18,_ZN3p2p6server10StunServer18handle_udp_receiveERKN5boost6system10error_codeEm
FNL:16,94,103
FNA:16,13,_ZN3p2p6server10StunServer17handle_udp_packetEPKhmRKN5boost4asio2ip14basic_endpointINS6_3udpEEE
FNF:17
FNH:17
DA:8,12
DA:12,6
DA:13,6
DA:14,6
DA:15,6
DA:16,18
DA:18,12
DA:19,6
DA:20,12
DA:22,6
DA:23,6
DA:24,0
DA:27,6
DA:31,6
DA:32,6
DA:33,6
DA:35,6
DA:36,6
DA:37,6
DA:38,0
DA:39,0
DA:40,0
DA:44,6
DA:45,6
DA:46,6
DA:48,6
DA:49,6
DA:50,6
DA:51,0
DA:52,0
DA:53,0
DA:55,6
DA:56,6
DA:58,12
DA:59,12
DA:60,6
DA:63,6
DA:65,6
DA:66,6
DA:67,6
DA:69,6
DA:70,6
DA:71,6
DA:73,6
DA:74,12
DA:77,19
DA:78,38
DA:79,19
DA:80,19
DA:81,37
DA:82,18
DA:83,18
DA:85,19
DA:87,18
DA:88,18
DA:89,13
DA:90,13
DA:91,13
DA:92,18
DA:94,13
DA:95,13
DA:96,13
DA:98,13
DA:100,13
DA:101,24
DA:102,12
DA:103,12
DA:104,12
DA:106,12
DA:107,13
DA:110,7
DA:111,7
DA:113,14
DA:114,7
DA:115,12
DA:116,5
DA:117,5
DA:119,7
DA:121,5
DA:122,5
DA:124,3
DA:125,1
DA:126,2
DA:129,1
DA:130,1
DA:131,5
DA:133,1
DA:137,1
DA:140,1
DA:143,1
DA:144,1
DA:145,1
DA:148,1
DA:149,1
DA:150,1
DA:153,1
DA:155,1
DA:157,1
DA:158,1
DA:159,2
DA:161,1
DA:162,1
DA:164,1
DA:165,1
DA:166,1
DA:167,0
DA:168,0
DA:169,1
DA:172,14
DA:179,14
DA:181,14
DA:182,1
DA:183,1
DA:186,13
DA:189,13
DA:190,12
DA:193,1
DA:194,1
DA:196,1
DA:198,1
DA:199,1
DA:200,14
DA:202,12
DA:208,12
DA:210,12
DA:214,12
DA:215,12
DA:216,12
DA:217,12
DA:220,12
DA:222,12
DA:225,12
DA:226,12
LF:133
LH:124
end_of_record
TN:
SF:/Users/liuhongbo/work/p2p-platform/p2p-cpp/src/transport/udp_transport.cpp
FNL:0,0,9
FNA:0,1,__cxx_global_var_init
FNA:0,1,__cxx_global_var_init.1
FNA:0,1,__cxx_global_var_init.10
FNA:0,1,__cxx_global_var_init.11
FNA:0,1,__cxx_global_var_init.12
FNA:0,1,__cxx_global_var_init.14
FNA:0,1,__cxx_global_var_init.2
FNA:0,1,__cxx_global_var_init.3
FNA:0,1,__cxx_global_var_init.4
FNA:0,1,__cxx_global_var_init.5
FNA:0,1,__cxx_global_var_init.6
FNA:0,1,__cxx_global_var_init.7
FNA:0,1,__cxx_global_var_init.8
FNA:0,1,__cxx_global_var_init.9
FNL:1,102,104
FNA:1,6,_ZNK3p2p9transport12UDPTransport14local_endpointEv
FNL:2,107,115
FNA:2,25,_ZN3p2p9transport12UDPTransport13start_receiveEv
FNL:3,116,120
FNA:3,50,_ZZN3p2p9transport12UDPTransport13start_receiveEvEN3$_0C1EOS2_
FNA:3,50,_ZZN3p2p9transport12UDPTransport13start_receiveEvEN3$_0C2EOS2_
FNA:3,75,_ZZN3p2p9transport12UDPTransport13start_receiveEvEN3$_0D1Ev
FNA:3,75,_ZZN3p2p9transport12UDPTransport13start_receiveEvEN3$_0D2Ev
FNA:3,21,_ZZN3p2p9transport12UDPTransport13start_receiveEvENK3$_0clERKN5boost6system10error_codeEm
FNL:4,122,138
FNA:4,21,_ZN3p2p9transport12UDPTransport14handle_receiveERKN5boost6system10error_codeEm
FNL:5,23,25
FNA:5,14,_ZN3p2p9transport12UDPTransportD1Ev
FNA:5,14,_ZN3p2p9transport12UDPTransportD2Ev
FNL:6,27,41
FNA:6,13,_ZN3p2p9transport12UDPTransport5startERNSt3__110error_codeE
FNL:7,43,52
FNA:7,26,_ZN3p2p9transport12UDPTransport4stopEv
FNL:8,54,69
FNA:8,14,_ZN3p2p9transport12UDPTransport7send_toERKNSt3__16vectorIhNS2_9allocatorIhEEEERKN5boost4asio2ip14basic_endpointINSB_3udpEEENS2_8functionIFvRKNS2_10error_codeEEEE
FNL:9,70,81
FNA:9,26,_ZZN3p2p9transport12UDPTransport7send_toERKNSt3__16vectorIhNS2_9allocatorIhEEEERKN5boost4asio2ip14basic_endpointINSB_3udpEEENS2_8functionIFvRKNS2_10error_codeEEEEEN3$_0C1EOSN_
FNA:9,26,_ZZN3p2p9transport12UDPTransport7send_toERKNSt3__16vectorIhNS2_9allocatorIhEEEERKN5boost4asio2ip14basic_endpointINSB_3udpEEENS2_8functionIFvRKNS2_10error_codeEEEEEN3$_0C2EOSN_
FNA:9,39,_ZZN3p2p9transport12UDPTransport7send_toERKNSt3__16vectorIhNS2_9allocatorIhEEEERKN5boost4asio2ip14basic_endpointINSB_3udpEEENS2_8functionIFvRKNS2_10error_codeEEEEEN3$_0D1Ev
FNA:9,39,_ZZN3p2p9transport12UDPTransport7send_toERKNSt3__16vectorIhNS2_9allocatorIhEEEERKN5boost4asio2ip14basic_endpointINSB_3udpEEENS2_8functionIFvRKNS2_10error_codeEEEEEN3$_0D2Ev
FNA:9,13,_ZZN3p2p9transport12UDPTransport7send_toERKNSt3__16vectorIhNS2_9allocatorIhEEEERKN5boost4asio2ip14basic_endpointINSB_3udpEEENS2_8functionIFvRKNS2_10error_codeEEEEENK3$_0clERKNS9_6system10error_codeEm
FNL:10,83,85
FNA:10,1,_ZN3p2p9transport12UDPTransport8set_peerERKN5boost4asio2ip14basic_endpointINS4_3udpEEE
FNL:11,87,96
FNA:11,2,_ZN3p2p9transport12UDPTransport4sendERKNSt3__16vectorIhNS2_9allocatorIhEEEENS2_8functionIFvRKNS2_10error_codeEEEE
FNL:12,9,21
FNA:12,14,_ZN3p2p9transport12UDPTransportC1ERN5boost4asio10io_contextEt
FNA:12,14,_ZN3p2p9transport12UDPTransportC2ERN5boost4asio10io_contextEt
FNL:13,98,100
FNA:13,4,_ZN3p2p9transport12UDPTransport20set_receive_callbackENSt3__18functionIFvRKNS2_6vectorIhNS2_9allocatorIhEEEERKN5boost4asio2ip14basic_endpointINSC_3udpEEEEEE
FNF:14
FNH:14
DA:9,28
DA:10,14
DA:11,14
DA:12,14
DA:13,14
DA:14,14
DA:15,14
DA:16,14
DA:17,14
DA:18,14
DA:19,14
DA:20,14
DA:21,28
DA:23,28
DA:24,14
DA:25,28
DA:27,13
DA:28,13
DA:29,1
DA:30,1
DA:33,12
DA:34,0
DA:35,0
DA:38,12
DA:39,12
DA:40,12
DA:41,13
DA:43,26
DA:44,26
DA:45,14
DA:48,12
DA:50,12
DA:51,12
DA:52,26
DA:54,14
DA:57,14
DA:58,1
DA:59,1
DA:60,1
DA:61,1
DA:65,13
DA:66,13
DA:67,13
DA:68,13
DA:69,13
DA:70,26
DA:71,13
DA:72,13
DA:73,13
DA:75,0
DA:76,0
DA:77,13
DA:78,13
DA:79,13
DA:81,14
DA:83,1
DA:84,1
DA:85,1
DA:87,2
DA:88,2
DA:89,1
DA:90,1
DA:91,1
DA:92,1
DA:95,1
DA:96,2
DA:98,4
DA:99,4
DA:100,4
DA:102,6
DA:103,6
DA:104,6
DA:107,25
DA:108,25
DA:109,0
DA:112,25
DA:113,50
DA:114,25
DA:115,25
DA:116,46
DA:117,21
DA:118,21
DA:120,25
DA:122,21
DA:124,21
DA:125,8
DA:128,13
DA:129,13
DA:130,26
DA:131,13
DA:132,13
DA:133,13
DA:134,13
DA:137,13
DA:138,21
LF:95
LH:90
end_of_record
